ARM GAS  C:\Users\MARCUS~1\AppData\Local\Temp\ccnS8cUf.s 			page 1


   1              		.syntax unified
   2              		.cpu cortex-m3
   3              		.fpu softvfp
   4              		.eabi_attribute 20, 1
   5              		.eabi_attribute 21, 1
   6              		.eabi_attribute 23, 3
   7              		.eabi_attribute 24, 1
   8              		.eabi_attribute 25, 1
   9              		.eabi_attribute 26, 1
  10              		.eabi_attribute 30, 1
  11              		.eabi_attribute 34, 1
  12              		.eabi_attribute 18, 4
  13              		.thumb
  14              		.syntax unified
  15              		.file	"light_control.c"
  16              		.text
  17              	.Ltext0:
  18              		.cfi_sections	.debug_frame
  19              		.section	.text.latchShiftReg,"ax",%progbits
  20              		.align	2
  21              		.global	latchShiftReg
  22              		.thumb
  23              		.thumb_func
  24              		.type	latchShiftReg, %function
  25              	latchShiftReg:
  26              	.LFB66:
  27              		.file 1 "light_control.c"
   1:light_control.c **** /* ========================================
   2:light_control.c ****  *
   3:light_control.c ****  * Copyright YOUR COMPANY, THE YEAR
   4:light_control.c ****  * All Rights Reserved
   5:light_control.c ****  * UNPUBLISHED, LICENSED SOFTWARE.
   6:light_control.c ****  *
   7:light_control.c ****  * CONFIDENTIAL AND PROPRIETARY INFORMATION
   8:light_control.c ****  * WHICH IS THE PROPERTY OF your company.
   9:light_control.c ****  *
  10:light_control.c ****  * ========================================
  11:light_control.c **** */
  12:light_control.c **** #include "light_control.h"
  13:light_control.c **** 
  14:light_control.c **** 
  15:light_control.c **** void initLedControl()
  16:light_control.c **** {
  17:light_control.c ****     isr_update_leds_StartEx(led_updater_handler );
  18:light_control.c ****     initRGBLED();
  19:light_control.c ****     color_t white = {255,255,255};
  20:light_control.c ****     controlAllLights(white);
  21:light_control.c ****     SPIM_led_control_Start();
  22:light_control.c ****     Timer_led_updater_Start();
  23:light_control.c **** }
  24:light_control.c **** 
  25:light_control.c **** CY_ISR(led_updater_handler)
  26:light_control.c **** {
  27:light_control.c ****     updateLight();
  28:light_control.c **** }
  29:light_control.c **** 
  30:light_control.c **** void updateLight()
ARM GAS  C:\Users\MARCUS~1\AppData\Local\Temp\ccnS8cUf.s 			page 2


  31:light_control.c **** {
  32:light_control.c ****     SPIM_led_control_WriteTxData(~(1<<ledToUpdate)); //OBS CHANGE IF TRANSISTORS ARE USED
  33:light_control.c ****     disableLights(); //Disable lights while updating output
  34:light_control.c ****     setColor(rgb_leds[ledToUpdate]); //Update color
  35:light_control.c ****     latchShiftReg();
  36:light_control.c ****     enableLights();
  37:light_control.c ****     if(ledToUpdate++ == LEDS_TO_CONTROL)
  38:light_control.c ****     {
  39:light_control.c ****         ledToUpdate = 0;
  40:light_control.c ****     }
  41:light_control.c **** }
  42:light_control.c **** 
  43:light_control.c **** void latchShiftReg()
  44:light_control.c **** {
  28              		.loc 1 44 0
  29              		.cfi_startproc
  30              		@ args = 0, pretend = 0, frame = 0
  31              		@ frame_needed = 0, uses_anonymous_args = 0
  32 0000 08B5     		push	{r3, lr}
  33              		.cfi_def_cfa_offset 8
  34              		.cfi_offset 3, -8
  35              		.cfi_offset 14, -4
  45:light_control.c ****     Pin_latch_Write(0);
  36              		.loc 1 45 0
  37 0002 0020     		movs	r0, #0
  38 0004 FFF7FEFF 		bl	Pin_latch_Write
  39              	.LVL0:
  46:light_control.c ****     Pin_latch_Write(1);
  40              		.loc 1 46 0
  41 0008 0120     		movs	r0, #1
  42 000a FFF7FEFF 		bl	Pin_latch_Write
  43              	.LVL1:
  47:light_control.c ****     Pin_latch_Write(0);
  44              		.loc 1 47 0
  45 000e 0020     		movs	r0, #0
  46 0010 FFF7FEFF 		bl	Pin_latch_Write
  47              	.LVL2:
  48 0014 08BD     		pop	{r3, pc}
  49              		.cfi_endproc
  50              	.LFE66:
  51              		.size	latchShiftReg, .-latchShiftReg
  52 0016 00BF     		.section	.text.disableLights,"ax",%progbits
  53              		.align	2
  54              		.global	disableLights
  55              		.thumb
  56              		.thumb_func
  57              		.type	disableLights, %function
  58              	disableLights:
  59              	.LFB67:
  48:light_control.c **** }
  49:light_control.c **** 
  50:light_control.c **** void disableLights()
  51:light_control.c **** {
  60              		.loc 1 51 0
  61              		.cfi_startproc
  62              		@ args = 0, pretend = 0, frame = 0
  63              		@ frame_needed = 0, uses_anonymous_args = 0
ARM GAS  C:\Users\MARCUS~1\AppData\Local\Temp\ccnS8cUf.s 			page 3


  64 0000 08B5     		push	{r3, lr}
  65              		.cfi_def_cfa_offset 8
  66              		.cfi_offset 3, -8
  67              		.cfi_offset 14, -4
  52:light_control.c ****     Pin_output_enable_Write(1);
  68              		.loc 1 52 0
  69 0002 0120     		movs	r0, #1
  70 0004 FFF7FEFF 		bl	Pin_output_enable_Write
  71              	.LVL3:
  72 0008 08BD     		pop	{r3, pc}
  73              		.cfi_endproc
  74              	.LFE67:
  75              		.size	disableLights, .-disableLights
  76 000a 00BF     		.section	.text.enableLights,"ax",%progbits
  77              		.align	2
  78              		.global	enableLights
  79              		.thumb
  80              		.thumb_func
  81              		.type	enableLights, %function
  82              	enableLights:
  83              	.LFB68:
  53:light_control.c **** }
  54:light_control.c **** 
  55:light_control.c **** void enableLights()
  56:light_control.c **** {
  84              		.loc 1 56 0
  85              		.cfi_startproc
  86              		@ args = 0, pretend = 0, frame = 0
  87              		@ frame_needed = 0, uses_anonymous_args = 0
  88 0000 08B5     		push	{r3, lr}
  89              		.cfi_def_cfa_offset 8
  90              		.cfi_offset 3, -8
  91              		.cfi_offset 14, -4
  57:light_control.c ****     Pin_output_enable_Write(0);
  92              		.loc 1 57 0
  93 0002 0020     		movs	r0, #0
  94 0004 FFF7FEFF 		bl	Pin_output_enable_Write
  95              	.LVL4:
  96 0008 08BD     		pop	{r3, pc}
  97              		.cfi_endproc
  98              	.LFE68:
  99              		.size	enableLights, .-enableLights
 100 000a 00BF     		.section	.text.updateLight,"ax",%progbits
 101              		.align	2
 102              		.global	updateLight
 103              		.thumb
 104              		.thumb_func
 105              		.type	updateLight, %function
 106              	updateLight:
 107              	.LFB65:
  31:light_control.c ****     SPIM_led_control_WriteTxData(~(1<<ledToUpdate)); //OBS CHANGE IF TRANSISTORS ARE USED
 108              		.loc 1 31 0
 109              		.cfi_startproc
 110              		@ args = 0, pretend = 0, frame = 0
 111              		@ frame_needed = 0, uses_anonymous_args = 0
 112 0000 10B5     		push	{r4, lr}
 113              		.cfi_def_cfa_offset 8
ARM GAS  C:\Users\MARCUS~1\AppData\Local\Temp\ccnS8cUf.s 			page 4


 114              		.cfi_offset 4, -8
 115              		.cfi_offset 14, -4
  32:light_control.c ****     disableLights(); //Disable lights while updating output
 116              		.loc 1 32 0
 117 0002 124C     		ldr	r4, .L10
 118 0004 2078     		ldrb	r0, [r4]	@ zero_extendqisi2
 119 0006 0123     		movs	r3, #1
 120 0008 03FA00F0 		lsl	r0, r3, r0
 121 000c C043     		mvns	r0, r0
 122 000e C0B2     		uxtb	r0, r0
 123 0010 FFF7FEFF 		bl	SPIM_led_control_WriteTxData
 124              	.LVL5:
  33:light_control.c ****     setColor(rgb_leds[ledToUpdate]); //Update color
 125              		.loc 1 33 0
 126 0014 FFF7FEFF 		bl	disableLights
 127              	.LVL6:
  34:light_control.c ****     latchShiftReg();
 128              		.loc 1 34 0
 129 0018 2378     		ldrb	r3, [r4]	@ zero_extendqisi2
 130 001a 03EB4303 		add	r3, r3, r3, lsl #1
 131 001e 2344     		add	r3, r3, r4
 132 0020 1A1D     		adds	r2, r3, #4
 133 0022 1B79     		ldrb	r3, [r3, #4]	@ zero_extendqisi2
 134 0024 5078     		ldrb	r0, [r2, #1]	@ zero_extendqisi2
 135 0026 43EA0023 		orr	r3, r3, r0, lsl #8
 136 002a 9078     		ldrb	r0, [r2, #2]	@ zero_extendqisi2
 137 002c 43EA0040 		orr	r0, r3, r0, lsl #16
 138 0030 FFF7FEFF 		bl	setColor
 139              	.LVL7:
  35:light_control.c ****     enableLights();
 140              		.loc 1 35 0
 141 0034 FFF7FEFF 		bl	latchShiftReg
 142              	.LVL8:
  36:light_control.c ****     if(ledToUpdate++ == LEDS_TO_CONTROL)
 143              		.loc 1 36 0
 144 0038 FFF7FEFF 		bl	enableLights
 145              	.LVL9:
  37:light_control.c ****     {
 146              		.loc 1 37 0
 147 003c 2378     		ldrb	r3, [r4]	@ zero_extendqisi2
 148 003e 5A1C     		adds	r2, r3, #1
 149 0040 2270     		strb	r2, [r4]
 150 0042 082B     		cmp	r3, #8
 151 0044 01D1     		bne	.L7
  39:light_control.c ****     }
 152              		.loc 1 39 0
 153 0046 0022     		movs	r2, #0
 154 0048 2270     		strb	r2, [r4]
 155              	.L7:
 156 004a 10BD     		pop	{r4, pc}
 157              	.L11:
 158              		.align	2
 159              	.L10:
 160 004c 00000000 		.word	.LANCHOR0
 161              		.cfi_endproc
 162              	.LFE65:
 163              		.size	updateLight, .-updateLight
ARM GAS  C:\Users\MARCUS~1\AppData\Local\Temp\ccnS8cUf.s 			page 5


 164              		.section	.text.led_updater_handler,"ax",%progbits
 165              		.align	2
 166              		.global	led_updater_handler
 167              		.thumb
 168              		.thumb_func
 169              		.type	led_updater_handler, %function
 170              	led_updater_handler:
 171              	.LFB64:
  26:light_control.c ****     updateLight();
 172              		.loc 1 26 0
 173              		.cfi_startproc
 174              		@ args = 0, pretend = 0, frame = 0
 175              		@ frame_needed = 0, uses_anonymous_args = 0
 176 0000 08B5     		push	{r3, lr}
 177              		.cfi_def_cfa_offset 8
 178              		.cfi_offset 3, -8
 179              		.cfi_offset 14, -4
  27:light_control.c **** }
 180              		.loc 1 27 0
 181 0002 FFF7FEFF 		bl	updateLight
 182              	.LVL10:
 183 0006 08BD     		pop	{r3, pc}
 184              		.cfi_endproc
 185              	.LFE64:
 186              		.size	led_updater_handler, .-led_updater_handler
 187              		.section	.text.controlLight,"ax",%progbits
 188              		.align	2
 189              		.global	controlLight
 190              		.thumb
 191              		.thumb_func
 192              		.type	controlLight, %function
 193              	controlLight:
 194              	.LFB69:
  58:light_control.c **** }
  59:light_control.c **** 
  60:light_control.c **** void controlLight(uint8_t nr, color_t color)
  61:light_control.c **** {
 195              		.loc 1 61 0
 196              		.cfi_startproc
 197              		@ args = 0, pretend = 0, frame = 8
 198              		@ frame_needed = 0, uses_anonymous_args = 0
 199              		@ link register save eliminated.
 200              	.LVL11:
 201 0000 82B0     		sub	sp, sp, #8
 202              		.cfi_def_cfa_offset 8
 203 0002 0191     		str	r1, [sp, #4]
  62:light_control.c ****     if (nr >= 0 && nr < LEDS_TO_CONTROL)
 204              		.loc 1 62 0
 205 0004 0728     		cmp	r0, #7
 206 0006 09D8     		bhi	.L14
  63:light_control.c ****     {
  64:light_control.c ****         rgb_leds[nr] = color;
 207              		.loc 1 64 0
 208 0008 00EB4000 		add	r0, r0, r0, lsl #1
 209              	.LVL12:
 210 000c 044B     		ldr	r3, .L17
 211 000e 1844     		add	r0, r0, r3
ARM GAS  C:\Users\MARCUS~1\AppData\Local\Temp\ccnS8cUf.s 			page 6


 212 0010 02AB     		add	r3, sp, #8
 213 0012 33F8042D 		ldrh	r2, [r3, #-4]!	@ unaligned
 214 0016 9B78     		ldrb	r3, [r3, #2]	@ zero_extendqisi2
 215 0018 8280     		strh	r2, [r0, #4]	@ unaligned
 216 001a 8371     		strb	r3, [r0, #6]
 217              	.L14:
  65:light_control.c ****     }
  66:light_control.c **** }
 218              		.loc 1 66 0
 219 001c 02B0     		add	sp, sp, #8
 220              		.cfi_def_cfa_offset 0
 221              		@ sp needed
 222 001e 7047     		bx	lr
 223              	.L18:
 224              		.align	2
 225              	.L17:
 226 0020 00000000 		.word	.LANCHOR0
 227              		.cfi_endproc
 228              	.LFE69:
 229              		.size	controlLight, .-controlLight
 230              		.section	.text.controlAllLights,"ax",%progbits
 231              		.align	2
 232              		.global	controlAllLights
 233              		.thumb
 234              		.thumb_func
 235              		.type	controlAllLights, %function
 236              	controlAllLights:
 237              	.LFB70:
  67:light_control.c **** 
  68:light_control.c **** void controlAllLights(color_t color)
  69:light_control.c **** {
 238              		.loc 1 69 0
 239              		.cfi_startproc
 240              		@ args = 0, pretend = 0, frame = 8
 241              		@ frame_needed = 0, uses_anonymous_args = 0
 242 0000 10B5     		push	{r4, lr}
 243              		.cfi_def_cfa_offset 8
 244              		.cfi_offset 4, -8
 245              		.cfi_offset 14, -4
 246 0002 82B0     		sub	sp, sp, #8
 247              		.cfi_def_cfa_offset 16
 248 0004 0190     		str	r0, [sp, #4]
 249              	.LVL13:
 250              	.LBB2:
  70:light_control.c ****     for (uint8_t i = 0; i < LEDS_TO_CONTROL; i++){
 251              		.loc 1 70 0
 252 0006 0024     		movs	r4, #0
 253 0008 05E0     		b	.L20
 254              	.LVL14:
 255              	.L21:
  71:light_control.c ****          controlLight(i,color);
 256              		.loc 1 71 0 discriminator 3
 257 000a 0199     		ldr	r1, [sp, #4]
 258 000c 2046     		mov	r0, r4
 259 000e FFF7FEFF 		bl	controlLight
 260              	.LVL15:
  70:light_control.c ****     for (uint8_t i = 0; i < LEDS_TO_CONTROL; i++){
ARM GAS  C:\Users\MARCUS~1\AppData\Local\Temp\ccnS8cUf.s 			page 7


 261              		.loc 1 70 0 discriminator 3
 262 0012 0134     		adds	r4, r4, #1
 263              	.LVL16:
 264 0014 E4B2     		uxtb	r4, r4
 265              	.LVL17:
 266              	.L20:
  70:light_control.c ****     for (uint8_t i = 0; i < LEDS_TO_CONTROL; i++){
 267              		.loc 1 70 0 is_stmt 0 discriminator 1
 268 0016 072C     		cmp	r4, #7
 269 0018 F7D9     		bls	.L21
 270              	.LBE2:
  72:light_control.c ****     }
  73:light_control.c **** }
 271              		.loc 1 73 0 is_stmt 1
 272 001a 02B0     		add	sp, sp, #8
 273              		.cfi_def_cfa_offset 8
 274              		@ sp needed
 275 001c 10BD     		pop	{r4, pc}
 276              		.cfi_endproc
 277              	.LFE70:
 278              		.size	controlAllLights, .-controlAllLights
 279 001e 00BF     		.section	.text.initLedControl,"ax",%progbits
 280              		.align	2
 281              		.global	initLedControl
 282              		.thumb
 283              		.thumb_func
 284              		.type	initLedControl, %function
 285              	initLedControl:
 286              	.LFB63:
  16:light_control.c ****     isr_update_leds_StartEx(led_updater_handler );
 287              		.loc 1 16 0
 288              		.cfi_startproc
 289              		@ args = 0, pretend = 0, frame = 8
 290              		@ frame_needed = 0, uses_anonymous_args = 0
 291 0000 00B5     		push	{lr}
 292              		.cfi_def_cfa_offset 4
 293              		.cfi_offset 14, -4
 294 0002 83B0     		sub	sp, sp, #12
 295              		.cfi_def_cfa_offset 16
  17:light_control.c ****     initRGBLED();
 296              		.loc 1 17 0
 297 0004 0A48     		ldr	r0, .L25
 298 0006 FFF7FEFF 		bl	isr_update_leds_StartEx
 299              	.LVL18:
  18:light_control.c ****     color_t white = {255,255,255};
 300              		.loc 1 18 0
 301 000a FFF7FEFF 		bl	initRGBLED
 302              	.LVL19:
  19:light_control.c ****     controlAllLights(white);
 303              		.loc 1 19 0
 304 000e 094B     		ldr	r3, .L25+4
 305 0010 1A88     		ldrh	r2, [r3]	@ unaligned
 306 0012 9B78     		ldrb	r3, [r3, #2]	@ zero_extendqisi2
 307 0014 ADF80420 		strh	r2, [sp, #4]	@ unaligned
 308 0018 8DF80630 		strb	r3, [sp, #6]
  20:light_control.c ****     SPIM_led_control_Start();
 309              		.loc 1 20 0
ARM GAS  C:\Users\MARCUS~1\AppData\Local\Temp\ccnS8cUf.s 			page 8


 310 001c 0198     		ldr	r0, [sp, #4]
 311 001e FFF7FEFF 		bl	controlAllLights
 312              	.LVL20:
  21:light_control.c ****     Timer_led_updater_Start();
 313              		.loc 1 21 0
 314 0022 FFF7FEFF 		bl	SPIM_led_control_Start
 315              	.LVL21:
  22:light_control.c **** }
 316              		.loc 1 22 0
 317 0026 FFF7FEFF 		bl	Timer_led_updater_Start
 318              	.LVL22:
  23:light_control.c **** 
 319              		.loc 1 23 0
 320 002a 03B0     		add	sp, sp, #12
 321              		.cfi_def_cfa_offset 4
 322              		@ sp needed
 323 002c 5DF804FB 		ldr	pc, [sp], #4
 324              	.L26:
 325              		.align	2
 326              	.L25:
 327 0030 00000000 		.word	led_updater_handler
 328 0034 00000000 		.word	.LANCHOR1
 329              		.cfi_endproc
 330              	.LFE63:
 331              		.size	initLedControl, .-initLedControl
 332              		.section	.rodata
 333              		.align	2
 334              		.set	.LANCHOR1,. + 0
 335              	.LC0:
 336 0000 FF       		.byte	-1
 337 0001 FF       		.byte	-1
 338 0002 FF       		.byte	-1
 339              		.bss
 340              		.align	2
 341              		.set	.LANCHOR0,. + 0
 342              		.type	ledToUpdate, %object
 343              		.size	ledToUpdate, 1
 344              	ledToUpdate:
 345 0000 00       		.space	1
 346 0001 000000   		.space	3
 347              		.type	rgb_leds, %object
 348              		.size	rgb_leds, 24
 349              	rgb_leds:
 350 0004 00000000 		.space	24
 350      00000000 
 350      00000000 
 350      00000000 
 350      00000000 
 351              		.text
 352              	.Letext0:
 353              		.file 2 "f:\\marcus\\software\\psoc creator\\4.2\\psoc creator\\import\\gnu\\arm\\5.4.1\\arm-none-
 354              		.file 3 "f:\\marcus\\software\\psoc creator\\4.2\\psoc creator\\import\\gnu\\arm\\5.4.1\\arm-none-
 355              		.file 4 "rgb_led.h"
 356              		.file 5 "light_control.h"
 357              		.file 6 "Generated_Source\\PSoC5/Pin_latch.h"
 358              		.file 7 "Generated_Source\\PSoC5/Pin_output_enable.h"
 359              		.file 8 "Generated_Source\\PSoC5/SPIM_led_control.h"
ARM GAS  C:\Users\MARCUS~1\AppData\Local\Temp\ccnS8cUf.s 			page 9


 360              		.file 9 "Generated_Source\\PSoC5/isr_update_leds.h"
 361              		.file 10 "Generated_Source\\PSoC5/Timer_led_updater.h"
 362              		.file 11 "Generated_Source\\PSoC5/core_cm3.h"