ARM GAS  C:\Users\MARCUS~1\AppData\Local\Temp\cc54CnPv.s 			page 1


   1              		.syntax unified
   2              		.cpu cortex-m3
   3              		.fpu softvfp
   4              		.eabi_attribute 20, 1
   5              		.eabi_attribute 21, 1
   6              		.eabi_attribute 23, 3
   7              		.eabi_attribute 24, 1
   8              		.eabi_attribute 25, 1
   9              		.eabi_attribute 26, 1
  10              		.eabi_attribute 30, 1
  11              		.eabi_attribute 34, 1
  12              		.eabi_attribute 18, 4
  13              		.thumb
  14              		.syntax unified
  15              		.file	"main.c"
  16              		.text
  17              	.Ltext0:
  18              		.cfi_sections	.debug_frame
  19              		.section	.text.main,"ax",%progbits
  20              		.align	2
  21              		.global	main
  22              		.thumb
  23              		.thumb_func
  24              		.type	main, %function
  25              	main:
  26              	.LFB63:
  27              		.file 1 "main.c"
   1:main.c        **** /* ========================================
   2:main.c        ****  *
   3:main.c        ****  * Copyright YOUR COMPANY, THE YEAR
   4:main.c        ****  * All Rights Reserved
   5:main.c        ****  * UNPUBLISHED, LICENSED SOFTWARE.
   6:main.c        ****  *
   7:main.c        ****  * CONFIDENTIAL AND PROPRIETARY INFORMATION
   8:main.c        ****  * WHICH IS THE PROPERTY OF your company.
   9:main.c        ****  *
  10:main.c        ****  * ========================================
  11:main.c        **** */
  12:main.c        **** #include "project.h"
  13:main.c        **** #include "light_control.h"
  14:main.c        **** 
  15:main.c        **** CY_ISR_PROTO(ISR_UART_rx_handler);
  16:main.c        **** void handleByteReceived(uint8_t byteReceived);
  17:main.c        **** int globalRed = 0;
  18:main.c        **** int globalGreen = 0;
  19:main.c        **** int globalBlue = 0;
  20:main.c        **** 
  21:main.c        **** int main(void)
  22:main.c        **** {
  28              		.loc 1 22 0
  29              		.cfi_startproc
  30              		@ Volatile: function does not return.
  31              		@ args = 0, pretend = 0, frame = 0
  32              		@ frame_needed = 0, uses_anonymous_args = 0
  33 0000 08B5     		push	{r3, lr}
  34              		.cfi_def_cfa_offset 8
  35              		.cfi_offset 3, -8
ARM GAS  C:\Users\MARCUS~1\AppData\Local\Temp\cc54CnPv.s 			page 2


  36              		.cfi_offset 14, -4
  23:main.c        ****     CyGlobalIntEnable; /* Enable global interrupts. */
  37              		.loc 1 23 0
  38              		.syntax unified
  39              	@ 23 "main.c" 1
  40 0002 62B6     		CPSIE   i
  41              	@ 0 "" 2
  24:main.c        ****     isr_uart_rx_StartEx(ISR_UART_rx_handler);
  42              		.loc 1 24 0
  43              		.thumb
  44              		.syntax unified
  45 0004 0548     		ldr	r0, .L4
  46 0006 FFF7FEFF 		bl	isr_uart_rx_StartEx
  47              	.LVL0:
  25:main.c        ****     UART_1_Start();
  48              		.loc 1 25 0
  49 000a FFF7FEFF 		bl	UART_1_Start
  50              	.LVL1:
  26:main.c        ****     UART_1_PutString("Program started\r\n"); 
  51              		.loc 1 26 0
  52 000e 0448     		ldr	r0, .L4+4
  53 0010 FFF7FEFF 		bl	UART_1_PutString
  54              	.LVL2:
  27:main.c        ****     initLedControl();
  55              		.loc 1 27 0
  56 0014 FFF7FEFF 		bl	initLedControl
  57              	.LVL3:
  58              	.L2:
  59 0018 FEE7     		b	.L2
  60              	.L5:
  61 001a 00BF     		.align	2
  62              	.L4:
  63 001c 00000000 		.word	ISR_UART_rx_handler
  64 0020 00000000 		.word	.LC3
  65              		.cfi_endproc
  66              	.LFE63:
  67              		.size	main, .-main
  68              		.section	.text.handleByteReceived,"ax",%progbits
  69              		.align	2
  70              		.global	handleByteReceived
  71              		.thumb
  72              		.thumb_func
  73              		.type	handleByteReceived, %function
  74              	handleByteReceived:
  75              	.LFB65:
  28:main.c        ****     for(;;)
  29:main.c        ****     {
  30:main.c        ****         
  31:main.c        ****     }
  32:main.c        **** }
  33:main.c        **** 
  34:main.c        **** CY_ISR(ISR_UART_rx_handler)
  35:main.c        **** {
  36:main.c        ****     uint8_t bytesToRead = UART_1_GetRxBufferSize();    
  37:main.c        ****     //Read bytes
  38:main.c        ****     while (bytesToRead > 0)
  39:main.c        ****     {
ARM GAS  C:\Users\MARCUS~1\AppData\Local\Temp\cc54CnPv.s 			page 3


  40:main.c        ****         uint8_t byteReceived = UART_1_ReadRxData();
  41:main.c        ****         UART_1_WriteTxData(byteReceived); // echo back
  42:main.c        ****         
  43:main.c        ****         handleByteReceived(byteReceived);
  44:main.c        ****         
  45:main.c        ****         bytesToRead--;
  46:main.c        ****     }
  47:main.c        **** }
  48:main.c        **** 
  49:main.c        **** void handleByteReceived(uint8_t byteReceived)
  50:main.c        **** {
  76              		.loc 1 50 0
  77              		.cfi_startproc
  78              		@ args = 0, pretend = 0, frame = 40
  79              		@ frame_needed = 0, uses_anonymous_args = 0
  80              	.LVL4:
  81 0000 00B5     		push	{lr}
  82              		.cfi_def_cfa_offset 4
  83              		.cfi_offset 14, -4
  84 0002 8BB0     		sub	sp, sp, #44
  85              		.cfi_def_cfa_offset 48
  51:main.c        ****     switch(byteReceived)
  86              		.loc 1 51 0
  87 0004 6138     		subs	r0, r0, #97
  88              	.LVL5:
  89 0006 1928     		cmp	r0, #25
  90 0008 00F29D80 		bhi	.L6
  91 000c DFE800F0 		tbb	[pc, r0]
  92              	.L9:
  93 0010 3A       		.byte	(.L8-.L9)/2
  94 0011 9B       		.byte	(.L6-.L9)/2
  95 0012 8B       		.byte	(.L10-.L9)/2
  96 0013 59       		.byte	(.L11-.L9)/2
  97 0014 2B       		.byte	(.L12-.L9)/2
  98 0015 9B       		.byte	(.L6-.L9)/2
  99 0016 9B       		.byte	(.L6-.L9)/2
 100 0017 9B       		.byte	(.L6-.L9)/2
 101 0018 9B       		.byte	(.L6-.L9)/2
 102 0019 9B       		.byte	(.L6-.L9)/2
 103 001a 9B       		.byte	(.L6-.L9)/2
 104 001b 9B       		.byte	(.L6-.L9)/2
 105 001c 9B       		.byte	(.L6-.L9)/2
 106 001d 9B       		.byte	(.L6-.L9)/2
 107 001e 9B       		.byte	(.L6-.L9)/2
 108 001f 9B       		.byte	(.L6-.L9)/2
 109 0020 0D       		.byte	(.L13-.L9)/2
 110 0021 9B       		.byte	(.L6-.L9)/2
 111 0022 49       		.byte	(.L14-.L9)/2
 112 0023 9B       		.byte	(.L6-.L9)/2
 113 0024 9B       		.byte	(.L6-.L9)/2
 114 0025 9B       		.byte	(.L6-.L9)/2
 115 0026 1C       		.byte	(.L15-.L9)/2
 116 0027 7A       		.byte	(.L16-.L9)/2
 117 0028 9B       		.byte	(.L6-.L9)/2
 118 0029 69       		.byte	(.L17-.L9)/2
 119              		.p2align 1
 120              	.L13:
ARM GAS  C:\Users\MARCUS~1\AppData\Local\Temp\cc54CnPv.s 			page 4


  52:main.c        ****     {
  53:main.c        ****         case 'q' :
  54:main.c        ****         {
  55:main.c        ****             controlLight(0,(color_t)RED);
 121              		.loc 1 55 0
 122 002a FF23     		movs	r3, #255
 123 002c 8DF80430 		strb	r3, [sp, #4]
 124 0030 0020     		movs	r0, #0
 125 0032 8DF80500 		strb	r0, [sp, #5]
 126 0036 8DF80600 		strb	r0, [sp, #6]
 127 003a 0199     		ldr	r1, [sp, #4]
 128 003c FFF7FEFF 		bl	controlLight
 129              	.LVL6:
  56:main.c        ****             UART_1_PutString("Red\r\n");
 130              		.loc 1 56 0
 131 0040 4248     		ldr	r0, .L19
 132 0042 FFF7FEFF 		bl	UART_1_PutString
 133              	.LVL7:
  57:main.c        ****         }
  58:main.c        ****         break;
 134              		.loc 1 58 0
 135 0046 7EE0     		b	.L6
 136              	.L15:
  59:main.c        ****         case 'w' :
  60:main.c        ****         {
  61:main.c        ****             controlLight(0,(color_t)GREEN);
 137              		.loc 1 61 0
 138 0048 0020     		movs	r0, #0
 139 004a 8DF80800 		strb	r0, [sp, #8]
 140 004e FF23     		movs	r3, #255
 141 0050 8DF80930 		strb	r3, [sp, #9]
 142 0054 8DF80A00 		strb	r0, [sp, #10]
 143 0058 0299     		ldr	r1, [sp, #8]
 144 005a FFF7FEFF 		bl	controlLight
 145              	.LVL8:
  62:main.c        ****             UART_1_PutString("Green\r\n");
 146              		.loc 1 62 0
 147 005e 3C48     		ldr	r0, .L19+4
 148 0060 FFF7FEFF 		bl	UART_1_PutString
 149              	.LVL9:
  63:main.c        ****         }
  64:main.c        ****         break;
 150              		.loc 1 64 0
 151 0064 6FE0     		b	.L6
 152              	.L12:
  65:main.c        ****         case 'e' :
  66:main.c        ****         {
  67:main.c        ****             controlLight(0,(color_t)BLUE);
 153              		.loc 1 67 0
 154 0066 0020     		movs	r0, #0
 155 0068 8DF80C00 		strb	r0, [sp, #12]
 156 006c 8DF80D00 		strb	r0, [sp, #13]
 157 0070 FF23     		movs	r3, #255
 158 0072 8DF80E30 		strb	r3, [sp, #14]
 159 0076 0399     		ldr	r1, [sp, #12]
 160 0078 FFF7FEFF 		bl	controlLight
 161              	.LVL10:
ARM GAS  C:\Users\MARCUS~1\AppData\Local\Temp\cc54CnPv.s 			page 5


  68:main.c        ****             UART_1_PutString("Blue\r\n");
 162              		.loc 1 68 0
 163 007c 3548     		ldr	r0, .L19+8
 164 007e FFF7FEFF 		bl	UART_1_PutString
 165              	.LVL11:
  69:main.c        ****         }
  70:main.c        ****         break;
 166              		.loc 1 70 0
 167 0082 60E0     		b	.L6
 168              	.L8:
  71:main.c        ****         case'a':
  72:main.c        ****         {
  73:main.c        ****             controlLight(1,(color_t)PURPLE);
 169              		.loc 1 73 0
 170 0084 344B     		ldr	r3, .L19+12
 171 0086 1A88     		ldrh	r2, [r3]	@ unaligned
 172 0088 9B78     		ldrb	r3, [r3, #2]	@ zero_extendqisi2
 173 008a ADF81020 		strh	r2, [sp, #16]	@ unaligned
 174 008e 8DF81230 		strb	r3, [sp, #18]
 175 0092 0499     		ldr	r1, [sp, #16]
 176 0094 0120     		movs	r0, #1
 177 0096 FFF7FEFF 		bl	controlLight
 178              	.LVL12:
  74:main.c        ****             UART_1_PutString("Purple\r\n");
 179              		.loc 1 74 0
 180 009a 3048     		ldr	r0, .L19+16
 181 009c FFF7FEFF 		bl	UART_1_PutString
 182              	.LVL13:
  75:main.c        ****         }
  76:main.c        ****         break;
 183              		.loc 1 76 0
 184 00a0 51E0     		b	.L6
 185              	.L14:
  77:main.c        ****         case's':
  78:main.c        ****         {
  79:main.c        ****             controlLight(1,(color_t)YELLOW);
 186              		.loc 1 79 0
 187 00a2 2D4B     		ldr	r3, .L19+12
 188 00a4 33F8042F 		ldrh	r2, [r3, #4]!	@ unaligned
 189 00a8 9B78     		ldrb	r3, [r3, #2]	@ zero_extendqisi2
 190 00aa ADF81420 		strh	r2, [sp, #20]	@ unaligned
 191 00ae 8DF81630 		strb	r3, [sp, #22]
 192 00b2 0599     		ldr	r1, [sp, #20]
 193 00b4 0120     		movs	r0, #1
 194 00b6 FFF7FEFF 		bl	controlLight
 195              	.LVL14:
  80:main.c        ****             UART_1_PutString("Yellowish\r\n");
 196              		.loc 1 80 0
 197 00ba 2948     		ldr	r0, .L19+20
 198 00bc FFF7FEFF 		bl	UART_1_PutString
 199              	.LVL15:
  81:main.c        ****         }
  82:main.c        ****         break;
 200              		.loc 1 82 0
 201 00c0 41E0     		b	.L6
 202              	.L11:
  83:main.c        ****         case'd':
ARM GAS  C:\Users\MARCUS~1\AppData\Local\Temp\cc54CnPv.s 			page 6


  84:main.c        ****         {
  85:main.c        ****             controlLight(1,(color_t)TURQUOISE);
 203              		.loc 1 85 0
 204 00c2 254B     		ldr	r3, .L19+12
 205 00c4 33F8082F 		ldrh	r2, [r3, #8]!	@ unaligned
 206 00c8 9B78     		ldrb	r3, [r3, #2]	@ zero_extendqisi2
 207 00ca ADF81820 		strh	r2, [sp, #24]	@ unaligned
 208 00ce 8DF81A30 		strb	r3, [sp, #26]
 209 00d2 0699     		ldr	r1, [sp, #24]
 210 00d4 0120     		movs	r0, #1
 211 00d6 FFF7FEFF 		bl	controlLight
 212              	.LVL16:
  86:main.c        ****             UART_1_PutString("Turqish\r\n");
 213              		.loc 1 86 0
 214 00da 2248     		ldr	r0, .L19+24
 215 00dc FFF7FEFF 		bl	UART_1_PutString
 216              	.LVL17:
  87:main.c        ****         }
  88:main.c        ****         break;
 217              		.loc 1 88 0
 218 00e0 31E0     		b	.L6
 219              	.L17:
  89:main.c        ****         case'z':
  90:main.c        ****         {
  91:main.c        ****             globalRed+=5;
 220              		.loc 1 91 0
 221 00e2 214B     		ldr	r3, .L19+28
 222 00e4 1A68     		ldr	r2, [r3]
 223 00e6 0532     		adds	r2, r2, #5
 224 00e8 1A60     		str	r2, [r3]
  92:main.c        ****             controlLight(6,(color_t){globalRed,globalGreen,globalBlue});
 225              		.loc 1 92 0
 226 00ea 8DF81C20 		strb	r2, [sp, #28]
 227 00ee 5A68     		ldr	r2, [r3, #4]
 228 00f0 8DF81D20 		strb	r2, [sp, #29]
 229 00f4 9B68     		ldr	r3, [r3, #8]
 230 00f6 8DF81E30 		strb	r3, [sp, #30]
 231 00fa 0799     		ldr	r1, [sp, #28]
 232 00fc 0620     		movs	r0, #6
 233 00fe FFF7FEFF 		bl	controlLight
 234              	.LVL18:
  93:main.c        ****         }
  94:main.c        ****         break;
 235              		.loc 1 94 0
 236 0102 20E0     		b	.L6
 237              	.L16:
  95:main.c        ****         case'x':
  96:main.c        ****         {
  97:main.c        ****             globalGreen+=5;
 238              		.loc 1 97 0
 239 0104 184B     		ldr	r3, .L19+28
 240 0106 5A68     		ldr	r2, [r3, #4]
 241 0108 0532     		adds	r2, r2, #5
 242 010a 5A60     		str	r2, [r3, #4]
  98:main.c        ****             controlLight(6,(color_t){globalRed,globalGreen,globalBlue});
 243              		.loc 1 98 0
 244 010c 1968     		ldr	r1, [r3]
ARM GAS  C:\Users\MARCUS~1\AppData\Local\Temp\cc54CnPv.s 			page 7


 245 010e 8DF82010 		strb	r1, [sp, #32]
 246 0112 8DF82120 		strb	r2, [sp, #33]
 247 0116 9B68     		ldr	r3, [r3, #8]
 248 0118 8DF82230 		strb	r3, [sp, #34]
 249 011c 0899     		ldr	r1, [sp, #32]
 250 011e 0620     		movs	r0, #6
 251 0120 FFF7FEFF 		bl	controlLight
 252              	.LVL19:
  99:main.c        ****         }
 100:main.c        ****         break;
 253              		.loc 1 100 0
 254 0124 0FE0     		b	.L6
 255              	.L10:
 101:main.c        ****         case'c':
 102:main.c        ****         {
 103:main.c        ****             globalBlue+=5;
 256              		.loc 1 103 0
 257 0126 104A     		ldr	r2, .L19+28
 258 0128 9368     		ldr	r3, [r2, #8]
 259 012a 0533     		adds	r3, r3, #5
 260 012c 9360     		str	r3, [r2, #8]
 104:main.c        ****             controlLight(6,(color_t){globalRed,globalGreen,globalBlue});
 261              		.loc 1 104 0
 262 012e 1168     		ldr	r1, [r2]
 263 0130 8DF82410 		strb	r1, [sp, #36]
 264 0134 5268     		ldr	r2, [r2, #4]
 265 0136 8DF82520 		strb	r2, [sp, #37]
 266 013a 8DF82630 		strb	r3, [sp, #38]
 267 013e 0999     		ldr	r1, [sp, #36]
 268 0140 0620     		movs	r0, #6
 269 0142 FFF7FEFF 		bl	controlLight
 270              	.LVL20:
 271              	.L6:
 105:main.c        ****         }
 106:main.c        ****         break;
 107:main.c        ****         default :
 108:main.c        ****         {
 109:main.c        ****             // nothing
 110:main.c        ****         }
 111:main.c        ****         break;
 112:main.c        ****     }
 113:main.c        **** }...
 272              		.loc 1 113 0
 273 0146 0BB0     		add	sp, sp, #44
 274              		.cfi_def_cfa_offset 4
 275              		@ sp needed
 276 0148 5DF804FB 		ldr	pc, [sp], #4
 277              	.L20:
 278              		.align	2
 279              	.L19:
 280 014c 14000000 		.word	.LC4
 281 0150 1C000000 		.word	.LC5
 282 0154 24000000 		.word	.LC6
 283 0158 00000000 		.word	.LANCHOR0
 284 015c 2C000000 		.word	.LC7
 285 0160 38000000 		.word	.LC8
 286 0164 44000000 		.word	.LC9
ARM GAS  C:\Users\MARCUS~1\AppData\Local\Temp\cc54CnPv.s 			page 8


 287 0168 00000000 		.word	.LANCHOR1
 288              		.cfi_endproc
 289              	.LFE65:
 290              		.size	handleByteReceived, .-handleByteReceived
 291              		.section	.text.ISR_UART_rx_handler,"ax",%progbits
 292              		.align	2
 293              		.global	ISR_UART_rx_handler
 294              		.thumb
 295              		.thumb_func
 296              		.type	ISR_UART_rx_handler, %function
 297              	ISR_UART_rx_handler:
 298              	.LFB64:
  35:main.c        **** {
 299              		.loc 1 35 0
 300              		.cfi_startproc
 301              		@ args = 0, pretend = 0, frame = 0
 302              		@ frame_needed = 0, uses_anonymous_args = 0
 303 0000 38B5     		push	{r3, r4, r5, lr}
 304              		.cfi_def_cfa_offset 16
 305              		.cfi_offset 3, -16
 306              		.cfi_offset 4, -12
 307              		.cfi_offset 5, -8
 308              		.cfi_offset 14, -4
  36:main.c        ****     uint8_t bytesToRead = UART_1_GetRxBufferSize();    
 309              		.loc 1 36 0
 310 0002 FFF7FEFF 		bl	UART_1_GetRxBufferSize
 311              	.LVL21:
 312 0006 0446     		mov	r4, r0
 313              	.LVL22:
  38:main.c        ****     while (bytesToRead > 0)
 314              		.loc 1 38 0
 315 0008 09E0     		b	.L22
 316              	.L23:
 317              	.LBB2:
  40:main.c        ****         uint8_t byteReceived = UART_1_ReadRxData();
 318              		.loc 1 40 0
 319 000a FFF7FEFF 		bl	UART_1_ReadRxData
 320              	.LVL23:
 321 000e 0546     		mov	r5, r0
 322              	.LVL24:
  41:main.c        ****         UART_1_WriteTxData(byteReceived); // echo back
 323              		.loc 1 41 0
 324 0010 FFF7FEFF 		bl	UART_1_WriteTxData
 325              	.LVL25:
  43:main.c        ****         handleByteReceived(byteReceived);
 326              		.loc 1 43 0
 327 0014 2846     		mov	r0, r5
 328 0016 FFF7FEFF 		bl	handleByteReceived
 329              	.LVL26:
  45:main.c        ****         bytesToRead--;
 330              		.loc 1 45 0
 331 001a 013C     		subs	r4, r4, #1
 332              	.LVL27:
 333 001c E4B2     		uxtb	r4, r4
 334              	.LVL28:
 335              	.L22:
 336              	.LBE2:
ARM GAS  C:\Users\MARCUS~1\AppData\Local\Temp\cc54CnPv.s 			page 9


  38:main.c        ****     while (bytesToRead > 0)
 337              		.loc 1 38 0
 338 001e 002C     		cmp	r4, #0
 339 0020 F3D1     		bne	.L23
  47:main.c        **** }
 340              		.loc 1 47 0
 341 0022 38BD     		pop	{r3, r4, r5, pc}
 342              		.cfi_endproc
 343              	.LFE64:
 344              		.size	ISR_UART_rx_handler, .-ISR_UART_rx_handler
 345              		.global	globalBlue
 346              		.global	globalGreen
 347              		.global	globalRed
 348              		.section	.rodata
 349              		.align	2
 350              		.set	.LANCHOR0,. + 0
 351              	.LC0:
 352 0000 FF       		.byte	-1
 353 0001 FF       		.byte	-1
 354 0002 00       		.byte	0
 355 0003 00       		.space	1
 356              	.LC1:
 357 0004 00       		.byte	0
 358 0005 FF       		.byte	-1
 359 0006 FF       		.byte	-1
 360 0007 00       		.space	1
 361              	.LC2:
 362 0008 FF       		.byte	-1
 363 0009 00       		.byte	0
 364 000a FF       		.byte	-1
 365              		.section	.rodata.str1.4,"aMS",%progbits,1
 366              		.align	2
 367              	.LC3:
 368 0000 50726F67 		.ascii	"Program started\015\012\000"
 368      72616D20 
 368      73746172 
 368      7465640D 
 368      0A00
 369 0012 0000     		.space	2
 370              	.LC4:
 371 0014 5265640D 		.ascii	"Red\015\012\000"
 371      0A00
 372 001a 0000     		.space	2
 373              	.LC5:
 374 001c 47726565 		.ascii	"Green\015\012\000"
 374      6E0D0A00 
 375              	.LC6:
 376 0024 426C7565 		.ascii	"Blue\015\012\000"
 376      0D0A00
 377 002b 00       		.space	1
 378              	.LC7:
 379 002c 50757270 		.ascii	"Purple\015\012\000"
 379      6C650D0A 
 379      00
 380 0035 000000   		.space	3
 381              	.LC8:
 382 0038 59656C6C 		.ascii	"Yellowish\015\012\000"
ARM GAS  C:\Users\MARCUS~1\AppData\Local\Temp\cc54CnPv.s 			page 10


 382      6F776973 
 382      680D0A00 
 383              	.LC9:
 384 0044 54757271 		.ascii	"Turqish\015\012\000"
 384      6973680D 
 384      0A00
 385              		.bss
 386              		.align	2
 387              		.set	.LANCHOR1,. + 0
 388              		.type	globalRed, %object
 389              		.size	globalRed, 4
 390              	globalRed:
 391 0000 00000000 		.space	4
 392              		.type	globalGreen, %object
 393              		.size	globalGreen, 4
 394              	globalGreen:
 395 0004 00000000 		.space	4
 396              		.type	globalBlue, %object
 397              		.size	globalBlue, 4
 398              	globalBlue:
 399 0008 00000000 		.space	4
 400              		.text
 401              	.Letext0:
 402              		.file 2 "f:\\marcus\\software\\psoc creator\\4.2\\psoc creator\\import\\gnu\\arm\\5.4.1\\arm-none-
 403              		.file 3 "f:\\marcus\\software\\psoc creator\\4.2\\psoc creator\\import\\gnu\\arm\\5.4.1\\arm-none-
 404              		.file 4 "rgb_led.h"
 405              		.file 5 "light_control.h"
 406              		.file 6 "Generated_Source\\PSoC5/core_cm3.h"
 407              		.file 7 "Generated_Source\\PSoC5/isr_uart_rx.h"
 408              		.file 8 "Generated_Source\\PSoC5/UART_1.h"