ARM GAS  C:\Users\MARCUS~1\AppData\Local\Temp\ccF55Nex.s 			page 1


   1              		.syntax unified
   2              		.cpu cortex-m3
   3              		.fpu softvfp
   4              		.eabi_attribute 20, 1
   5              		.eabi_attribute 21, 1
   6              		.eabi_attribute 23, 3
   7              		.eabi_attribute 24, 1
   8              		.eabi_attribute 25, 1
   9              		.eabi_attribute 26, 1
  10              		.eabi_attribute 30, 1
  11              		.eabi_attribute 34, 1
  12              		.eabi_attribute 18, 4
  13              		.thumb
  14              		.syntax unified
  15              		.file	"rgb_led.c"
  16              		.text
  17              	.Ltext0:
  18              		.cfi_sections	.debug_frame
  19              		.section	.text.initRGBLED,"ax",%progbits
  20              		.align	2
  21              		.global	initRGBLED
  22              		.thumb
  23              		.thumb_func
  24              		.type	initRGBLED, %function
  25              	initRGBLED:
  26              	.LFB63:
  27              		.file 1 "rgb_led.c"
   1:rgb_led.c     ****               /* ========================================
   2:rgb_led.c     ****  *
   3:rgb_led.c     ****  * Copyright YOUR COMPANY, THE YEAR
   4:rgb_led.c     ****  * All Rights Reserved
   5:rgb_led.c     ****  * UNPUBLISHED, LICENSED SOFTWARE.
   6:rgb_led.c     ****  *
   7:rgb_led.c     ****  * CONFIDENTIAL AND PROPRIETARY INFORMATION
   8:rgb_led.c     ****  * WHICH IS THE PROPERTY OF your company.
   9:rgb_led.c     ****  *
  10:rgb_led.c     ****  * ========================================
  11:rgb_led.c     **** */
  12:rgb_led.c     **** #include "rgb_led.h"
  13:rgb_led.c     **** 
  14:rgb_led.c     **** void initRGBLED()
  15:rgb_led.c     **** {
  28              		.loc 1 15 0
  29              		.cfi_startproc
  30              		@ args = 0, pretend = 0, frame = 0
  31              		@ frame_needed = 0, uses_anonymous_args = 0
  32 0000 08B5     		push	{r3, lr}
  33              		.cfi_def_cfa_offset 8
  34              		.cfi_offset 3, -8
  35              		.cfi_offset 14, -4
  16:rgb_led.c     ****     //Init colors and brightness pwm
  17:rgb_led.c     ****     PWM_RED_Start();
  36              		.loc 1 17 0
  37 0002 FFF7FEFF 		bl	PWM_RED_Start
  38              	.LVL0:
  18:rgb_led.c     ****     PWM_GREEN_Start();
  39              		.loc 1 18 0
ARM GAS  C:\Users\MARCUS~1\AppData\Local\Temp\ccF55Nex.s 			page 2


  40 0006 FFF7FEFF 		bl	PWM_GREEN_Start
  41              	.LVL1:
  19:rgb_led.c     ****     PWM_BLUE_Start();
  42              		.loc 1 19 0
  43 000a FFF7FEFF 		bl	PWM_BLUE_Start
  44              	.LVL2:
  45 000e 08BD     		pop	{r3, pc}
  46              		.cfi_endproc
  47              	.LFE63:
  48              		.size	initRGBLED, .-initRGBLED
  49              		.section	.text.setRed,"ax",%progbits
  50              		.align	2
  51              		.global	setRed
  52              		.thumb
  53              		.thumb_func
  54              		.type	setRed, %function
  55              	setRed:
  56              	.LFB65:
  20:rgb_led.c     **** }
  21:rgb_led.c     **** 
  22:rgb_led.c     **** 
  23:rgb_led.c     **** void setColor(color_t color)
  24:rgb_led.c     **** {
  25:rgb_led.c     ****     setRed(color.red);
  26:rgb_led.c     ****     setGreen(color.green);
  27:rgb_led.c     ****     setBlue(color.blue);
  28:rgb_led.c     **** }
  29:rgb_led.c     **** 
  30:rgb_led.c     **** void setRed(uint8_t R)
  31:rgb_led.c     **** {
  57              		.loc 1 31 0
  58              		.cfi_startproc
  59              		@ args = 0, pretend = 0, frame = 0
  60              		@ frame_needed = 0, uses_anonymous_args = 0
  61              	.LVL3:
  62 0000 08B5     		push	{r3, lr}
  63              		.cfi_def_cfa_offset 8
  64              		.cfi_offset 3, -8
  65              		.cfi_offset 14, -4
  66              	.LVL4:
  32:rgb_led.c     ****     uint8_t red = R>=0 && R<=255 ? R : getRed(); //Bound Check
  33:rgb_led.c     ****     PWM_RED_WriteCompare(red);
  67              		.loc 1 33 0
  68 0002 FFF7FEFF 		bl	PWM_RED_WriteCompare
  69              	.LVL5:
  70 0006 08BD     		pop	{r3, pc}
  71              		.cfi_endproc
  72              	.LFE65:
  73              		.size	setRed, .-setRed
  74              		.section	.text.setGreen,"ax",%progbits
  75              		.align	2
  76              		.global	setGreen
  77              		.thumb
  78              		.thumb_func
  79              		.type	setGreen, %function
  80              	setGreen:
  81              	.LFB66:
ARM GAS  C:\Users\MARCUS~1\AppData\Local\Temp\ccF55Nex.s 			page 3


  34:rgb_led.c     **** }
  35:rgb_led.c     **** 
  36:rgb_led.c     **** void setGreen(uint8_t G)
  37:rgb_led.c     **** {
  82              		.loc 1 37 0
  83              		.cfi_startproc
  84              		@ args = 0, pretend = 0, frame = 0
  85              		@ frame_needed = 0, uses_anonymous_args = 0
  86              	.LVL6:
  87 0000 08B5     		push	{r3, lr}
  88              		.cfi_def_cfa_offset 8
  89              		.cfi_offset 3, -8
  90              		.cfi_offset 14, -4
  91              	.LVL7:
  38:rgb_led.c     ****     uint8_t green = G>=0 && G<=255 ? G : getGreen(); //Bound Check
  39:rgb_led.c     ****     PWM_GREEN_WriteCompare(green);
  92              		.loc 1 39 0
  93 0002 FFF7FEFF 		bl	PWM_GREEN_WriteCompare
  94              	.LVL8:
  95 0006 08BD     		pop	{r3, pc}
  96              		.cfi_endproc
  97              	.LFE66:
  98              		.size	setGreen, .-setGreen
  99              		.section	.text.setBlue,"ax",%progbits
 100              		.align	2
 101              		.global	setBlue
 102              		.thumb
 103              		.thumb_func
 104              		.type	setBlue, %function
 105              	setBlue:
 106              	.LFB67:
  40:rgb_led.c     **** }
  41:rgb_led.c     **** 
  42:rgb_led.c     **** void setBlue(uint8_t B)
  43:rgb_led.c     **** {
 107              		.loc 1 43 0
 108              		.cfi_startproc
 109              		@ args = 0, pretend = 0, frame = 0
 110              		@ frame_needed = 0, uses_anonymous_args = 0
 111              	.LVL9:
 112 0000 08B5     		push	{r3, lr}
 113              		.cfi_def_cfa_offset 8
 114              		.cfi_offset 3, -8
 115              		.cfi_offset 14, -4
 116              	.LVL10:
  44:rgb_led.c     ****     uint8_t blue = B>=0 && B<=255 ? B : getBlue(); //Bound Check
  45:rgb_led.c     ****     PWM_BLUE_WriteCompare(blue);
 117              		.loc 1 45 0
 118 0002 FFF7FEFF 		bl	PWM_BLUE_WriteCompare
 119              	.LVL11:
 120 0006 08BD     		pop	{r3, pc}
 121              		.cfi_endproc
 122              	.LFE67:
 123              		.size	setBlue, .-setBlue
 124              		.section	.text.setColor,"ax",%progbits
 125              		.align	2
 126              		.global	setColor
ARM GAS  C:\Users\MARCUS~1\AppData\Local\Temp\ccF55Nex.s 			page 4


 127              		.thumb
 128              		.thumb_func
 129              		.type	setColor, %function
 130              	setColor:
 131              	.LFB64:
  24:rgb_led.c     ****     setRed(color.red);
 132              		.loc 1 24 0
 133              		.cfi_startproc
 134              		@ args = 0, pretend = 0, frame = 8
 135              		@ frame_needed = 0, uses_anonymous_args = 0
 136 0000 00B5     		push	{lr}
 137              		.cfi_def_cfa_offset 4
 138              		.cfi_offset 14, -4
 139 0002 83B0     		sub	sp, sp, #12
 140              		.cfi_def_cfa_offset 16
 141 0004 0190     		str	r0, [sp, #4]
  25:rgb_led.c     ****     setGreen(color.green);
 142              		.loc 1 25 0
 143 0006 C0B2     		uxtb	r0, r0
 144 0008 FFF7FEFF 		bl	setRed
 145              	.LVL12:
  26:rgb_led.c     ****     setBlue(color.blue);
 146              		.loc 1 26 0
 147 000c 9DF80500 		ldrb	r0, [sp, #5]	@ zero_extendqisi2
 148 0010 FFF7FEFF 		bl	setGreen
 149              	.LVL13:
  27:rgb_led.c     **** }
 150              		.loc 1 27 0
 151 0014 9DF80600 		ldrb	r0, [sp, #6]	@ zero_extendqisi2
 152 0018 FFF7FEFF 		bl	setBlue
 153              	.LVL14:
  28:rgb_led.c     **** 
 154              		.loc 1 28 0
 155 001c 03B0     		add	sp, sp, #12
 156              		.cfi_def_cfa_offset 4
 157              		@ sp needed
 158 001e 5DF804FB 		ldr	pc, [sp], #4
 159              		.cfi_endproc
 160              	.LFE64:
 161              		.size	setColor, .-setColor
 162 0022 00BF     		.section	.text.getRed,"ax",%progbits
 163              		.align	2
 164              		.global	getRed
 165              		.thumb
 166              		.thumb_func
 167              		.type	getRed, %function
 168              	getRed:
 169              	.LFB68:
  46:rgb_led.c     **** }
  47:rgb_led.c     **** 
  48:rgb_led.c     **** uint8_t getRed(void)
  49:rgb_led.c     **** {
 170              		.loc 1 49 0
 171              		.cfi_startproc
 172              		@ args = 0, pretend = 0, frame = 0
 173              		@ frame_needed = 0, uses_anonymous_args = 0
 174 0000 08B5     		push	{r3, lr}
ARM GAS  C:\Users\MARCUS~1\AppData\Local\Temp\ccF55Nex.s 			page 5


 175              		.cfi_def_cfa_offset 8
 176              		.cfi_offset 3, -8
 177              		.cfi_offset 14, -4
  50:rgb_led.c     ****     return PWM_RED_ReadCompare();
 178              		.loc 1 50 0
 179 0002 FFF7FEFF 		bl	PWM_RED_ReadCompare
 180              	.LVL15:
  51:rgb_led.c     **** }
 181              		.loc 1 51 0
 182 0006 08BD     		pop	{r3, pc}
 183              		.cfi_endproc
 184              	.LFE68:
 185              		.size	getRed, .-getRed
 186              		.section	.text.getGreen,"ax",%progbits
 187              		.align	2
 188              		.global	getGreen
 189              		.thumb
 190              		.thumb_func
 191              		.type	getGreen, %function
 192              	getGreen:
 193              	.LFB69:
  52:rgb_led.c     **** 
  53:rgb_led.c     **** uint8_t getGreen(void)
  54:rgb_led.c     **** {
 194              		.loc 1 54 0
 195              		.cfi_startproc
 196              		@ args = 0, pretend = 0, frame = 0
 197              		@ frame_needed = 0, uses_anonymous_args = 0
 198 0000 08B5     		push	{r3, lr}
 199              		.cfi_def_cfa_offset 8
 200              		.cfi_offset 3, -8
 201              		.cfi_offset 14, -4
  55:rgb_led.c     ****     return PWM_GREEN_ReadCompare();
 202              		.loc 1 55 0
 203 0002 FFF7FEFF 		bl	PWM_GREEN_ReadCompare
 204              	.LVL16:
  56:rgb_led.c     **** }
 205              		.loc 1 56 0
 206 0006 08BD     		pop	{r3, pc}
 207              		.cfi_endproc
 208              	.LFE69:
 209              		.size	getGreen, .-getGreen
 210              		.section	.text.getBlue,"ax",%progbits
 211              		.align	2
 212              		.global	getBlue
 213              		.thumb
 214              		.thumb_func
 215              		.type	getBlue, %function
 216              	getBlue:
 217              	.LFB70:
  57:rgb_led.c     **** uint8_t getBlue(void)
  58:rgb_led.c     **** {
 218              		.loc 1 58 0
 219              		.cfi_startproc
 220              		@ args = 0, pretend = 0, frame = 0
 221              		@ frame_needed = 0, uses_anonymous_args = 0
 222 0000 08B5     		push	{r3, lr}
ARM GAS  C:\Users\MARCUS~1\AppData\Local\Temp\ccF55Nex.s 			page 6


 223              		.cfi_def_cfa_offset 8
 224              		.cfi_offset 3, -8
 225              		.cfi_offset 14, -4
  59:rgb_led.c     ****     return PWM_BLUE_ReadCompare();
 226              		.loc 1 59 0
 227 0002 FFF7FEFF 		bl	PWM_BLUE_ReadCompare
 228              	.LVL17:
  60:rgb_led.c     **** }
 229              		.loc 1 60 0
 230 0006 08BD     		pop	{r3, pc}
 231              		.cfi_endproc
 232              	.LFE70:
 233              		.size	getBlue, .-getBlue
 234              		.text
 235              	.Letext0:
 236              		.file 2 "f:\\marcus\\software\\psoc creator\\4.2\\psoc creator\\import\\gnu\\arm\\5.4.1\\arm-none-
 237              		.file 3 "f:\\marcus\\software\\psoc creator\\4.2\\psoc creator\\import\\gnu\\arm\\5.4.1\\arm-none-
 238              		.file 4 "rgb_led.h"
 239              		.file 5 "Generated_Source\\PSoC5/PWM_RED.h"
 240              		.file 6 "Generated_Source\\PSoC5/PWM_GREEN.h"
 241              		.file 7 "Generated_Source\\PSoC5/PWM_BLUE.h"
 242              		.file 8 "Generated_Source\\PSoC5/core_cm3.h"