ARM GAS  C:\Users\nikol\AppData\Local\Temp\ccY02Dqq.s 			page 1


   1              		.syntax unified
   2              		.cpu cortex-m3
   3              		.fpu softvfp
   4              		.eabi_attribute 20, 1
   5              		.eabi_attribute 21, 1
   6              		.eabi_attribute 23, 3
   7              		.eabi_attribute 24, 1
   8              		.eabi_attribute 25, 1
   9              		.eabi_attribute 26, 1
  10              		.eabi_attribute 30, 1
  11              		.eabi_attribute 34, 1
  12              		.eabi_attribute 18, 4
  13              		.thumb
  14              		.syntax unified
  15              		.file	"CupSensor_1_CupSensorUnit.c"
  16              		.text
  17              	.Ltext0:
  18              		.cfi_sections	.debug_frame
  19              		.section	.text.CupSensorUnit_init,"ax",%progbits
  20              		.align	2
  21              		.global	CupSensorUnit_init
  22              		.thumb
  23              		.thumb_func
  24              		.type	CupSensorUnit_init, %function
  25              	CupSensorUnit_init:
  26              	.LFB64:
  27              		.file 1 "Generated_Source\\PSoC5\\CupSensor_1_CupSensorUnit.c"
   1:Generated_Source\PSoC5/CupSensor_1_CupSensorUnit.c **** /* ========================================
   2:Generated_Source\PSoC5/CupSensor_1_CupSensorUnit.c ****  *
   3:Generated_Source\PSoC5/CupSensor_1_CupSensorUnit.c ****  * Copyright YOUR COMPANY, THE YEAR
   4:Generated_Source\PSoC5/CupSensor_1_CupSensorUnit.c ****  * All Rights Reserved
   5:Generated_Source\PSoC5/CupSensor_1_CupSensorUnit.c ****  * UNPUBLISHED, LICENSED SOFTWARE.
   6:Generated_Source\PSoC5/CupSensor_1_CupSensorUnit.c ****  *
   7:Generated_Source\PSoC5/CupSensor_1_CupSensorUnit.c ****  * CONFIDENTIAL AND PROPRIETARY INFORMATION
   8:Generated_Source\PSoC5/CupSensor_1_CupSensorUnit.c ****  * WHICH IS THE PROPERTY OF your company.
   9:Generated_Source\PSoC5/CupSensor_1_CupSensorUnit.c ****  *
  10:Generated_Source\PSoC5/CupSensor_1_CupSensorUnit.c ****  * ========================================
  11:Generated_Source\PSoC5/CupSensor_1_CupSensorUnit.c **** */
  12:Generated_Source\PSoC5/CupSensor_1_CupSensorUnit.c **** 
  13:Generated_Source\PSoC5/CupSensor_1_CupSensorUnit.c **** #include <project.h>
  14:Generated_Source\PSoC5/CupSensor_1_CupSensorUnit.c **** 
  15:Generated_Source\PSoC5/CupSensor_1_CupSensorUnit.c **** void CupSensorUnit_init(struct CupSensorUnit* sensorUnit, uint16_t bufferSize, uint16_t averageSize
  16:Generated_Source\PSoC5/CupSensor_1_CupSensorUnit.c **** {
  28              		.loc 1 16 0
  29              		.cfi_startproc
  30              		@ args = 0, pretend = 0, frame = 0
  31              		@ frame_needed = 0, uses_anonymous_args = 0
  32              	.LVL0:
  33 0000 38B5     		push	{r3, r4, r5, lr}
  34              		.cfi_def_cfa_offset 16
  35              		.cfi_offset 3, -16
  36              		.cfi_offset 4, -12
  37              		.cfi_offset 5, -8
  38              		.cfi_offset 14, -4
  39 0002 0446     		mov	r4, r0
  40 0004 0D46     		mov	r5, r1
  17:Generated_Source\PSoC5/CupSensor_1_CupSensorUnit.c ****     CircularBuffer_init(&(sensorUnit->averageBuffer), averageSize);
ARM GAS  C:\Users\nikol\AppData\Local\Temp\ccY02Dqq.s 			page 2


  41              		.loc 1 17 0
  42 0006 1146     		mov	r1, r2
  43              	.LVL1:
  44 0008 00F22440 		addw	r0, r0, #1060
  45              	.LVL2:
  46 000c FFF7FEFF 		bl	CircularBuffer_init
  47              	.LVL3:
  18:Generated_Source\PSoC5/CupSensor_1_CupSensorUnit.c ****     CircularBuffer_init(&(sensorUnit->buffer), bufferSize);
  48              		.loc 1 18 0
  49 0010 2946     		mov	r1, r5
  50 0012 04F11000 		add	r0, r4, #16
  51 0016 FFF7FEFF 		bl	CircularBuffer_init
  52              	.LVL4:
  19:Generated_Source\PSoC5/CupSensor_1_CupSensorUnit.c ****     sensorUnit->state = NOT_PLACED;
  53              		.loc 1 19 0
  54 001a 0023     		movs	r3, #0
  55 001c 2370     		strb	r3, [r4]
  20:Generated_Source\PSoC5/CupSensor_1_CupSensorUnit.c ****     
  21:Generated_Source\PSoC5/CupSensor_1_CupSensorUnit.c ****     sensorUnit->baseline = -1;
  56              		.loc 1 21 0
  57 001e 4FF6FF73 		movw	r3, #65535
  58 0022 6380     		strh	r3, [r4, #2]	@ movhi
  22:Generated_Source\PSoC5/CupSensor_1_CupSensorUnit.c ****     sensorUnit->placed_baseline = -1;
  59              		.loc 1 22 0
  60 0024 A380     		strh	r3, [r4, #4]	@ movhi
  61 0026 38BD     		pop	{r3, r4, r5, pc}
  62              		.cfi_endproc
  63              	.LFE64:
  64              		.size	CupSensorUnit_init, .-CupSensorUnit_init
  65              		.global	__aeabi_fcmpge
  66              		.global	__aeabi_f2iz
  67              		.global	__aeabi_fcmpeq
  68              		.global	__aeabi_i2f
  69              		.global	__aeabi_fsub
  70              		.section	.text.CupSensorUnit_calculateBaselines,"ax",%progbits
  71              		.align	2
  72              		.global	CupSensorUnit_calculateBaselines
  73              		.thumb
  74              		.thumb_func
  75              		.type	CupSensorUnit_calculateBaselines, %function
  76              	CupSensorUnit_calculateBaselines:
  77              	.LFB65:
  23:Generated_Source\PSoC5/CupSensor_1_CupSensorUnit.c **** 
  24:Generated_Source\PSoC5/CupSensor_1_CupSensorUnit.c **** }
  25:Generated_Source\PSoC5/CupSensor_1_CupSensorUnit.c **** 
  26:Generated_Source\PSoC5/CupSensor_1_CupSensorUnit.c **** void CupSensorUnit_calculateBaselines(struct CupSensorUnit* sensorUnit)
  27:Generated_Source\PSoC5/CupSensor_1_CupSensorUnit.c **** {
  78              		.loc 1 27 0
  79              		.cfi_startproc
  80              		@ args = 0, pretend = 0, frame = 0
  81              		@ frame_needed = 0, uses_anonymous_args = 0
  82              	.LVL5:
  83 0000 38B5     		push	{r3, r4, r5, lr}
  84              		.cfi_def_cfa_offset 16
  85              		.cfi_offset 3, -16
  86              		.cfi_offset 4, -12
  87              		.cfi_offset 5, -8
ARM GAS  C:\Users\nikol\AppData\Local\Temp\ccY02Dqq.s 			page 3


  88              		.cfi_offset 14, -4
  89 0002 0446     		mov	r4, r0
  28:Generated_Source\PSoC5/CupSensor_1_CupSensorUnit.c ****     switch (sensorUnit->state)
  90              		.loc 1 28 0
  91 0004 0378     		ldrb	r3, [r0]	@ zero_extendqisi2
  92 0006 13B1     		cbz	r3, .L5
  93 0008 022B     		cmp	r3, #2
  94 000a 12D0     		beq	.L6
  95 000c 38BD     		pop	{r3, r4, r5, pc}
  96              	.L5:
  29:Generated_Source\PSoC5/CupSensor_1_CupSensorUnit.c ****     {
  30:Generated_Source\PSoC5/CupSensor_1_CupSensorUnit.c ****         case NOT_PLACED:
  31:Generated_Source\PSoC5/CupSensor_1_CupSensorUnit.c ****         {
  32:Generated_Source\PSoC5/CupSensor_1_CupSensorUnit.c ****             if (sensorUnit->averageBuffer.reset == 0)
  97              		.loc 1 32 0
  98 000e 90F92E38 		ldrsb	r3, [r0, #2094]
  99 0012 53B9     		cbnz	r3, .L7
  33:Generated_Source\PSoC5/CupSensor_1_CupSensorUnit.c ****             {
  34:Generated_Source\PSoC5/CupSensor_1_CupSensorUnit.c ****                 if(sensorUnit->averageBuffer.average >= 0)
 100              		.loc 1 34 0
 101 0014 D0F82858 		ldr	r5, [r0, #2088]	@ float
 102 0018 0021     		movs	r1, #0
 103 001a 2846     		mov	r0, r5
 104              	.LVL6:
 105 001c FFF7FEFF 		bl	__aeabi_fcmpge
 106              	.LVL7:
 107 0020 18B1     		cbz	r0, .L7
  35:Generated_Source\PSoC5/CupSensor_1_CupSensorUnit.c ****                 {
  36:Generated_Source\PSoC5/CupSensor_1_CupSensorUnit.c ****                     sensorUnit->baseline = sensorUnit->averageBuffer.average;
 108              		.loc 1 36 0
 109 0022 2846     		mov	r0, r5
 110 0024 FFF7FEFF 		bl	__aeabi_f2iz
 111              	.LVL8:
 112 0028 6080     		strh	r0, [r4, #2]	@ movhi
 113              	.L7:
  37:Generated_Source\PSoC5/CupSensor_1_CupSensorUnit.c ****                 }
  38:Generated_Source\PSoC5/CupSensor_1_CupSensorUnit.c ****             }
  39:Generated_Source\PSoC5/CupSensor_1_CupSensorUnit.c ****             sensorUnit->placed_baseline = -1;
 114              		.loc 1 39 0
 115 002a 4FF6FF73 		movw	r3, #65535
 116 002e A380     		strh	r3, [r4, #4]	@ movhi
  40:Generated_Source\PSoC5/CupSensor_1_CupSensorUnit.c ****         }    
  41:Generated_Source\PSoC5/CupSensor_1_CupSensorUnit.c ****         break;
 117              		.loc 1 41 0
 118 0030 38BD     		pop	{r3, r4, r5, pc}
 119              	.LVL9:
 120              	.L6:
  42:Generated_Source\PSoC5/CupSensor_1_CupSensorUnit.c ****         
  43:Generated_Source\PSoC5/CupSensor_1_CupSensorUnit.c ****         case PLACED:
  44:Generated_Source\PSoC5/CupSensor_1_CupSensorUnit.c ****         {
  45:Generated_Source\PSoC5/CupSensor_1_CupSensorUnit.c ****             if (sensorUnit->averageBuffer.reset == 0 || sensorUnit->averageBuffer.index > 70)
 121              		.loc 1 45 0
 122 0032 90F92E38 		ldrsb	r3, [r0, #2094]
 123 0036 1BB1     		cbz	r3, .L9
 124              		.loc 1 45 0 is_stmt 0 discriminator 1
 125 0038 B0F82438 		ldrh	r3, [r0, #2084]
 126 003c 462B     		cmp	r3, #70
ARM GAS  C:\Users\nikol\AppData\Local\Temp\ccY02Dqq.s 			page 4


 127 003e 12D9     		bls	.L10
 128              	.L9:
  46:Generated_Source\PSoC5/CupSensor_1_CupSensorUnit.c ****             {
  47:Generated_Source\PSoC5/CupSensor_1_CupSensorUnit.c ****                 if(sensorUnit->averageBuffer.average)
 129              		.loc 1 47 0 is_stmt 1
 130 0040 D4F82858 		ldr	r5, [r4, #2088]	@ float
 131 0044 0021     		movs	r1, #0
 132 0046 2846     		mov	r0, r5
 133              	.LVL10:
 134 0048 FFF7FEFF 		bl	__aeabi_fcmpeq
 135              	.LVL11:
 136 004c 70B9     		cbnz	r0, .L3
  48:Generated_Source\PSoC5/CupSensor_1_CupSensorUnit.c ****                 {
  49:Generated_Source\PSoC5/CupSensor_1_CupSensorUnit.c ****                     sensorUnit->placed_baseline = sensorUnit->averageBuffer.average - sensorUnit->b
 137              		.loc 1 49 0
 138 004e B4F90200 		ldrsh	r0, [r4, #2]
 139 0052 FFF7FEFF 		bl	__aeabi_i2f
 140              	.LVL12:
 141 0056 0146     		mov	r1, r0
 142 0058 2846     		mov	r0, r5
 143 005a FFF7FEFF 		bl	__aeabi_fsub
 144              	.LVL13:
 145 005e FFF7FEFF 		bl	__aeabi_f2iz
 146              	.LVL14:
 147 0062 A080     		strh	r0, [r4, #4]	@ movhi
 148 0064 38BD     		pop	{r3, r4, r5, pc}
 149              	.LVL15:
 150              	.L10:
  50:Generated_Source\PSoC5/CupSensor_1_CupSensorUnit.c ****                 }
  51:Generated_Source\PSoC5/CupSensor_1_CupSensorUnit.c ****             }
  52:Generated_Source\PSoC5/CupSensor_1_CupSensorUnit.c ****             else
  53:Generated_Source\PSoC5/CupSensor_1_CupSensorUnit.c ****             {
  54:Generated_Source\PSoC5/CupSensor_1_CupSensorUnit.c ****                 sensorUnit->placed_baseline = -1;
 151              		.loc 1 54 0
 152 0066 4FF6FF73 		movw	r3, #65535
 153 006a 8380     		strh	r3, [r0, #4]	@ movhi
 154              	.LVL16:
 155              	.L3:
 156 006c 38BD     		pop	{r3, r4, r5, pc}
 157              		.cfi_endproc
 158              	.LFE65:
 159              		.size	CupSensorUnit_calculateBaselines, .-CupSensorUnit_calculateBaselines
 160              		.global	__aeabi_fmul
 161              		.global	__aeabi_fcmpgt
 162 006e 00BF     		.section	.text.CupSensorUnit_updateState,"ax",%progbits
 163              		.align	2
 164              		.global	CupSensorUnit_updateState
 165              		.thumb
 166              		.thumb_func
 167              		.type	CupSensorUnit_updateState, %function
 168              	CupSensorUnit_updateState:
 169              	.LFB66:
  55:Generated_Source\PSoC5/CupSensor_1_CupSensorUnit.c ****             }
  56:Generated_Source\PSoC5/CupSensor_1_CupSensorUnit.c ****         }
  57:Generated_Source\PSoC5/CupSensor_1_CupSensorUnit.c ****         break;
  58:Generated_Source\PSoC5/CupSensor_1_CupSensorUnit.c ****         default:
  59:Generated_Source\PSoC5/CupSensor_1_CupSensorUnit.c ****         break;
ARM GAS  C:\Users\nikol\AppData\Local\Temp\ccY02Dqq.s 			page 5


  60:Generated_Source\PSoC5/CupSensor_1_CupSensorUnit.c ****     }
  61:Generated_Source\PSoC5/CupSensor_1_CupSensorUnit.c **** }
  62:Generated_Source\PSoC5/CupSensor_1_CupSensorUnit.c **** 
  63:Generated_Source\PSoC5/CupSensor_1_CupSensorUnit.c **** 
  64:Generated_Source\PSoC5/CupSensor_1_CupSensorUnit.c **** uint8_t CupSensorUnit_updateState(struct CupSensorUnit* sensorUnit)
  65:Generated_Source\PSoC5/CupSensor_1_CupSensorUnit.c **** {
 170              		.loc 1 65 0
 171              		.cfi_startproc
 172              		@ args = 0, pretend = 0, frame = 8
 173              		@ frame_needed = 0, uses_anonymous_args = 0
 174              	.LVL17:
 175 0000 2DE9F043 		push	{r4, r5, r6, r7, r8, r9, lr}
 176              		.cfi_def_cfa_offset 28
 177              		.cfi_offset 4, -28
 178              		.cfi_offset 5, -24
 179              		.cfi_offset 6, -20
 180              		.cfi_offset 7, -16
 181              		.cfi_offset 8, -12
 182              		.cfi_offset 9, -8
 183              		.cfi_offset 14, -4
 184 0004 83B0     		sub	sp, sp, #12
 185              		.cfi_def_cfa_offset 40
 186 0006 0446     		mov	r4, r0
  66:Generated_Source\PSoC5/CupSensor_1_CupSensorUnit.c ****     CUP_STATE oldState = sensorUnit->state;
 187              		.loc 1 66 0
 188 0008 0578     		ldrb	r5, [r0]	@ zero_extendqisi2
 189              	.LVL18:
  67:Generated_Source\PSoC5/CupSensor_1_CupSensorUnit.c ****     uint8_t lastReading;
  68:Generated_Source\PSoC5/CupSensor_1_CupSensorUnit.c ****     int8_t error = CircularBuffer_getLastReading(&(sensorUnit->averageBuffer), &lastReading);
 190              		.loc 1 68 0
 191 000a 00F22446 		addw	r6, r0, #1060
 192 000e 0DF10701 		add	r1, sp, #7
 193 0012 3046     		mov	r0, r6
 194              	.LVL19:
 195 0014 FFF7FEFF 		bl	CircularBuffer_getLastReading
 196              	.LVL20:
  69:Generated_Source\PSoC5/CupSensor_1_CupSensorUnit.c ****     if(error == 0){
 197              		.loc 1 69 0
 198 0018 0028     		cmp	r0, #0
 199 001a 61D1     		bne	.L16
  70:Generated_Source\PSoC5/CupSensor_1_CupSensorUnit.c ****         if ((sensorUnit->baseline > 0))
 200              		.loc 1 70 0
 201 001c B4F90230 		ldrsh	r3, [r4, #2]
 202 0020 002B     		cmp	r3, #0
 203 0022 5DDD     		ble	.L16
  71:Generated_Source\PSoC5/CupSensor_1_CupSensorUnit.c ****         {
  72:Generated_Source\PSoC5/CupSensor_1_CupSensorUnit.c ****             switch (sensorUnit->state)
 204              		.loc 1 72 0
 205 0024 2278     		ldrb	r2, [r4]	@ zero_extendqisi2
 206 0026 042A     		cmp	r2, #4
 207 0028 5AD8     		bhi	.L16
 208 002a DFE802F0 		tbb	[pc, r2]
 209              	.L18:
 210 002e 03       		.byte	(.L17-.L18)/2
 211 002f 0F       		.byte	(.L19-.L18)/2
 212 0030 24       		.byte	(.L20-.L18)/2
 213 0031 59       		.byte	(.L16-.L18)/2
ARM GAS  C:\Users\nikol\AppData\Local\Temp\ccY02Dqq.s 			page 6


 214 0032 4E       		.byte	(.L21-.L18)/2
 215 0033 00       		.p2align 1
 216              	.L17:
  73:Generated_Source\PSoC5/CupSensor_1_CupSensorUnit.c ****             {
  74:Generated_Source\PSoC5/CupSensor_1_CupSensorUnit.c ****                 case NOT_PLACED:
  75:Generated_Source\PSoC5/CupSensor_1_CupSensorUnit.c ****                 {
  76:Generated_Source\PSoC5/CupSensor_1_CupSensorUnit.c ****                     if((lastReading - sensorUnit->baseline) > sensorUnit->placed_trigger)
 217              		.loc 1 76 0
 218 0034 9DF80700 		ldrb	r0, [sp, #7]	@ zero_extendqisi2
 219              	.LVL21:
 220 0038 C31A     		subs	r3, r0, r3
 221 003a A279     		ldrb	r2, [r4, #6]	@ zero_extendqisi2
 222 003c 9342     		cmp	r3, r2
 223 003e 4FDD     		ble	.L16
  77:Generated_Source\PSoC5/CupSensor_1_CupSensorUnit.c ****                     {
  78:Generated_Source\PSoC5/CupSensor_1_CupSensorUnit.c ****                         sensorUnit->state = VALIDATING_PLACED;
 224              		.loc 1 78 0
 225 0040 0123     		movs	r3, #1
 226 0042 2370     		strb	r3, [r4]
  79:Generated_Source\PSoC5/CupSensor_1_CupSensorUnit.c ****                         CircularBuffer_resetBuffer(&(sensorUnit->averageBuffer));
 227              		.loc 1 79 0
 228 0044 3046     		mov	r0, r6
 229 0046 FFF7FEFF 		bl	CircularBuffer_resetBuffer
 230              	.LVL22:
 231 004a 49E0     		b	.L16
 232              	.LVL23:
 233              	.L19:
  80:Generated_Source\PSoC5/CupSensor_1_CupSensorUnit.c ****                     }
  81:Generated_Source\PSoC5/CupSensor_1_CupSensorUnit.c ****                 }
  82:Generated_Source\PSoC5/CupSensor_1_CupSensorUnit.c ****                 break;
  83:Generated_Source\PSoC5/CupSensor_1_CupSensorUnit.c ****                 case VALIDATING_PLACED:
  84:Generated_Source\PSoC5/CupSensor_1_CupSensorUnit.c ****                 {
  85:Generated_Source\PSoC5/CupSensor_1_CupSensorUnit.c ****                     if((lastReading - sensorUnit->baseline) < sensorUnit->removed_trigger)
 234              		.loc 1 85 0
 235 004c 9DF80700 		ldrb	r0, [sp, #7]	@ zero_extendqisi2
 236              	.LVL24:
 237 0050 C31A     		subs	r3, r0, r3
 238 0052 E279     		ldrb	r2, [r4, #7]	@ zero_extendqisi2
 239 0054 9342     		cmp	r3, r2
 240 0056 04DA     		bge	.L22
  86:Generated_Source\PSoC5/CupSensor_1_CupSensorUnit.c ****                     {
  87:Generated_Source\PSoC5/CupSensor_1_CupSensorUnit.c ****                         sensorUnit->state = NOT_PLACED;
 241              		.loc 1 87 0
 242 0058 0023     		movs	r3, #0
 243 005a 2370     		strb	r3, [r4]
  88:Generated_Source\PSoC5/CupSensor_1_CupSensorUnit.c ****                         CircularBuffer_resetBuffer(&(sensorUnit->averageBuffer));
 244              		.loc 1 88 0
 245 005c 3046     		mov	r0, r6
 246 005e FFF7FEFF 		bl	CircularBuffer_resetBuffer
 247              	.LVL25:
 248              	.L22:
  89:Generated_Source\PSoC5/CupSensor_1_CupSensorUnit.c ****                     }
  90:Generated_Source\PSoC5/CupSensor_1_CupSensorUnit.c ****                     if(sensorUnit->averageBuffer.index >= 20)
 249              		.loc 1 90 0
 250 0062 B4F82438 		ldrh	r3, [r4, #2084]
 251 0066 132B     		cmp	r3, #19
 252 0068 3AD9     		bls	.L16
ARM GAS  C:\Users\nikol\AppData\Local\Temp\ccY02Dqq.s 			page 7


  91:Generated_Source\PSoC5/CupSensor_1_CupSensorUnit.c ****                     {
  92:Generated_Source\PSoC5/CupSensor_1_CupSensorUnit.c ****                         sensorUnit->state = PLACED;
 253              		.loc 1 92 0
 254 006a 0223     		movs	r3, #2
 255 006c 2370     		strb	r3, [r4]
  93:Generated_Source\PSoC5/CupSensor_1_CupSensorUnit.c ****                         CircularBuffer_resetBuffer(&(sensorUnit->averageBuffer));    
 256              		.loc 1 93 0
 257 006e 3046     		mov	r0, r6
 258 0070 FFF7FEFF 		bl	CircularBuffer_resetBuffer
 259              	.LVL26:
 260 0074 34E0     		b	.L16
 261              	.LVL27:
 262              	.L20:
  94:Generated_Source\PSoC5/CupSensor_1_CupSensorUnit.c ****                     }
  95:Generated_Source\PSoC5/CupSensor_1_CupSensorUnit.c ****                 }
  96:Generated_Source\PSoC5/CupSensor_1_CupSensorUnit.c ****                 break;
  97:Generated_Source\PSoC5/CupSensor_1_CupSensorUnit.c ****                 
  98:Generated_Source\PSoC5/CupSensor_1_CupSensorUnit.c ****                 case PLACED:
  99:Generated_Source\PSoC5/CupSensor_1_CupSensorUnit.c ****                 {
 100:Generated_Source\PSoC5/CupSensor_1_CupSensorUnit.c ****                     if(((lastReading - sensorUnit->baseline) > (sensorUnit->hit_trigger * sensorUni
 263              		.loc 1 100 0
 264 0076 9DF80700 		ldrb	r0, [sp, #7]	@ zero_extendqisi2
 265              	.LVL28:
 266 007a C01A     		subs	r0, r0, r3
 267 007c FFF7FEFF 		bl	__aeabi_i2f
 268              	.LVL29:
 269 0080 8046     		mov	r8, r0
 270 0082 D4F80890 		ldr	r9, [r4, #8]	@ float
 271 0086 B4F90470 		ldrsh	r7, [r4, #4]
 272 008a 3846     		mov	r0, r7
 273 008c FFF7FEFF 		bl	__aeabi_i2f
 274              	.LVL30:
 275 0090 4946     		mov	r1, r9
 276 0092 FFF7FEFF 		bl	__aeabi_fmul
 277              	.LVL31:
 278 0096 0146     		mov	r1, r0
 279 0098 4046     		mov	r0, r8
 280 009a FFF7FEFF 		bl	__aeabi_fcmpgt
 281              	.LVL32:
 282 009e 30B1     		cbz	r0, .L23
 283              		.loc 1 100 0 is_stmt 0 discriminator 1
 284 00a0 002F     		cmp	r7, #0
 285 00a2 04DD     		ble	.L23
 101:Generated_Source\PSoC5/CupSensor_1_CupSensorUnit.c ****                     {
 102:Generated_Source\PSoC5/CupSensor_1_CupSensorUnit.c ****                         sensorUnit->state = HIT;
 286              		.loc 1 102 0 is_stmt 1
 287 00a4 0423     		movs	r3, #4
 288 00a6 2370     		strb	r3, [r4]
 103:Generated_Source\PSoC5/CupSensor_1_CupSensorUnit.c ****                         CircularBuffer_resetBuffer(&(sensorUnit->averageBuffer));
 289              		.loc 1 103 0
 290 00a8 3046     		mov	r0, r6
 291 00aa FFF7FEFF 		bl	CircularBuffer_resetBuffer
 292              	.LVL33:
 293              	.L23:
 104:Generated_Source\PSoC5/CupSensor_1_CupSensorUnit.c ****                     }
 105:Generated_Source\PSoC5/CupSensor_1_CupSensorUnit.c ****                     if((lastReading - sensorUnit->baseline) < sensorUnit->removed_trigger)
 294              		.loc 1 105 0
ARM GAS  C:\Users\nikol\AppData\Local\Temp\ccY02Dqq.s 			page 8


 295 00ae B4F90220 		ldrsh	r2, [r4, #2]
 296 00b2 9DF80730 		ldrb	r3, [sp, #7]	@ zero_extendqisi2
 297 00b6 9B1A     		subs	r3, r3, r2
 298 00b8 E279     		ldrb	r2, [r4, #7]	@ zero_extendqisi2
 299 00ba 9342     		cmp	r3, r2
 300 00bc 10DA     		bge	.L16
 106:Generated_Source\PSoC5/CupSensor_1_CupSensorUnit.c ****                     {
 107:Generated_Source\PSoC5/CupSensor_1_CupSensorUnit.c ****                         sensorUnit->state = NOT_PLACED;
 301              		.loc 1 107 0
 302 00be 0023     		movs	r3, #0
 303 00c0 2370     		strb	r3, [r4]
 108:Generated_Source\PSoC5/CupSensor_1_CupSensorUnit.c ****                         CircularBuffer_resetBuffer(&(sensorUnit->averageBuffer));
 304              		.loc 1 108 0
 305 00c2 3046     		mov	r0, r6
 306 00c4 FFF7FEFF 		bl	CircularBuffer_resetBuffer
 307              	.LVL34:
 308 00c8 0AE0     		b	.L16
 309              	.LVL35:
 310              	.L21:
 109:Generated_Source\PSoC5/CupSensor_1_CupSensorUnit.c ****                     }
 110:Generated_Source\PSoC5/CupSensor_1_CupSensorUnit.c ****                 }
 111:Generated_Source\PSoC5/CupSensor_1_CupSensorUnit.c ****                 break;
 112:Generated_Source\PSoC5/CupSensor_1_CupSensorUnit.c ****                 case HIT:
 113:Generated_Source\PSoC5/CupSensor_1_CupSensorUnit.c ****                 {
 114:Generated_Source\PSoC5/CupSensor_1_CupSensorUnit.c ****                     if((lastReading - sensorUnit->baseline) < sensorUnit->removed_trigger)
 311              		.loc 1 114 0
 312 00ca 9DF80700 		ldrb	r0, [sp, #7]	@ zero_extendqisi2
 313              	.LVL36:
 314 00ce C31A     		subs	r3, r0, r3
 315 00d0 E279     		ldrb	r2, [r4, #7]	@ zero_extendqisi2
 316 00d2 9342     		cmp	r3, r2
 317 00d4 04DA     		bge	.L16
 115:Generated_Source\PSoC5/CupSensor_1_CupSensorUnit.c ****                     {
 116:Generated_Source\PSoC5/CupSensor_1_CupSensorUnit.c ****                         sensorUnit->state = NOT_PLACED;
 318              		.loc 1 116 0
 319 00d6 0023     		movs	r3, #0
 320 00d8 2370     		strb	r3, [r4]
 117:Generated_Source\PSoC5/CupSensor_1_CupSensorUnit.c ****                         CircularBuffer_resetBuffer(&(sensorUnit->averageBuffer));
 321              		.loc 1 117 0
 322 00da 3046     		mov	r0, r6
 323 00dc FFF7FEFF 		bl	CircularBuffer_resetBuffer
 324              	.LVL37:
 325              	.L16:
 118:Generated_Source\PSoC5/CupSensor_1_CupSensorUnit.c ****                     }
 119:Generated_Source\PSoC5/CupSensor_1_CupSensorUnit.c ****                 }
 120:Generated_Source\PSoC5/CupSensor_1_CupSensorUnit.c ****                 break;
 121:Generated_Source\PSoC5/CupSensor_1_CupSensorUnit.c ****             }
 122:Generated_Source\PSoC5/CupSensor_1_CupSensorUnit.c ****         }
 123:Generated_Source\PSoC5/CupSensor_1_CupSensorUnit.c ****     }
 124:Generated_Source\PSoC5/CupSensor_1_CupSensorUnit.c ****     if(oldState == sensorUnit->state)
 326              		.loc 1 124 0
 327 00e0 2378     		ldrb	r3, [r4]	@ zero_extendqisi2
 328 00e2 9D42     		cmp	r5, r3
 329 00e4 04D0     		beq	.L26
 125:Generated_Source\PSoC5/CupSensor_1_CupSensorUnit.c ****     {
 126:Generated_Source\PSoC5/CupSensor_1_CupSensorUnit.c ****         return 0;    
 127:Generated_Source\PSoC5/CupSensor_1_CupSensorUnit.c ****     }
ARM GAS  C:\Users\nikol\AppData\Local\Temp\ccY02Dqq.s 			page 9


 128:Generated_Source\PSoC5/CupSensor_1_CupSensorUnit.c ****     else
 129:Generated_Source\PSoC5/CupSensor_1_CupSensorUnit.c ****     {
 130:Generated_Source\PSoC5/CupSensor_1_CupSensorUnit.c ****         if(oldState == VALIDATING_PLACED && sensorUnit->state == NOT_PLACED)
 330              		.loc 1 130 0
 331 00e6 012D     		cmp	r5, #1
 332 00e8 04D1     		bne	.L27
 333              		.loc 1 130 0 is_stmt 0 discriminator 1
 334 00ea 2BB1     		cbz	r3, .L28
 131:Generated_Source\PSoC5/CupSensor_1_CupSensorUnit.c ****         {
 132:Generated_Source\PSoC5/CupSensor_1_CupSensorUnit.c ****             return 0;    
 133:Generated_Source\PSoC5/CupSensor_1_CupSensorUnit.c ****         }
 134:Generated_Source\PSoC5/CupSensor_1_CupSensorUnit.c ****         else
 135:Generated_Source\PSoC5/CupSensor_1_CupSensorUnit.c ****         {
 136:Generated_Source\PSoC5/CupSensor_1_CupSensorUnit.c ****             return 1;   
 335              		.loc 1 136 0 is_stmt 1
 336 00ec 0120     		movs	r0, #1
 337 00ee 04E0     		b	.L25
 338              	.L26:
 126:Generated_Source\PSoC5/CupSensor_1_CupSensorUnit.c ****     }
 339              		.loc 1 126 0
 340 00f0 0020     		movs	r0, #0
 341 00f2 02E0     		b	.L25
 342              	.L27:
 343              		.loc 1 136 0
 344 00f4 0120     		movs	r0, #1
 345 00f6 00E0     		b	.L25
 346              	.L28:
 132:Generated_Source\PSoC5/CupSensor_1_CupSensorUnit.c ****         }
 347              		.loc 1 132 0
 348 00f8 0020     		movs	r0, #0
 349              	.L25:
 137:Generated_Source\PSoC5/CupSensor_1_CupSensorUnit.c ****         }
 138:Generated_Source\PSoC5/CupSensor_1_CupSensorUnit.c ****     }
 139:Generated_Source\PSoC5/CupSensor_1_CupSensorUnit.c **** }
 350              		.loc 1 139 0
 351 00fa 03B0     		add	sp, sp, #12
 352              		.cfi_def_cfa_offset 28
 353              		@ sp needed
 354 00fc BDE8F083 		pop	{r4, r5, r6, r7, r8, r9, pc}
 355              		.cfi_endproc
 356              	.LFE66:
 357              		.size	CupSensorUnit_updateState, .-CupSensorUnit_updateState
 358              		.section	.text.CupSensorUnit_insertReading,"ax",%progbits
 359              		.align	2
 360              		.global	CupSensorUnit_insertReading
 361              		.thumb
 362              		.thumb_func
 363              		.type	CupSensorUnit_insertReading, %function
 364              	CupSensorUnit_insertReading:
 365              	.LFB67:
 140:Generated_Source\PSoC5/CupSensor_1_CupSensorUnit.c **** 
 141:Generated_Source\PSoC5/CupSensor_1_CupSensorUnit.c **** uint8_t CupSensorUnit_insertReading(struct CupSensorUnit* sensorUnit, uint8_t reading)
 142:Generated_Source\PSoC5/CupSensor_1_CupSensorUnit.c **** {
 366              		.loc 1 142 0
 367              		.cfi_startproc
 368              		@ args = 0, pretend = 0, frame = 0
 369              		@ frame_needed = 0, uses_anonymous_args = 0
ARM GAS  C:\Users\nikol\AppData\Local\Temp\ccY02Dqq.s 			page 10


 370              	.LVL38:
 371 0000 38B5     		push	{r3, r4, r5, lr}
 372              		.cfi_def_cfa_offset 16
 373              		.cfi_offset 3, -16
 374              		.cfi_offset 4, -12
 375              		.cfi_offset 5, -8
 376              		.cfi_offset 14, -4
 377 0002 0446     		mov	r4, r0
 143:Generated_Source\PSoC5/CupSensor_1_CupSensorUnit.c ****     
 144:Generated_Source\PSoC5/CupSensor_1_CupSensorUnit.c ****     CircularBuffer_insertReading(&(sensorUnit->averageBuffer), reading);
 378              		.loc 1 144 0
 379 0004 00F22445 		addw	r5, r0, #1060
 380 0008 2846     		mov	r0, r5
 381              	.LVL39:
 382 000a FFF7FEFF 		bl	CircularBuffer_insertReading
 383              	.LVL40:
 145:Generated_Source\PSoC5/CupSensor_1_CupSensorUnit.c ****     CircularBuffer_calculateMinMax(&(sensorUnit->averageBuffer));
 384              		.loc 1 145 0
 385 000e 2846     		mov	r0, r5
 386 0010 FFF7FEFF 		bl	CircularBuffer_calculateMinMax
 387              	.LVL41:
 146:Generated_Source\PSoC5/CupSensor_1_CupSensorUnit.c ****     uint8_t stateChanged = CupSensorUnit_updateState(sensorUnit);
 388              		.loc 1 146 0
 389 0014 2046     		mov	r0, r4
 390 0016 FFF7FEFF 		bl	CupSensorUnit_updateState
 391              	.LVL42:
 392 001a 0546     		mov	r5, r0
 393              	.LVL43:
 147:Generated_Source\PSoC5/CupSensor_1_CupSensorUnit.c ****     CupSensorUnit_calculateBaselines(sensorUnit);
 394              		.loc 1 147 0
 395 001c 2046     		mov	r0, r4
 396 001e FFF7FEFF 		bl	CupSensorUnit_calculateBaselines
 397              	.LVL44:
 148:Generated_Source\PSoC5/CupSensor_1_CupSensorUnit.c ****     return stateChanged;
 149:Generated_Source\PSoC5/CupSensor_1_CupSensorUnit.c **** 
 150:Generated_Source\PSoC5/CupSensor_1_CupSensorUnit.c ****     
 151:Generated_Source\PSoC5/CupSensor_1_CupSensorUnit.c **** }
 398              		.loc 1 151 0
 399 0022 2846     		mov	r0, r5
 400 0024 38BD     		pop	{r3, r4, r5, pc}
 401              		.cfi_endproc
 402              	.LFE67:
 403              		.size	CupSensorUnit_insertReading, .-CupSensorUnit_insertReading
 404 0026 00BF     		.text
 405              	.Letext0:
 406              		.file 2 "c:\\program files (x86)\\cypress\\psoc creator\\4.2\\psoc creator\\import\\gnu\\arm\\5.4.
 407              		.file 3 "c:\\program files (x86)\\cypress\\psoc creator\\4.2\\psoc creator\\import\\gnu\\arm\\5.4.
 408              		.file 4 "Generated_Source\\PSoC5/CupSensor_1_CircularBuffer.h"
 409              		.file 5 "Generated_Source\\PSoC5/CupSensor_1_CupSensorUnit.h"
 410              		.file 6 "Generated_Source\\PSoC5/core_cm3.h"