ARM GAS  C:\Users\MARCUS~1\AppData\Local\Temp\cceUZLhf.s 			page 1


   1              		.syntax unified
   2              		.cpu cortex-m3
   3              		.fpu softvfp
   4              		.eabi_attribute 20, 1
   5              		.eabi_attribute 21, 1
   6              		.eabi_attribute 23, 3
   7              		.eabi_attribute 24, 1
   8              		.eabi_attribute 25, 1
   9              		.eabi_attribute 26, 1
  10              		.eabi_attribute 30, 1
  11              		.eabi_attribute 34, 1
  12              		.eabi_attribute 18, 4
  13              		.thumb
  14              		.syntax unified
  15              		.file	"led_control.c"
  16              		.text
  17              	.Ltext0:
  18              		.cfi_sections	.debug_frame
  19              		.section	.text.latchShiftReg,"ax",%progbits
  20              		.align	2
  21              		.global	latchShiftReg
  22              		.thumb
  23              		.thumb_func
  24              		.type	latchShiftReg, %function
  25              	latchShiftReg:
  26              	.LFB66:
  27              		.file 1 "led_control.c"
   1:led_control.c **** /* ========================================
   2:led_control.c ****  *
   3:led_control.c ****  * Copyright YOUR COMPANY, THE YEAR
   4:led_control.c ****  * All Rights Reserved
   5:led_control.c ****  * UNPUBLISHED, LICENSED SOFTWARE.
   6:led_control.c ****  *
   7:led_control.c ****  * CONFIDENTIAL AND PROPRIETARY INFORMATION
   8:led_control.c ****  * WHICH IS THE PROPERTY OF your company.
   9:led_control.c ****  *
  10:led_control.c ****  * ========================================
  11:led_control.c **** */
  12:led_control.c **** #include "led_control.h"
  13:led_control.c **** 
  14:led_control.c **** 
  15:led_control.c **** void initLedControl()
  16:led_control.c **** {
  17:led_control.c ****     isr_update_leds_StartEx(led_updater_handler );
  18:led_control.c ****     initRGBLED();
  19:led_control.c ****     
  20:led_control.c ****     for (uint32_t i = 0; i < LEDS_TO_CONTROL; i++){
  21:led_control.c ****          setColorOfLed(i,255,255,255);
  22:led_control.c ****     }
  23:led_control.c ****     
  24:led_control.c ****     SPIM_led_control_Start();
  25:led_control.c ****     Timer_led_updater_Start();
  26:led_control.c **** }
  27:led_control.c **** 
  28:led_control.c **** CY_ISR(led_updater_handler)
  29:led_control.c **** {
  30:led_control.c ****     updateLeds();
ARM GAS  C:\Users\MARCUS~1\AppData\Local\Temp\cceUZLhf.s 			page 2


  31:led_control.c **** }
  32:led_control.c **** 
  33:led_control.c **** void updateLeds()
  34:led_control.c **** {
  35:led_control.c ****     SPIM_led_control_WriteTxData(1<<ledToUpdate);
  36:led_control.c ****     setColor(rgb_leds[ledToUpdate].red,
  37:led_control.c ****                 rgb_leds[ledToUpdate].green,
  38:led_control.c ****                     rgb_leds[ledToUpdate].blue); //Update color
  39:led_control.c ****     latchShiftReg();
  40:led_control.c ****     if(ledToUpdate++ == LEDS_TO_CONTROL)
  41:led_control.c ****     {
  42:led_control.c ****         ledToUpdate = 0;
  43:led_control.c ****     }
  44:led_control.c **** }
  45:led_control.c **** 
  46:led_control.c **** void latchShiftReg()
  47:led_control.c **** {
  28              		.loc 1 47 0
  29              		.cfi_startproc
  30              		@ args = 0, pretend = 0, frame = 0
  31              		@ frame_needed = 0, uses_anonymous_args = 0
  32 0000 08B5     		push	{r3, lr}
  33              		.cfi_def_cfa_offset 8
  34              		.cfi_offset 3, -8
  35              		.cfi_offset 14, -4
  48:led_control.c ****     Pin_latch_Write(0);
  36              		.loc 1 48 0
  37 0002 0020     		movs	r0, #0
  38 0004 FFF7FEFF 		bl	Pin_latch_Write
  39              	.LVL0:
  49:led_control.c ****     Pin_latch_Write(1);
  40              		.loc 1 49 0
  41 0008 0120     		movs	r0, #1
  42 000a FFF7FEFF 		bl	Pin_latch_Write
  43              	.LVL1:
  44 000e 08BD     		pop	{r3, pc}
  45              		.cfi_endproc
  46              	.LFE66:
  47              		.size	latchShiftReg, .-latchShiftReg
  48              		.section	.text.updateLeds,"ax",%progbits
  49              		.align	2
  50              		.global	updateLeds
  51              		.thumb
  52              		.thumb_func
  53              		.type	updateLeds, %function
  54              	updateLeds:
  55              	.LFB65:
  34:led_control.c ****     SPIM_led_control_WriteTxData(1<<ledToUpdate);
  56              		.loc 1 34 0
  57              		.cfi_startproc
  58              		@ args = 0, pretend = 0, frame = 0
  59              		@ frame_needed = 0, uses_anonymous_args = 0
  60 0000 10B5     		push	{r4, lr}
  61              		.cfi_def_cfa_offset 8
  62              		.cfi_offset 4, -8
  63              		.cfi_offset 14, -4
  35:led_control.c ****     setColor(rgb_leds[ledToUpdate].red,
ARM GAS  C:\Users\MARCUS~1\AppData\Local\Temp\cceUZLhf.s 			page 3


  64              		.loc 1 35 0
  65 0002 0D4C     		ldr	r4, .L6
  66 0004 2078     		ldrb	r0, [r4]	@ zero_extendqisi2
  67 0006 0123     		movs	r3, #1
  68 0008 03FA00F0 		lsl	r0, r3, r0
  69 000c C0B2     		uxtb	r0, r0
  70 000e FFF7FEFF 		bl	SPIM_led_control_WriteTxData
  71              	.LVL2:
  36:led_control.c ****                 rgb_leds[ledToUpdate].green,
  72              		.loc 1 36 0
  73 0012 2378     		ldrb	r3, [r4]	@ zero_extendqisi2
  74 0014 03EB4303 		add	r3, r3, r3, lsl #1
  75 0018 2344     		add	r3, r3, r4
  76 001a 9A79     		ldrb	r2, [r3, #6]	@ zero_extendqisi2
  77 001c 5979     		ldrb	r1, [r3, #5]	@ zero_extendqisi2
  78 001e 1879     		ldrb	r0, [r3, #4]	@ zero_extendqisi2
  79 0020 FFF7FEFF 		bl	setColor
  80              	.LVL3:
  39:led_control.c ****     if(ledToUpdate++ == LEDS_TO_CONTROL)
  81              		.loc 1 39 0
  82 0024 FFF7FEFF 		bl	latchShiftReg
  83              	.LVL4:
  40:led_control.c ****     {
  84              		.loc 1 40 0
  85 0028 2378     		ldrb	r3, [r4]	@ zero_extendqisi2
  86 002a 5A1C     		adds	r2, r3, #1
  87 002c 2270     		strb	r2, [r4]
  88 002e 042B     		cmp	r3, #4
  89 0030 01D1     		bne	.L3
  42:led_control.c ****     }
  90              		.loc 1 42 0
  91 0032 0022     		movs	r2, #0
  92 0034 2270     		strb	r2, [r4]
  93              	.L3:
  94 0036 10BD     		pop	{r4, pc}
  95              	.L7:
  96              		.align	2
  97              	.L6:
  98 0038 00000000 		.word	.LANCHOR0
  99              		.cfi_endproc
 100              	.LFE65:
 101              		.size	updateLeds, .-updateLeds
 102              		.section	.text.led_updater_handler,"ax",%progbits
 103              		.align	2
 104              		.global	led_updater_handler
 105              		.thumb
 106              		.thumb_func
 107              		.type	led_updater_handler, %function
 108              	led_updater_handler:
 109              	.LFB64:
  29:led_control.c ****     updateLeds();
 110              		.loc 1 29 0
 111              		.cfi_startproc
 112              		@ args = 0, pretend = 0, frame = 0
 113              		@ frame_needed = 0, uses_anonymous_args = 0
 114 0000 08B5     		push	{r3, lr}
 115              		.cfi_def_cfa_offset 8
ARM GAS  C:\Users\MARCUS~1\AppData\Local\Temp\cceUZLhf.s 			page 4


 116              		.cfi_offset 3, -8
 117              		.cfi_offset 14, -4
  30:led_control.c **** }
 118              		.loc 1 30 0
 119 0002 FFF7FEFF 		bl	updateLeds
 120              	.LVL5:
 121 0006 08BD     		pop	{r3, pc}
 122              		.cfi_endproc
 123              	.LFE64:
 124              		.size	led_updater_handler, .-led_updater_handler
 125              		.section	.text.setColorOfLed,"ax",%progbits
 126              		.align	2
 127              		.global	setColorOfLed
 128              		.thumb
 129              		.thumb_func
 130              		.type	setColorOfLed, %function
 131              	setColorOfLed:
 132              	.LFB67:
  50:led_control.c **** }
  51:led_control.c **** void setColorOfLed(uint8_t nr, uint8_t R,uint8_t G,uint8_t B)
  52:led_control.c **** {
 133              		.loc 1 52 0
 134              		.cfi_startproc
 135              		@ args = 0, pretend = 0, frame = 0
 136              		@ frame_needed = 0, uses_anonymous_args = 0
 137              		@ link register save eliminated.
 138              	.LVL6:
  53:led_control.c ****     if (nr >= 0 && nr < LEDS_TO_CONTROL)
 139              		.loc 1 53 0
 140 0000 0328     		cmp	r0, #3
 141 0002 08D8     		bhi	.L14
  52:led_control.c ****     if (nr >= 0 && nr < LEDS_TO_CONTROL)
 142              		.loc 1 52 0
 143 0004 10B4     		push	{r4}
 144              		.cfi_def_cfa_offset 4
 145              		.cfi_offset 4, -4
  54:led_control.c ****     {
  55:led_control.c ****         rgb_leds[nr].red = R>=0 && R<=255 ? R : getRed(); //Bound Check
 146              		.loc 1 55 0
 147 0006 00EB4000 		add	r0, r0, r0, lsl #1
 148              	.LVL7:
 149 000a 034C     		ldr	r4, .L15
 150 000c 2044     		add	r0, r0, r4
 151 000e 0171     		strb	r1, [r0, #4]
  56:led_control.c ****         rgb_leds[nr].green = G>=0 && G<=255 ? G : getGreen(); //Bound Check
 152              		.loc 1 56 0
 153 0010 4271     		strb	r2, [r0, #5]
  57:led_control.c ****         rgb_leds[nr].blue = B>=0 && B<=255 ? B : getBlue(); //Bound Check
 154              		.loc 1 57 0
 155 0012 8371     		strb	r3, [r0, #6]
  58:led_control.c ****     }
  59:led_control.c **** }
 156              		.loc 1 59 0
 157 0014 10BC     		pop	{r4}
 158              		.cfi_restore 4
 159              		.cfi_def_cfa_offset 0
 160              	.L14:
ARM GAS  C:\Users\MARCUS~1\AppData\Local\Temp\cceUZLhf.s 			page 5


 161 0016 7047     		bx	lr
 162              	.L16:
 163              		.align	2
 164              	.L15:
 165 0018 00000000 		.word	.LANCHOR0
 166              		.cfi_endproc
 167              	.LFE67:
 168              		.size	setColorOfLed, .-setColorOfLed
 169              		.section	.text.initLedControl,"ax",%progbits
 170              		.align	2
 171              		.global	initLedControl
 172              		.thumb
 173              		.thumb_func
 174              		.type	initLedControl, %function
 175              	initLedControl:
 176              	.LFB63:
  16:led_control.c ****     isr_update_leds_StartEx(led_updater_handler );
 177              		.loc 1 16 0
 178              		.cfi_startproc
 179              		@ args = 0, pretend = 0, frame = 0
 180              		@ frame_needed = 0, uses_anonymous_args = 0
 181 0000 10B5     		push	{r4, lr}
 182              		.cfi_def_cfa_offset 8
 183              		.cfi_offset 4, -8
 184              		.cfi_offset 14, -4
  17:led_control.c ****     initRGBLED();
 185              		.loc 1 17 0
 186 0002 0A48     		ldr	r0, .L21
 187 0004 FFF7FEFF 		bl	isr_update_leds_StartEx
 188              	.LVL8:
  18:led_control.c ****     
 189              		.loc 1 18 0
 190 0008 FFF7FEFF 		bl	initRGBLED
 191              	.LVL9:
 192              	.LBB2:
  20:led_control.c ****          setColorOfLed(i,255,255,255);
 193              		.loc 1 20 0
 194 000c 0024     		movs	r4, #0
 195 000e 06E0     		b	.L18
 196              	.LVL10:
 197              	.L19:
  21:led_control.c ****     }
 198              		.loc 1 21 0 discriminator 3
 199 0010 FF23     		movs	r3, #255
 200 0012 1A46     		mov	r2, r3
 201 0014 1946     		mov	r1, r3
 202 0016 E0B2     		uxtb	r0, r4
 203 0018 FFF7FEFF 		bl	setColorOfLed
 204              	.LVL11:
  20:led_control.c ****          setColorOfLed(i,255,255,255);
 205              		.loc 1 20 0 discriminator 3
 206 001c 0134     		adds	r4, r4, #1
 207              	.LVL12:
 208              	.L18:
  20:led_control.c ****          setColorOfLed(i,255,255,255);
 209              		.loc 1 20 0 is_stmt 0 discriminator 1
 210 001e 032C     		cmp	r4, #3
ARM GAS  C:\Users\MARCUS~1\AppData\Local\Temp\cceUZLhf.s 			page 6


 211 0020 F6D9     		bls	.L19
 212              	.LBE2:
  24:led_control.c ****     Timer_led_updater_Start();
 213              		.loc 1 24 0 is_stmt 1
 214 0022 FFF7FEFF 		bl	SPIM_led_control_Start
 215              	.LVL13:
  25:led_control.c **** }
 216              		.loc 1 25 0
 217 0026 FFF7FEFF 		bl	Timer_led_updater_Start
 218              	.LVL14:
 219 002a 10BD     		pop	{r4, pc}
 220              	.LVL15:
 221              	.L22:
 222              		.align	2
 223              	.L21:
 224 002c 00000000 		.word	led_updater_handler
 225              		.cfi_endproc
 226              	.LFE63:
 227              		.size	initLedControl, .-initLedControl
 228              		.bss
 229              		.align	2
 230              		.set	.LANCHOR0,. + 0
 231              		.type	ledToUpdate, %object
 232              		.size	ledToUpdate, 1
 233              	ledToUpdate:
 234 0000 00       		.space	1
 235 0001 000000   		.space	3
 236              		.type	rgb_leds, %object
 237              		.size	rgb_leds, 12
 238              	rgb_leds:
 239 0004 00000000 		.space	12
 239      00000000 
 239      00000000 
 240              		.text
 241              	.Letext0:
 242              		.file 2 "f:\\marcus\\software\\psoc creator\\4.2\\psoc creator\\import\\gnu\\arm\\5.4.1\\arm-none-
 243              		.file 3 "f:\\marcus\\software\\psoc creator\\4.2\\psoc creator\\import\\gnu\\arm\\5.4.1\\arm-none-
 244              		.file 4 "rgb_led.h"
 245              		.file 5 "led_control.h"
 246              		.file 6 "Generated_Source\\PSoC5/Pin_latch.h"
 247              		.file 7 "Generated_Source\\PSoC5/SPIM_led_control.h"
 248              		.file 8 "Generated_Source\\PSoC5/isr_update_leds.h"
 249              		.file 9 "Generated_Source\\PSoC5/Timer_led_updater.h"
 250              		.file 10 "Generated_Source\\PSoC5/core_cm3.h"