ARM GAS  C:\Users\MARCUS~1\AppData\Local\Temp\ccwsBh70.s 			page 1


   1              		.syntax unified
   2              		.cpu cortex-m3
   3              		.fpu softvfp
   4              		.eabi_attribute 20, 1
   5              		.eabi_attribute 21, 1
   6              		.eabi_attribute 23, 3
   7              		.eabi_attribute 24, 1
   8              		.eabi_attribute 25, 1
   9              		.eabi_attribute 26, 1
  10              		.eabi_attribute 30, 1
  11              		.eabi_attribute 34, 1
  12              		.eabi_attribute 18, 4
  13              		.thumb
  14              		.syntax unified
  15              		.file	"main.c"
  16              		.text
  17              	.Ltext0:
  18              		.cfi_sections	.debug_frame
  19              		.section	.text.main,"ax",%progbits
  20              		.align	2
  21              		.global	main
  22              		.thumb
  23              		.thumb_func
  24              		.type	main, %function
  25              	main:
  26              	.LFB63:
  27              		.file 1 "main.c"
   1:main.c        **** /* ========================================
   2:main.c        ****  *
   3:main.c        ****  * Copyright YOUR COMPANY, THE YEAR
   4:main.c        ****  * All Rights Reserved
   5:main.c        ****  * UNPUBLISHED, LICENSED SOFTWARE.
   6:main.c        ****  *
   7:main.c        ****  * CONFIDENTIAL AND PROPRIETARY INFORMATION
   8:main.c        ****  * WHICH IS THE PROPERTY OF your company.
   9:main.c        ****  *
  10:main.c        ****  * ========================================
  11:main.c        **** */
  12:main.c        **** #include <stdbool.h>
  13:main.c        **** #include "project.h"
  14:main.c        **** #include "ShiftRegPWM.h"
  15:main.c        **** #include "CupLight_IF.h"
  16:main.c        **** 
  17:main.c        **** #define LEDTOTEST 0
  18:main.c        **** 
  19:main.c        **** CY_ISR_PROTO(ISR_UART_rx_handler);
  20:main.c        **** void handleByteReceived(uint8_t byteReceived);
  21:main.c        **** 
  22:main.c        **** uint8_t globalRed = 0;
  23:main.c        **** uint8_t globalGreen = 0;
  24:main.c        **** uint8_t globalBlue = 0;
  25:main.c        **** uint8_t flag = 0;
  26:main.c        **** 
  27:main.c        **** int main(void)
  28:main.c        **** {
  28              		.loc 1 28 0
  29              		.cfi_startproc
ARM GAS  C:\Users\MARCUS~1\AppData\Local\Temp\ccwsBh70.s 			page 2


  30              		@ args = 0, pretend = 0, frame = 8
  31              		@ frame_needed = 0, uses_anonymous_args = 0
  32 0000 00B5     		push	{lr}
  33              		.cfi_def_cfa_offset 4
  34              		.cfi_offset 14, -4
  35 0002 87B0     		sub	sp, sp, #28
  36              		.cfi_def_cfa_offset 32
  29:main.c        ****     CyGlobalIntEnable; /* Enable global interrupts. */
  37              		.loc 1 29 0
  38              		.syntax unified
  39              	@ 29 "main.c" 1
  40 0004 62B6     		CPSIE   i
  41              	@ 0 "" 2
  30:main.c        ****     isr_uart_rx_StartEx(ISR_UART_rx_handler);
  42              		.loc 1 30 0
  43              		.thumb
  44              		.syntax unified
  45 0006 1748     		ldr	r0, .L5
  46 0008 FFF7FEFF 		bl	isr_uart_rx_StartEx
  47              	.LVL0:
  31:main.c        ****     UART_1_Start();
  48              		.loc 1 31 0
  49 000c FFF7FEFF 		bl	UART_1_Start
  50              	.LVL1:
  32:main.c        ****     UART_1_PutString("Program started\r\n"); 
  51              		.loc 1 32 0
  52 0010 1548     		ldr	r0, .L5+4
  53 0012 FFF7FEFF 		bl	UART_1_PutString
  54              	.LVL2:
  33:main.c        ****     initShiftRegPWM();
  55              		.loc 1 33 0
  56 0016 FFF7FEFF 		bl	initShiftRegPWM
  57              	.LVL3:
  58              	.L2:
  34:main.c        ****     for(;;)
  35:main.c        ****     {
  36:main.c        ****         if (flag)
  59              		.loc 1 36 0
  60 001a 144B     		ldr	r3, .L5+8
  61 001c 1B78     		ldrb	r3, [r3]	@ zero_extendqisi2
  62 001e 002B     		cmp	r3, #0
  63 0020 FBD0     		beq	.L2
  37:main.c        ****         {
  38:main.c        ****             blinkLight(0,(color_t){255,100,0},(color_t){0,255,100},250,10000);
  64              		.loc 1 38 0
  65 0022 134B     		ldr	r3, .L5+12
  66 0024 1988     		ldrh	r1, [r3]	@ unaligned
  67 0026 9A78     		ldrb	r2, [r3, #2]	@ zero_extendqisi2
  68 0028 ADF81010 		strh	r1, [sp, #16]	@ unaligned
  69 002c 8DF81220 		strb	r2, [sp, #18]
  70 0030 33F8042F 		ldrh	r2, [r3, #4]!	@ unaligned
  71 0034 9B78     		ldrb	r3, [r3, #2]	@ zero_extendqisi2
  72 0036 ADF81420 		strh	r2, [sp, #20]	@ unaligned
  73 003a 8DF81630 		strb	r3, [sp, #22]
  74 003e 42F21072 		movw	r2, #10000
  75 0042 0023     		movs	r3, #0
  76 0044 CDE90223 		strd	r2, [sp, #8]
ARM GAS  C:\Users\MARCUS~1\AppData\Local\Temp\ccwsBh70.s 			page 3


  77 0048 FA22     		movs	r2, #250
  78 004a 0023     		movs	r3, #0
  79 004c CDE90023 		strd	r2, [sp]
  80 0050 059A     		ldr	r2, [sp, #20]
  81 0052 0499     		ldr	r1, [sp, #16]
  82 0054 0020     		movs	r0, #0
  83 0056 FFF7FEFF 		bl	blinkLight
  84              	.LVL4:
  39:main.c        ****             flag = 0;
  85              		.loc 1 39 0
  86 005a 0022     		movs	r2, #0
  87 005c 034B     		ldr	r3, .L5+8
  88 005e 1A70     		strb	r2, [r3]
  89 0060 DBE7     		b	.L2
  90              	.L6:
  91 0062 00BF     		.align	2
  92              	.L5:
  93 0064 00000000 		.word	ISR_UART_rx_handler
  94 0068 00000000 		.word	.LC3
  95 006c 00000000 		.word	.LANCHOR0
  96 0070 00000000 		.word	.LANCHOR1
  97              		.cfi_endproc
  98              	.LFE63:
  99              		.size	main, .-main
 100              		.section	.text.handleByteReceived,"ax",%progbits
 101              		.align	2
 102              		.global	handleByteReceived
 103              		.thumb
 104              		.thumb_func
 105              		.type	handleByteReceived, %function
 106              	handleByteReceived:
 107              	.LFB65:
  40:main.c        ****         }
  41:main.c        ****     }
  42:main.c        **** }
  43:main.c        **** 
  44:main.c        **** CY_ISR(ISR_UART_rx_handler)
  45:main.c        **** {
  46:main.c        ****     uint8_t bytesToRead = UART_1_GetRxBufferSize();    
  47:main.c        ****     //Read bytes
  48:main.c        ****     while (bytesToRead > 0)
  49:main.c        ****     {
  50:main.c        ****         uint8_t byteReceived = UART_1_ReadRxData();
  51:main.c        ****         UART_1_WriteTxData(byteReceived); // echo back
  52:main.c        ****         
  53:main.c        ****         handleByteReceived(byteReceived);
  54:main.c        ****         
  55:main.c        ****         bytesToRead--;
  56:main.c        ****     }
  57:main.c        **** }
  58:main.c        **** 
  59:main.c        **** void handleByteReceived(uint8_t byteReceived)
  60:main.c        **** {
 108              		.loc 1 60 0
 109              		.cfi_startproc
 110              		@ args = 0, pretend = 0, frame = 24
 111              		@ frame_needed = 0, uses_anonymous_args = 0
ARM GAS  C:\Users\MARCUS~1\AppData\Local\Temp\ccwsBh70.s 			page 4


 112              	.LVL5:
 113 0000 00B5     		push	{lr}
 114              		.cfi_def_cfa_offset 4
 115              		.cfi_offset 14, -4
 116 0002 87B0     		sub	sp, sp, #28
 117              		.cfi_def_cfa_offset 32
  61:main.c        ****     switch(byteReceived)
 118              		.loc 1 61 0
 119 0004 6138     		subs	r0, r0, #97
 120              	.LVL6:
 121 0006 1928     		cmp	r0, #25
 122 0008 6DD8     		bhi	.L7
 123 000a DFE800F0 		tbb	[pc, r0]
 124              	.L10:
 125 000e 33       		.byte	(.L9-.L10)/2
 126 000f 6C       		.byte	(.L7-.L10)/2
 127 0010 6C       		.byte	(.L7-.L10)/2
 128 0011 57       		.byte	(.L11-.L10)/2
 129 0012 26       		.byte	(.L12-.L10)/2
 130 0013 6C       		.byte	(.L7-.L10)/2
 131 0014 6C       		.byte	(.L7-.L10)/2
 132 0015 6C       		.byte	(.L7-.L10)/2
 133 0016 6C       		.byte	(.L7-.L10)/2
 134 0017 6C       		.byte	(.L7-.L10)/2
 135 0018 6C       		.byte	(.L7-.L10)/2
 136 0019 6C       		.byte	(.L7-.L10)/2
 137 001a 6C       		.byte	(.L7-.L10)/2
 138 001b 6C       		.byte	(.L7-.L10)/2
 139 001c 6C       		.byte	(.L7-.L10)/2
 140 001d 6C       		.byte	(.L7-.L10)/2
 141 001e 0D       		.byte	(.L13-.L10)/2
 142 001f 6C       		.byte	(.L7-.L10)/2
 143 0020 45       		.byte	(.L14-.L10)/2
 144 0021 6C       		.byte	(.L7-.L10)/2
 145 0022 6C       		.byte	(.L7-.L10)/2
 146 0023 6C       		.byte	(.L7-.L10)/2
 147 0024 19       		.byte	(.L15-.L10)/2
 148 0025 6C       		.byte	(.L7-.L10)/2
 149 0026 6C       		.byte	(.L7-.L10)/2
 150 0027 69       		.byte	(.L16-.L10)/2
 151              		.p2align 1
 152              	.L13:
  62:main.c        ****     {
  63:main.c        ****         case 'q' :
  64:main.c        ****         {
  65:main.c        ****             controlLight(0,(color_t){255,100,0});
 153              		.loc 1 65 0
 154 0028 304B     		ldr	r3, .L18
 155 002a 1A88     		ldrh	r2, [r3]	@ unaligned
 156 002c 9B78     		ldrb	r3, [r3, #2]	@ zero_extendqisi2
 157 002e ADF80020 		strh	r2, [sp]	@ unaligned
 158 0032 8DF80230 		strb	r3, [sp, #2]
 159 0036 0099     		ldr	r1, [sp]
 160 0038 0020     		movs	r0, #0
 161 003a FFF7FEFF 		bl	controlLight
 162              	.LVL7:
  66:main.c        ****         }
ARM GAS  C:\Users\MARCUS~1\AppData\Local\Temp\ccwsBh70.s 			page 5


  67:main.c        ****         break;
 163              		.loc 1 67 0
 164 003e 52E0     		b	.L7
 165              	.L15:
  68:main.c        ****         case 'w' :
  69:main.c        ****         {
  70:main.c        ****             controlLight(0,(color_t){0,255,100});
 166              		.loc 1 70 0
 167 0040 2A4B     		ldr	r3, .L18
 168 0042 33F8042F 		ldrh	r2, [r3, #4]!	@ unaligned
 169 0046 9B78     		ldrb	r3, [r3, #2]	@ zero_extendqisi2
 170 0048 ADF80420 		strh	r2, [sp, #4]	@ unaligned
 171 004c 8DF80630 		strb	r3, [sp, #6]
 172 0050 0199     		ldr	r1, [sp, #4]
 173 0052 0020     		movs	r0, #0
 174 0054 FFF7FEFF 		bl	controlLight
 175              	.LVL8:
  71:main.c        ****         }
  72:main.c        ****         break;
 176              		.loc 1 72 0
 177 0058 45E0     		b	.L7
 178              	.L12:
  73:main.c        ****         case 'e' :
  74:main.c        ****         {
  75:main.c        ****             controlLight(0,(color_t){100,0,255});
 179              		.loc 1 75 0
 180 005a 244B     		ldr	r3, .L18
 181 005c 33F8082F 		ldrh	r2, [r3, #8]!	@ unaligned
 182 0060 9B78     		ldrb	r3, [r3, #2]	@ zero_extendqisi2
 183 0062 ADF80820 		strh	r2, [sp, #8]	@ unaligned
 184 0066 8DF80A30 		strb	r3, [sp, #10]
 185 006a 0299     		ldr	r1, [sp, #8]
 186 006c 0020     		movs	r0, #0
 187 006e FFF7FEFF 		bl	controlLight
 188              	.LVL9:
  76:main.c        ****         }
  77:main.c        ****         break;
 189              		.loc 1 77 0
 190 0072 38E0     		b	.L7
 191              	.L9:
  78:main.c        ****         case 'a' :
  79:main.c        ****         {
  80:main.c        ****             globalRed += 5;
 192              		.loc 1 80 0
 193 0074 1E4A     		ldr	r2, .L18+4
 194 0076 5378     		ldrb	r3, [r2, #1]	@ zero_extendqisi2
 195 0078 0533     		adds	r3, r3, #5
 196 007a DBB2     		uxtb	r3, r3
 197 007c 5370     		strb	r3, [r2, #1]
  81:main.c        ****             controlLight(LEDTOTEST,(color_t){globalRed,globalGreen,globalBlue});
 198              		.loc 1 81 0
 199 007e 8DF80C30 		strb	r3, [sp, #12]
 200 0082 9378     		ldrb	r3, [r2, #2]	@ zero_extendqisi2
 201 0084 8DF80D30 		strb	r3, [sp, #13]
 202 0088 D378     		ldrb	r3, [r2, #3]	@ zero_extendqisi2
 203 008a 8DF80E30 		strb	r3, [sp, #14]
 204 008e 0399     		ldr	r1, [sp, #12]
ARM GAS  C:\Users\MARCUS~1\AppData\Local\Temp\ccwsBh70.s 			page 6


 205 0090 0020     		movs	r0, #0
 206 0092 FFF7FEFF 		bl	controlLight
 207              	.LVL10:
  82:main.c        ****         }
  83:main.c        ****         break;
 208              		.loc 1 83 0
 209 0096 26E0     		b	.L7
 210              	.L14:
  84:main.c        ****         case 's' :
  85:main.c        ****         {
  86:main.c        ****             globalGreen += 5;
 211              		.loc 1 86 0
 212 0098 154A     		ldr	r2, .L18+4
 213 009a 9378     		ldrb	r3, [r2, #2]	@ zero_extendqisi2
 214 009c 0533     		adds	r3, r3, #5
 215 009e DBB2     		uxtb	r3, r3
 216 00a0 9370     		strb	r3, [r2, #2]
  87:main.c        ****             controlLight(LEDTOTEST,(color_t){globalRed,globalGreen,globalBlue});
 217              		.loc 1 87 0
 218 00a2 5178     		ldrb	r1, [r2, #1]	@ zero_extendqisi2
 219 00a4 8DF81010 		strb	r1, [sp, #16]
 220 00a8 8DF81130 		strb	r3, [sp, #17]
 221 00ac D378     		ldrb	r3, [r2, #3]	@ zero_extendqisi2
 222 00ae 8DF81230 		strb	r3, [sp, #18]
 223 00b2 0499     		ldr	r1, [sp, #16]
 224 00b4 0020     		movs	r0, #0
 225 00b6 FFF7FEFF 		bl	controlLight
 226              	.LVL11:
  88:main.c        ****         }
  89:main.c        ****         break;
 227              		.loc 1 89 0
 228 00ba 14E0     		b	.L7
 229              	.L11:
  90:main.c        ****         case 'd' :
  91:main.c        ****         {
  92:main.c        ****             globalBlue += 5;
 230              		.loc 1 92 0
 231 00bc 0C4A     		ldr	r2, .L18+4
 232 00be D378     		ldrb	r3, [r2, #3]	@ zero_extendqisi2
 233 00c0 0533     		adds	r3, r3, #5
 234 00c2 DBB2     		uxtb	r3, r3
 235 00c4 D370     		strb	r3, [r2, #3]
  93:main.c        ****             controlLight(LEDTOTEST,(color_t){globalRed,globalGreen,globalBlue});
 236              		.loc 1 93 0
 237 00c6 5178     		ldrb	r1, [r2, #1]	@ zero_extendqisi2
 238 00c8 8DF81410 		strb	r1, [sp, #20]
 239 00cc 9278     		ldrb	r2, [r2, #2]	@ zero_extendqisi2
 240 00ce 8DF81520 		strb	r2, [sp, #21]
 241 00d2 8DF81630 		strb	r3, [sp, #22]
 242 00d6 0599     		ldr	r1, [sp, #20]
 243 00d8 0020     		movs	r0, #0
 244 00da FFF7FEFF 		bl	controlLight
 245              	.LVL12:
  94:main.c        ****         }
  95:main.c        ****         break;
 246              		.loc 1 95 0
 247 00de 02E0     		b	.L7
ARM GAS  C:\Users\MARCUS~1\AppData\Local\Temp\ccwsBh70.s 			page 7


 248              	.L16:
  96:main.c        ****         case 'z' :
  97:main.c        ****         {
  98:main.c        ****             flag = 1;
 249              		.loc 1 98 0
 250 00e0 0122     		movs	r2, #1
 251 00e2 034B     		ldr	r3, .L18+4
 252 00e4 1A70     		strb	r2, [r3]
 253              	.L7:
  99:main.c        ****         }
 100:main.c        ****         break;
 101:main.c        ****         default :
 102:main.c        ****         {
 103:main.c        ****             // nothing
 104:main.c        ****         }
 105:main.c        ****         break;
 106:main.c        ****     }
 107:main.c        **** }...
 254              		.loc 1 107 0
 255 00e6 07B0     		add	sp, sp, #28
 256              		.cfi_def_cfa_offset 4
 257              		@ sp needed
 258 00e8 5DF804FB 		ldr	pc, [sp], #4
 259              	.L19:
 260              		.align	2
 261              	.L18:
 262 00ec 00000000 		.word	.LANCHOR1
 263 00f0 00000000 		.word	.LANCHOR0
 264              		.cfi_endproc
 265              	.LFE65:
 266              		.size	handleByteReceived, .-handleByteReceived
 267              		.section	.text.ISR_UART_rx_handler,"ax",%progbits
 268              		.align	2
 269              		.global	ISR_UART_rx_handler
 270              		.thumb
 271              		.thumb_func
 272              		.type	ISR_UART_rx_handler, %function
 273              	ISR_UART_rx_handler:
 274              	.LFB64:
  45:main.c        **** {
 275              		.loc 1 45 0
 276              		.cfi_startproc
 277              		@ args = 0, pretend = 0, frame = 0
 278              		@ frame_needed = 0, uses_anonymous_args = 0
 279 0000 38B5     		push	{r3, r4, r5, lr}
 280              		.cfi_def_cfa_offset 16
 281              		.cfi_offset 3, -16
 282              		.cfi_offset 4, -12
 283              		.cfi_offset 5, -8
 284              		.cfi_offset 14, -4
  46:main.c        ****     uint8_t bytesToRead = UART_1_GetRxBufferSize();    
 285              		.loc 1 46 0
 286 0002 FFF7FEFF 		bl	UART_1_GetRxBufferSize
 287              	.LVL13:
 288 0006 0446     		mov	r4, r0
 289              	.LVL14:
  48:main.c        ****     while (bytesToRead > 0)
ARM GAS  C:\Users\MARCUS~1\AppData\Local\Temp\ccwsBh70.s 			page 8


 290              		.loc 1 48 0
 291 0008 09E0     		b	.L21
 292              	.L22:
 293              	.LBB2:
  50:main.c        ****         uint8_t byteReceived = UART_1_ReadRxData();
 294              		.loc 1 50 0
 295 000a FFF7FEFF 		bl	UART_1_ReadRxData
 296              	.LVL15:
 297 000e 0546     		mov	r5, r0
 298              	.LVL16:
  51:main.c        ****         UART_1_WriteTxData(byteReceived); // echo back
 299              		.loc 1 51 0
 300 0010 FFF7FEFF 		bl	UART_1_WriteTxData
 301              	.LVL17:
  53:main.c        ****         handleByteReceived(byteReceived);
 302              		.loc 1 53 0
 303 0014 2846     		mov	r0, r5
 304 0016 FFF7FEFF 		bl	handleByteReceived
 305              	.LVL18:
  55:main.c        ****         bytesToRead--;
 306              		.loc 1 55 0
 307 001a 013C     		subs	r4, r4, #1
 308              	.LVL19:
 309 001c E4B2     		uxtb	r4, r4
 310              	.LVL20:
 311              	.L21:
 312              	.LBE2:
  48:main.c        ****     while (bytesToRead > 0)
 313              		.loc 1 48 0
 314 001e 002C     		cmp	r4, #0
 315 0020 F3D1     		bne	.L22
  57:main.c        **** }
 316              		.loc 1 57 0
 317 0022 38BD     		pop	{r3, r4, r5, pc}
 318              		.cfi_endproc
 319              	.LFE64:
 320              		.size	ISR_UART_rx_handler, .-ISR_UART_rx_handler
 321              		.global	flag
 322              		.global	globalBlue
 323              		.global	globalGreen
 324              		.global	globalRed
 325              		.section	.rodata
 326              		.align	2
 327              		.set	.LANCHOR1,. + 0
 328              	.LC0:
 329 0000 FF       		.byte	-1
 330 0001 64       		.byte	100
 331 0002 00       		.byte	0
 332 0003 00       		.space	1
 333              	.LC1:
 334 0004 00       		.byte	0
 335 0005 FF       		.byte	-1
 336 0006 64       		.byte	100
 337 0007 00       		.space	1
 338              	.LC2:
 339 0008 64       		.byte	100
 340 0009 00       		.byte	0
ARM GAS  C:\Users\MARCUS~1\AppData\Local\Temp\ccwsBh70.s 			page 9


 341 000a FF       		.byte	-1
 342              		.section	.rodata.str1.4,"aMS",%progbits,1
 343              		.align	2
 344              	.LC3:
 345 0000 50726F67 		.ascii	"Program started\015\012\000"
 345      72616D20 
 345      73746172 
 345      7465640D 
 345      0A00
 346              		.bss
 347              		.set	.LANCHOR0,. + 0
 348              		.type	flag, %object
 349              		.size	flag, 1
 350              	flag:
 351 0000 00       		.space	1
 352              		.type	globalRed, %object
 353              		.size	globalRed, 1
 354              	globalRed:
 355 0001 00       		.space	1
 356              		.type	globalGreen, %object
 357              		.size	globalGreen, 1
 358              	globalGreen:
 359 0002 00       		.space	1
 360              		.type	globalBlue, %object
 361              		.size	globalBlue, 1
 362              	globalBlue:
 363 0003 00       		.space	1
 364              		.text
 365              	.Letext0:
 366              		.file 2 "f:\\marcus\\software\\psoc creator\\4.2\\psoc creator\\import\\gnu\\arm\\5.4.1\\arm-none-
 367              		.file 3 "f:\\marcus\\software\\psoc creator\\4.2\\psoc creator\\import\\gnu\\arm\\5.4.1\\arm-none-
 368              		.file 4 "CupLight_IF.h"
 369              		.file 5 "Generated_Source\\PSoC5/core_cm3.h"
 370              		.file 6 "Generated_Source\\PSoC5/isr_uart_rx.h"
 371              		.file 7 "Generated_Source\\PSoC5/UART_1.h"
 372              		.file 8 "ShiftRegPWM.h"