ARM GAS  C:\Users\MARCUS~1\AppData\Local\Temp\cc7L5tIj.s 			page 1


   1              		.syntax unified
   2              		.cpu cortex-m3
   3              		.fpu softvfp
   4              		.eabi_attribute 20, 1
   5              		.eabi_attribute 21, 1
   6              		.eabi_attribute 23, 3
   7              		.eabi_attribute 24, 1
   8              		.eabi_attribute 25, 1
   9              		.eabi_attribute 26, 1
  10              		.eabi_attribute 30, 1
  11              		.eabi_attribute 34, 1
  12              		.eabi_attribute 18, 4
  13              		.thumb
  14              		.syntax unified
  15              		.file	"ShiftRegPWM.c"
  16              		.text
  17              	.Ltext0:
  18              		.cfi_sections	.debug_frame
  19              		.section	.text.initShiftRegPWM,"ax",%progbits
  20              		.align	2
  21              		.global	initShiftRegPWM
  22              		.thumb
  23              		.thumb_func
  24              		.type	initShiftRegPWM, %function
  25              	initShiftRegPWM:
  26              	.LFB63:
  27              		.file 1 "ShiftRegPWM.c"
   1:ShiftRegPWM.c **** /* ========================================
   2:ShiftRegPWM.c ****  *
   3:ShiftRegPWM.c ****  * Copyright YOUR COMPANY, THE YEAR
   4:ShiftRegPWM.c ****  * All Rights Reserved
   5:ShiftRegPWM.c ****  * UNPUBLISHED, LICENSED SOFTWARE.
   6:ShiftRegPWM.c ****  *
   7:ShiftRegPWM.c ****  * CONFIDENTIAL AND PROPRIETARY INFORMATION
   8:ShiftRegPWM.c ****  * WHICH IS THE PROPERTY OF your company.
   9:ShiftRegPWM.c ****  *
  10:ShiftRegPWM.c ****  * ========================================
  11:ShiftRegPWM.c **** */
  12:ShiftRegPWM.c **** #include "ShiftRegPWM.h"
  13:ShiftRegPWM.c **** 
  14:ShiftRegPWM.c **** volatile uint8_t time = 0;
  15:ShiftRegPWM.c **** volatile uint8_t shiftRegData[RESOLUTION*SHIFT_REGISTERS] = {0};
  16:ShiftRegPWM.c **** 
  17:ShiftRegPWM.c **** void initShiftRegPWM()
  18:ShiftRegPWM.c **** {
  28              		.loc 1 18 0
  29              		.cfi_startproc
  30              		@ args = 0, pretend = 0, frame = 0
  31              		@ frame_needed = 0, uses_anonymous_args = 0
  32 0000 08B5     		push	{r3, lr}
  33              		.cfi_def_cfa_offset 8
  34              		.cfi_offset 3, -8
  35              		.cfi_offset 14, -4
  19:ShiftRegPWM.c ****     isr_update_leds_StartEx(updater_handler);
  36              		.loc 1 19 0
  37 0002 0448     		ldr	r0, .L3
  38 0004 FFF7FEFF 		bl	isr_update_leds_StartEx
ARM GAS  C:\Users\MARCUS~1\AppData\Local\Temp\cc7L5tIj.s 			page 2


  39              	.LVL0:
  20:ShiftRegPWM.c ****     SPIM_led_control_Start();
  40              		.loc 1 20 0
  41 0008 FFF7FEFF 		bl	SPIM_led_control_Start
  42              	.LVL1:
  21:ShiftRegPWM.c ****     Timer_led_updater_Start();
  43              		.loc 1 21 0
  44 000c FFF7FEFF 		bl	Timer_led_updater_Start
  45              	.LVL2:
  46 0010 08BD     		pop	{r3, pc}
  47              	.L4:
  48 0012 00BF     		.align	2
  49              	.L3:
  50 0014 00000000 		.word	updater_handler
  51              		.cfi_endproc
  52              	.LFE63:
  53              		.size	initShiftRegPWM, .-initShiftRegPWM
  54              		.global	__aeabi_i2d
  55              		.global	__aeabi_ddiv
  56              		.global	__aeabi_dmul
  57              		.global	__aeabi_d2uiz
  58              		.section	.text.setPin,"ax",%progbits
  59              		.align	2
  60              		.global	setPin
  61              		.thumb
  62              		.thumb_func
  63              		.type	setPin, %function
  64              	setPin:
  65              	.LFB64:
  22:ShiftRegPWM.c **** }
  23:ShiftRegPWM.c **** 
  24:ShiftRegPWM.c **** void setPin(uint8_t pin, uint8_t value)
  25:ShiftRegPWM.c **** {
  66              		.loc 1 25 0
  67              		.cfi_startproc
  68              		@ args = 0, pretend = 0, frame = 0
  69              		@ frame_needed = 0, uses_anonymous_args = 0
  70              	.LVL3:
  71 0000 F8B5     		push	{r3, r4, r5, r6, r7, lr}
  72              		.cfi_def_cfa_offset 24
  73              		.cfi_offset 3, -24
  74              		.cfi_offset 4, -20
  75              		.cfi_offset 5, -16
  76              		.cfi_offset 6, -12
  77              		.cfi_offset 7, -8
  78              		.cfi_offset 14, -4
  79 0002 0546     		mov	r5, r0
  26:ShiftRegPWM.c ****     value = (uint8_t) (value / 255.0 * RESOLUTION); //Scale value
  80              		.loc 1 26 0
  81 0004 0846     		mov	r0, r1
  82              	.LVL4:
  83 0006 FFF7FEFF 		bl	__aeabi_i2d
  84              	.LVL5:
  85 000a 15A3     		adr	r3, .L9
  86 000c D3E90023 		ldrd	r2, [r3]
  87 0010 FFF7FEFF 		bl	__aeabi_ddiv
  88              	.LVL6:
ARM GAS  C:\Users\MARCUS~1\AppData\Local\Temp\cc7L5tIj.s 			page 3


  89 0014 12A3     		adr	r3, .L9
  90 0016 D3E90023 		ldrd	r2, [r3]
  91 001a FFF7FEFF 		bl	__aeabi_dmul
  92              	.LVL7:
  93 001e FFF7FEFF 		bl	__aeabi_d2uiz
  94              	.LVL8:
  95 0022 C0B2     		uxtb	r0, r0
  96              	.LVL9:
  27:ShiftRegPWM.c ****     uint8_t shiftRegister = pin / 8; //8 pins per shift register
  97              		.loc 1 27 0
  98 0024 4FEAD50E 		lsr	lr, r5, #3
  99              	.LVL10:
 100              	.LBB2:
  28:ShiftRegPWM.c ****     for (int t = 0; t < RESOLUTION; ++t)
 101              		.loc 1 28 0
 102 0028 0024     		movs	r4, #0
 103 002a 15E0     		b	.L6
 104              	.LVL11:
 105              	.L7:
  29:ShiftRegPWM.c ****     {
  30:ShiftRegPWM.c ****       // set (pin % 8)th bit to (value > t)
  31:ShiftRegPWM.c ****       shiftRegData[t + shiftRegister * RESOLUTION] ^= (-(value > t) ^ shiftRegData[t + shiftRegiste
 106              		.loc 1 31 0 discriminator 3
 107 002c 8442     		cmp	r4, r0
 108 002e 4FF0FF33 		mov	r3, #-1
 109 0032 A8BF     		it	ge
 110 0034 0023     		movge	r3, #0
 111 0036 CEEB0E21 		rsb	r1, lr, lr, lsl #8
 112 003a 2144     		add	r1, r1, r4
 113 003c 0A4E     		ldr	r6, .L9+8
 114 003e 775C     		ldrb	r7, [r6, r1]	@ zero_extendqisi2
 115 0040 5F40     		eors	r7, r7, r3
 116 0042 05F00703 		and	r3, r5, #7
 117 0046 0122     		movs	r2, #1
 118 0048 02FA03F3 		lsl	r3, r2, r3
 119 004c 3B40     		ands	r3, r3, r7
 120 004e 725C     		ldrb	r2, [r6, r1]	@ zero_extendqisi2
 121 0050 5340     		eors	r3, r3, r2
 122 0052 DBB2     		uxtb	r3, r3
 123 0054 7354     		strb	r3, [r6, r1]
  28:ShiftRegPWM.c ****     for (int t = 0; t < RESOLUTION; ++t)
 124              		.loc 1 28 0 discriminator 3
 125 0056 0134     		adds	r4, r4, #1
 126              	.LVL12:
 127              	.L6:
  28:ShiftRegPWM.c ****     for (int t = 0; t < RESOLUTION; ++t)
 128              		.loc 1 28 0 is_stmt 0 discriminator 1
 129 0058 FE2C     		cmp	r4, #254
 130 005a E7DD     		ble	.L7
 131              	.LBE2:
  32:ShiftRegPWM.c ****     }
  33:ShiftRegPWM.c **** }
 132              		.loc 1 33 0 is_stmt 1
 133 005c F8BD     		pop	{r3, r4, r5, r6, r7, pc}
 134              	.LVL13:
 135              	.L10:
 136 005e 00BF     		.align	3
ARM GAS  C:\Users\MARCUS~1\AppData\Local\Temp\cc7L5tIj.s 			page 4


 137              	.L9:
 138 0060 00000000 		.word	0
 139 0064 00E06F40 		.word	1081073664
 140 0068 00000000 		.word	.LANCHOR0
 141              		.cfi_endproc
 142              	.LFE64:
 143              		.size	setPin, .-setPin
 144              		.section	.text.toggleLatchShiftReg,"ax",%progbits
 145              		.align	2
 146              		.global	toggleLatchShiftReg
 147              		.thumb
 148              		.thumb_func
 149              		.type	toggleLatchShiftReg, %function
 150              	toggleLatchShiftReg:
 151              	.LFB67:
  34:ShiftRegPWM.c **** 
  35:ShiftRegPWM.c **** CY_ISR(updater_handler)
  36:ShiftRegPWM.c **** {
  37:ShiftRegPWM.c ****     Pin_update_time_Write(1);
  38:ShiftRegPWM.c ****     update();
  39:ShiftRegPWM.c ****     Pin_update_time_Write(0);
  40:ShiftRegPWM.c **** }                   
  41:ShiftRegPWM.c **** 
  42:ShiftRegPWM.c **** void update()
  43:ShiftRegPWM.c **** {
  44:ShiftRegPWM.c ****     for (int i = SHIFT_REGISTERS - 1; i >= 0; i--)
  45:ShiftRegPWM.c ****     {
  46:ShiftRegPWM.c ****       SPIM_led_control_WriteTxData(shiftRegData[time + i * RESOLUTION]);
  47:ShiftRegPWM.c ****     }
  48:ShiftRegPWM.c ****     toggleLatchShiftReg();
  49:ShiftRegPWM.c ****     
  50:ShiftRegPWM.c ****     if (++time == RESOLUTION) {
  51:ShiftRegPWM.c ****       time = 0;
  52:ShiftRegPWM.c ****     }
  53:ShiftRegPWM.c ****     Timer_led_updater_ReadStatusRegister();
  54:ShiftRegPWM.c **** }
  55:ShiftRegPWM.c **** 
  56:ShiftRegPWM.c **** void toggleLatchShiftReg()
  57:ShiftRegPWM.c **** {
 152              		.loc 1 57 0
 153              		.cfi_startproc
 154              		@ args = 0, pretend = 0, frame = 0
 155              		@ frame_needed = 0, uses_anonymous_args = 0
 156 0000 08B5     		push	{r3, lr}
 157              		.cfi_def_cfa_offset 8
 158              		.cfi_offset 3, -8
 159              		.cfi_offset 14, -4
  58:ShiftRegPWM.c ****     Pin_latch_Write(0);
 160              		.loc 1 58 0
 161 0002 0020     		movs	r0, #0
 162 0004 FFF7FEFF 		bl	Pin_latch_Write
 163              	.LVL14:
  59:ShiftRegPWM.c ****     Pin_latch_Write(1);
 164              		.loc 1 59 0
 165 0008 0120     		movs	r0, #1
 166 000a FFF7FEFF 		bl	Pin_latch_Write
 167              	.LVL15:
ARM GAS  C:\Users\MARCUS~1\AppData\Local\Temp\cc7L5tIj.s 			page 5


 168 000e 08BD     		pop	{r3, pc}
 169              		.cfi_endproc
 170              	.LFE67:
 171              		.size	toggleLatchShiftReg, .-toggleLatchShiftReg
 172              		.section	.text.update,"ax",%progbits
 173              		.align	2
 174              		.global	update
 175              		.thumb
 176              		.thumb_func
 177              		.type	update, %function
 178              	update:
 179              	.LFB66:
  43:ShiftRegPWM.c ****     for (int i = SHIFT_REGISTERS - 1; i >= 0; i--)
 180              		.loc 1 43 0
 181              		.cfi_startproc
 182              		@ args = 0, pretend = 0, frame = 0
 183              		@ frame_needed = 0, uses_anonymous_args = 0
 184 0000 10B5     		push	{r4, lr}
 185              		.cfi_def_cfa_offset 8
 186              		.cfi_offset 4, -8
 187              		.cfi_offset 14, -4
 188              	.LVL16:
 189              	.LBB3:
  44:ShiftRegPWM.c ****     {
 190              		.loc 1 44 0
 191 0002 0124     		movs	r4, #1
 192 0004 09E0     		b	.L14
 193              	.LVL17:
 194              	.L15:
  46:ShiftRegPWM.c ****     }
 195              		.loc 1 46 0 discriminator 3
 196 0006 0F4A     		ldr	r2, .L18
 197 0008 92F8FE11 		ldrb	r1, [r2, #510]	@ zero_extendqisi2
 198 000c C4EB0423 		rsb	r3, r4, r4, lsl #8
 199 0010 0B44     		add	r3, r3, r1
 200 0012 D05C     		ldrb	r0, [r2, r3]	@ zero_extendqisi2
 201 0014 FFF7FEFF 		bl	SPIM_led_control_WriteTxData
 202              	.LVL18:
  44:ShiftRegPWM.c ****     {
 203              		.loc 1 44 0 discriminator 3
 204 0018 013C     		subs	r4, r4, #1
 205              	.LVL19:
 206              	.L14:
  44:ShiftRegPWM.c ****     {
 207              		.loc 1 44 0 is_stmt 0 discriminator 1
 208 001a 002C     		cmp	r4, #0
 209 001c F3DA     		bge	.L15
 210              	.LBE3:
  48:ShiftRegPWM.c ****     
 211              		.loc 1 48 0 is_stmt 1
 212 001e FFF7FEFF 		bl	toggleLatchShiftReg
 213              	.LVL20:
  50:ShiftRegPWM.c ****       time = 0;
 214              		.loc 1 50 0
 215 0022 084A     		ldr	r2, .L18
 216 0024 92F8FE31 		ldrb	r3, [r2, #510]	@ zero_extendqisi2
 217 0028 0133     		adds	r3, r3, #1
ARM GAS  C:\Users\MARCUS~1\AppData\Local\Temp\cc7L5tIj.s 			page 6


 218 002a DBB2     		uxtb	r3, r3
 219 002c 82F8FE31 		strb	r3, [r2, #510]
 220 0030 FF2B     		cmp	r3, #255
 221 0032 03D1     		bne	.L16
  51:ShiftRegPWM.c ****     }
 222              		.loc 1 51 0
 223 0034 0022     		movs	r2, #0
 224 0036 034B     		ldr	r3, .L18
 225 0038 83F8FE21 		strb	r2, [r3, #510]
 226              	.L16:
  53:ShiftRegPWM.c **** }
 227              		.loc 1 53 0
 228 003c FFF7FEFF 		bl	Timer_led_updater_ReadStatusRegister
 229              	.LVL21:
 230 0040 10BD     		pop	{r4, pc}
 231              	.LVL22:
 232              	.L19:
 233 0042 00BF     		.align	2
 234              	.L18:
 235 0044 00000000 		.word	.LANCHOR0
 236              		.cfi_endproc
 237              	.LFE66:
 238              		.size	update, .-update
 239              		.section	.text.updater_handler,"ax",%progbits
 240              		.align	2
 241              		.global	updater_handler
 242              		.thumb
 243              		.thumb_func
 244              		.type	updater_handler, %function
 245              	updater_handler:
 246              	.LFB65:
  36:ShiftRegPWM.c ****     Pin_update_time_Write(1);
 247              		.loc 1 36 0
 248              		.cfi_startproc
 249              		@ args = 0, pretend = 0, frame = 0
 250              		@ frame_needed = 0, uses_anonymous_args = 0
 251 0000 08B5     		push	{r3, lr}
 252              		.cfi_def_cfa_offset 8
 253              		.cfi_offset 3, -8
 254              		.cfi_offset 14, -4
  37:ShiftRegPWM.c ****     update();
 255              		.loc 1 37 0
 256 0002 0120     		movs	r0, #1
 257 0004 FFF7FEFF 		bl	Pin_update_time_Write
 258              	.LVL23:
  38:ShiftRegPWM.c ****     Pin_update_time_Write(0);
 259              		.loc 1 38 0
 260 0008 FFF7FEFF 		bl	update
 261              	.LVL24:
  39:ShiftRegPWM.c **** }                   
 262              		.loc 1 39 0
 263 000c 0020     		movs	r0, #0
 264 000e FFF7FEFF 		bl	Pin_update_time_Write
 265              	.LVL25:
 266 0012 08BD     		pop	{r3, pc}
 267              		.cfi_endproc
 268              	.LFE65:
ARM GAS  C:\Users\MARCUS~1\AppData\Local\Temp\cc7L5tIj.s 			page 7


 269              		.size	updater_handler, .-updater_handler
 270              		.global	shiftRegData
 271              		.global	time
 272              		.bss
 273              		.align	2
 274              		.set	.LANCHOR0,. + 0
 275              		.type	shiftRegData, %object
 276              		.size	shiftRegData, 510
 277              	shiftRegData:
 278 0000 00000000 		.space	510
 278      00000000 
 278      00000000 
 278      00000000 
 278      00000000 
 279              		.type	time, %object
 280              		.size	time, 1
 281              	time:
 282 01fe 00       		.space	1
 283              		.text
 284              	.Letext0:
 285              		.file 2 "f:\\marcus\\software\\psoc creator\\4.2\\psoc creator\\import\\gnu\\arm\\5.4.1\\arm-none-
 286              		.file 3 "f:\\marcus\\software\\psoc creator\\4.2\\psoc creator\\import\\gnu\\arm\\5.4.1\\arm-none-
 287              		.file 4 "Generated_Source\\PSoC5/core_cm3.h"
 288              		.file 5 "Generated_Source\\PSoC5/isr_update_leds.h"
 289              		.file 6 "Generated_Source\\PSoC5/SPIM_led_control.h"
 290              		.file 7 "Generated_Source\\PSoC5/Timer_led_updater.h"
 291              		.file 8 "Generated_Source\\PSoC5/Pin_latch.h"
 292              		.file 9 "Generated_Source\\PSoC5/Pin_update_time.h"