ARM GAS  C:\Users\nikol\AppData\Local\Temp\ccJpIITQ.s 			page 1


   1              		.syntax unified
   2              		.cpu cortex-m3
   3              		.fpu softvfp
   4              		.eabi_attribute 20, 1
   5              		.eabi_attribute 21, 1
   6              		.eabi_attribute 23, 3
   7              		.eabi_attribute 24, 1
   8              		.eabi_attribute 25, 1
   9              		.eabi_attribute 26, 1
  10              		.eabi_attribute 30, 1
  11              		.eabi_attribute 34, 1
  12              		.eabi_attribute 18, 4
  13              		.thumb
  14              		.syntax unified
  15              		.file	"CupLight_IF.c"
  16              		.text
  17              	.Ltext0:
  18              		.cfi_sections	.debug_frame
  19              		.section	.text.controlLight,"ax",%progbits
  20              		.align	2
  21              		.global	controlLight
  22              		.thumb
  23              		.thumb_func
  24              		.type	controlLight, %function
  25              	controlLight:
  26              	.LFB64:
  27              		.file 1 "CupLight_IF.c"
   1:CupLight_IF.c **** /* ========================================
   2:CupLight_IF.c ****  *
   3:CupLight_IF.c ****  * Copyright YOUR COMPANY, THE YEAR
   4:CupLight_IF.c ****  * All Rights Reserved
   5:CupLight_IF.c ****  * UNPUBLISHED, LICENSED SOFTWARE.
   6:CupLight_IF.c ****  *
   7:CupLight_IF.c ****  * CONFIDENTIAL AND PROPRIETARY INFORMATION
   8:CupLight_IF.c ****  * WHICH IS THE PROPERTY OF your company.
   9:CupLight_IF.c ****  *
  10:CupLight_IF.c ****  * ========================================
  11:CupLight_IF.c **** */
  12:CupLight_IF.c **** #include "CupLight_IF.h"
  13:CupLight_IF.c **** 
  14:CupLight_IF.c **** volatile uint8_t NUMLEDS = 8*SHIFT_REGISTERS/3;
  15:CupLight_IF.c **** 
  16:CupLight_IF.c **** void controlLight(uint8_t nr, color_t color)
  17:CupLight_IF.c **** {
  28              		.loc 1 17 0
  29              		.cfi_startproc
  30              		@ args = 0, pretend = 0, frame = 8
  31              		@ frame_needed = 0, uses_anonymous_args = 0
  32              	.LVL0:
  33 0000 10B5     		push	{r4, lr}
  34              		.cfi_def_cfa_offset 8
  35              		.cfi_offset 4, -8
  36              		.cfi_offset 14, -4
  37 0002 82B0     		sub	sp, sp, #8
  38              		.cfi_def_cfa_offset 16
  39 0004 0191     		str	r1, [sp, #4]
  18:CupLight_IF.c ****     if (nr < NUMLEDS)
ARM GAS  C:\Users\nikol\AppData\Local\Temp\ccJpIITQ.s 			page 2


  40              		.loc 1 18 0
  41 0006 104B     		ldr	r3, .L4
  42 0008 1B78     		ldrb	r3, [r3]	@ zero_extendqisi2
  43 000a DBB2     		uxtb	r3, r3
  44 000c 8342     		cmp	r3, r0
  45 000e 19D9     		bls	.L1
  46              	.LBB2:
  19:CupLight_IF.c ****     {
  20:CupLight_IF.c ****         uint8_t shiftRegPos = 3*nr;
  47              		.loc 1 20 0
  48 0010 00EB4000 		add	r0, r0, r0, lsl #1
  49              	.LVL1:
  50 0014 C4B2     		uxtb	r4, r0
  51              	.LVL2:
  21:CupLight_IF.c ****         setPin(shiftRegPos,~color.Red);
  52              		.loc 1 21 0
  53 0016 9DF80410 		ldrb	r1, [sp, #4]	@ zero_extendqisi2
  54 001a C943     		mvns	r1, r1
  55 001c C9B2     		uxtb	r1, r1
  56 001e 2046     		mov	r0, r4
  57 0020 FFF7FEFF 		bl	setPin
  58              	.LVL3:
  22:CupLight_IF.c ****         setPin(shiftRegPos+1,~color.Green);
  59              		.loc 1 22 0
  60 0024 9DF80510 		ldrb	r1, [sp, #5]	@ zero_extendqisi2
  61 0028 C943     		mvns	r1, r1
  62 002a 601C     		adds	r0, r4, #1
  63 002c C9B2     		uxtb	r1, r1
  64 002e C0B2     		uxtb	r0, r0
  65 0030 FFF7FEFF 		bl	setPin
  66              	.LVL4:
  23:CupLight_IF.c ****         setPin(shiftRegPos+2,~color.Blue);
  67              		.loc 1 23 0
  68 0034 9DF80610 		ldrb	r1, [sp, #6]	@ zero_extendqisi2
  69 0038 C943     		mvns	r1, r1
  70 003a A01C     		adds	r0, r4, #2
  71 003c C9B2     		uxtb	r1, r1
  72 003e C0B2     		uxtb	r0, r0
  73 0040 FFF7FEFF 		bl	setPin
  74              	.LVL5:
  75              	.L1:
  76              	.LBE2:
  24:CupLight_IF.c ****     }
  25:CupLight_IF.c **** }
  77              		.loc 1 25 0
  78 0044 02B0     		add	sp, sp, #8
  79              		.cfi_def_cfa_offset 8
  80              		@ sp needed
  81 0046 10BD     		pop	{r4, pc}
  82              	.L5:
  83              		.align	2
  84              	.L4:
  85 0048 00000000 		.word	.LANCHOR0
  86              		.cfi_endproc
  87              	.LFE64:
  88              		.size	controlLight, .-controlLight
  89              		.section	.text.controlAllLights,"ax",%progbits
ARM GAS  C:\Users\nikol\AppData\Local\Temp\ccJpIITQ.s 			page 3


  90              		.align	2
  91              		.global	controlAllLights
  92              		.thumb
  93              		.thumb_func
  94              		.type	controlAllLights, %function
  95              	controlAllLights:
  96              	.LFB65:
  26:CupLight_IF.c **** 
  27:CupLight_IF.c **** void controlAllLights(color_t color)
  28:CupLight_IF.c **** {
  97              		.loc 1 28 0
  98              		.cfi_startproc
  99              		@ args = 0, pretend = 0, frame = 8
 100              		@ frame_needed = 0, uses_anonymous_args = 0
 101 0000 10B5     		push	{r4, lr}
 102              		.cfi_def_cfa_offset 8
 103              		.cfi_offset 4, -8
 104              		.cfi_offset 14, -4
 105 0002 82B0     		sub	sp, sp, #8
 106              		.cfi_def_cfa_offset 16
 107 0004 0190     		str	r0, [sp, #4]
 108              	.LVL6:
 109              	.LBB3:
  29:CupLight_IF.c ****     for (uint8_t i = 0; i < NUMLEDS; i++){
 110              		.loc 1 29 0
 111 0006 0024     		movs	r4, #0
 112 0008 05E0     		b	.L7
 113              	.LVL7:
 114              	.L8:
  30:CupLight_IF.c ****          controlLight(i,color);
 115              		.loc 1 30 0 discriminator 3
 116 000a 0199     		ldr	r1, [sp, #4]
 117 000c 2046     		mov	r0, r4
 118 000e FFF7FEFF 		bl	controlLight
 119              	.LVL8:
  29:CupLight_IF.c ****     for (uint8_t i = 0; i < NUMLEDS; i++){
 120              		.loc 1 29 0 discriminator 3
 121 0012 0134     		adds	r4, r4, #1
 122              	.LVL9:
 123 0014 E4B2     		uxtb	r4, r4
 124              	.LVL10:
 125              	.L7:
  29:CupLight_IF.c ****     for (uint8_t i = 0; i < NUMLEDS; i++){
 126              		.loc 1 29 0 is_stmt 0 discriminator 1
 127 0016 034B     		ldr	r3, .L10
 128 0018 1B78     		ldrb	r3, [r3]	@ zero_extendqisi2
 129 001a DBB2     		uxtb	r3, r3
 130 001c 9C42     		cmp	r4, r3
 131 001e F4D3     		bcc	.L8
 132              	.LBE3:
  31:CupLight_IF.c ****     }
  32:CupLight_IF.c **** }
 133              		.loc 1 32 0 is_stmt 1
 134 0020 02B0     		add	sp, sp, #8
 135              		.cfi_def_cfa_offset 8
 136              		@ sp needed
 137 0022 10BD     		pop	{r4, pc}
ARM GAS  C:\Users\nikol\AppData\Local\Temp\ccJpIITQ.s 			page 4


 138              	.LVL11:
 139              	.L11:
 140              		.align	2
 141              	.L10:
 142 0024 00000000 		.word	.LANCHOR0
 143              		.cfi_endproc
 144              	.LFE65:
 145              		.size	controlAllLights, .-controlAllLights
 146              		.global	NUMLEDS
 147              		.data
 148              		.set	.LANCHOR0,. + 0
 149              		.type	NUMLEDS, %object
 150              		.size	NUMLEDS, 1
 151              	NUMLEDS:
 152 0000 08       		.byte	8
 153              		.text
 154              	.Letext0:
 155              		.file 2 "c:\\program files (x86)\\cypress\\psoc creator\\4.2\\psoc creator\\import\\gnu\\arm\\5.4.
 156              		.file 3 "c:\\program files (x86)\\cypress\\psoc creator\\4.2\\psoc creator\\import\\gnu\\arm\\5.4.
 157              		.file 4 "CupLight_IF.h"
 158              		.file 5 "Generated_Source\\PSoC5/core_cm3.h"
 159              		.file 6 "ShiftRegPWM.h"