ARM GAS  C:\Users\nikol\AppData\Local\Temp\ccf8Hrai.s 			page 1


   1              		.syntax unified
   2              		.cpu cortex-m3
   3              		.fpu softvfp
   4              		.eabi_attribute 20, 1
   5              		.eabi_attribute 21, 1
   6              		.eabi_attribute 23, 3
   7              		.eabi_attribute 24, 1
   8              		.eabi_attribute 25, 1
   9              		.eabi_attribute 26, 1
  10              		.eabi_attribute 30, 1
  11              		.eabi_attribute 34, 1
  12              		.eabi_attribute 18, 4
  13              		.thumb
  14              		.syntax unified
  15              		.file	"CupSensor_IF.c"
  16              		.text
  17              	.Ltext0:
  18              		.cfi_sections	.debug_frame
  19              		.section	.text.CupSensor_IF_init,"ax",%progbits
  20              		.align	2
  21              		.global	CupSensor_IF_init
  22              		.thumb
  23              		.thumb_func
  24              		.type	CupSensor_IF_init, %function
  25              	CupSensor_IF_init:
  26              	.LFB64:
  27              		.file 1 "CupSensor_IF.c"
   1:CupSensor_IF.c **** /* ========================================
   2:CupSensor_IF.c ****  *
   3:CupSensor_IF.c ****  * Copyright YOUR COMPANY, THE YEAR
   4:CupSensor_IF.c ****  * All Rights Reserved
   5:CupSensor_IF.c ****  * UNPUBLISHED, LICENSED SOFTWARE.
   6:CupSensor_IF.c ****  *
   7:CupSensor_IF.c ****  * CONFIDENTIAL AND PROPRIETARY INFORMATION
   8:CupSensor_IF.c ****  * WHICH IS THE PROPERTY OF your company.
   9:CupSensor_IF.c ****  *
  10:CupSensor_IF.c ****  * ========================================
  11:CupSensor_IF.c **** */
  12:CupSensor_IF.c **** 
  13:CupSensor_IF.c **** #include "CupSensor_IF.h"
  14:CupSensor_IF.c **** 
  15:CupSensor_IF.c **** extern void updateCupStatus(uint8_t status);
  16:CupSensor_IF.c **** extern void updateHitStatus(uint8_t status);
  17:CupSensor_IF.c **** 
  18:CupSensor_IF.c **** void CupSensor_IF_init()
  19:CupSensor_IF.c **** {
  28              		.loc 1 19 0
  29              		.cfi_startproc
  30              		@ args = 0, pretend = 0, frame = 0
  31              		@ frame_needed = 0, uses_anonymous_args = 0
  32 0000 08B5     		push	{r3, lr}
  33              		.cfi_def_cfa_offset 8
  34              		.cfi_offset 3, -8
  35              		.cfi_offset 14, -4
  20:CupSensor_IF.c ****     CupSensor_Start();
  36              		.loc 1 20 0
  37 0002 FFF7FEFF 		bl	CupSensor_Start
ARM GAS  C:\Users\nikol\AppData\Local\Temp\ccf8Hrai.s 			page 2


  38              	.LVL0:
  21:CupSensor_IF.c ****     CupSensor_statusCallback(&updateCupStatus);
  39              		.loc 1 21 0
  40 0006 0348     		ldr	r0, .L3
  41 0008 FFF7FEFF 		bl	CupSensor_statusCallback
  42              	.LVL1:
  22:CupSensor_IF.c ****     CupSensor_hitStatusCallback(&updateHitStatus);    
  43              		.loc 1 22 0
  44 000c 0248     		ldr	r0, .L3+4
  45 000e FFF7FEFF 		bl	CupSensor_hitStatusCallback
  46              	.LVL2:
  47 0012 08BD     		pop	{r3, pc}
  48              	.L4:
  49              		.align	2
  50              	.L3:
  51 0014 00000000 		.word	updateCupStatus
  52 0018 00000000 		.word	updateHitStatus
  53              		.cfi_endproc
  54              	.LFE64:
  55              		.size	CupSensor_IF_init, .-CupSensor_IF_init
  56              		.section	.text.getStatus,"ax",%progbits
  57              		.align	2
  58              		.global	getStatus
  59              		.thumb
  60              		.thumb_func
  61              		.type	getStatus, %function
  62              	getStatus:
  63              	.LFB65:
  23:CupSensor_IF.c **** }
  24:CupSensor_IF.c **** 
  25:CupSensor_IF.c **** uint8_t getStatus()
  26:CupSensor_IF.c **** {
  64              		.loc 1 26 0
  65              		.cfi_startproc
  66              		@ args = 0, pretend = 0, frame = 0
  67              		@ frame_needed = 0, uses_anonymous_args = 0
  68 0000 08B5     		push	{r3, lr}
  69              		.cfi_def_cfa_offset 8
  70              		.cfi_offset 3, -8
  71              		.cfi_offset 14, -4
  27:CupSensor_IF.c ****     return CupSensor_getStatus();
  72              		.loc 1 27 0
  73 0002 FFF7FEFF 		bl	CupSensor_getStatus
  74              	.LVL3:
  28:CupSensor_IF.c **** }
  75              		.loc 1 28 0
  76 0006 08BD     		pop	{r3, pc}
  77              		.cfi_endproc
  78              	.LFE65:
  79              		.size	getStatus, .-getStatus
  80              		.section	.text.getHitStatus,"ax",%progbits
  81              		.align	2
  82              		.global	getHitStatus
  83              		.thumb
  84              		.thumb_func
  85              		.type	getHitStatus, %function
  86              	getHitStatus:
ARM GAS  C:\Users\nikol\AppData\Local\Temp\ccf8Hrai.s 			page 3


  87              	.LFB66:
  29:CupSensor_IF.c **** 
  30:CupSensor_IF.c **** uint8_t getHitStatus()
  31:CupSensor_IF.c **** {
  88              		.loc 1 31 0
  89              		.cfi_startproc
  90              		@ args = 0, pretend = 0, frame = 0
  91              		@ frame_needed = 0, uses_anonymous_args = 0
  92 0000 08B5     		push	{r3, lr}
  93              		.cfi_def_cfa_offset 8
  94              		.cfi_offset 3, -8
  95              		.cfi_offset 14, -4
  32:CupSensor_IF.c ****     return CupSensor_getHitStatus();
  96              		.loc 1 32 0
  97 0002 FFF7FEFF 		bl	CupSensor_getHitStatus
  98              	.LVL4:
  33:CupSensor_IF.c **** }
  99              		.loc 1 33 0
 100 0006 08BD     		pop	{r3, pc}
 101              		.cfi_endproc
 102              	.LFE66:
 103              		.size	getHitStatus, .-getHitStatus
 104              		.text
 105              	.Letext0:
 106              		.file 2 "c:\\program files (x86)\\cypress\\psoc creator\\4.2\\psoc creator\\import\\gnu\\arm\\5.4.
 107              		.file 3 "c:\\program files (x86)\\cypress\\psoc creator\\4.2\\psoc creator\\import\\gnu\\arm\\5.4.
 108              		.file 4 "Generated_Source\\PSoC5/CupSensor_CupSensor.h"
 109              		.file 5 "Generated_Source\\PSoC5/core_cm3.h"