ARM GAS  C:\Users\nikol\AppData\Local\Temp\ccVL78Hm.s 			page 1


   1              		.syntax unified
   2              		.cpu cortex-m3
   3              		.fpu softvfp
   4              		.eabi_attribute 20, 1
   5              		.eabi_attribute 21, 1
   6              		.eabi_attribute 23, 3
   7              		.eabi_attribute 24, 1
   8              		.eabi_attribute 25, 1
   9              		.eabi_attribute 26, 1
  10              		.eabi_attribute 30, 1
  11              		.eabi_attribute 34, 1
  12              		.eabi_attribute 18, 4
  13              		.thumb
  14              		.syntax unified
  15              		.file	"CupSensor_CupSensor.c"
  16              		.text
  17              	.Ltext0:
  18              		.cfi_sections	.debug_frame
  19              		.section	.text.newValueInterruptHandler,"ax",%progbits
  20              		.align	2
  21              		.global	newValueInterruptHandler
  22              		.thumb
  23              		.thumb_func
  24              		.type	newValueInterruptHandler, %function
  25              	newValueInterruptHandler:
  26              	.LFB64:
  27              		.file 1 "Generated_Source\\PSoC5\\CupSensor_CupSensor.c"
   1:Generated_Source\PSoC5/CupSensor_CupSensor.c **** /* ========================================
   2:Generated_Source\PSoC5/CupSensor_CupSensor.c ****  *
   3:Generated_Source\PSoC5/CupSensor_CupSensor.c ****  * Copyright YOUR COMPANY, THE YEAR
   4:Generated_Source\PSoC5/CupSensor_CupSensor.c ****  * All Rights Reserved
   5:Generated_Source\PSoC5/CupSensor_CupSensor.c ****  * UNPUBLISHED, LICENSED SOFTWARE.
   6:Generated_Source\PSoC5/CupSensor_CupSensor.c ****  *
   7:Generated_Source\PSoC5/CupSensor_CupSensor.c ****  * CONFIDENTIAL AND PROPRIETARY INFORMATION
   8:Generated_Source\PSoC5/CupSensor_CupSensor.c ****  * WHICH IS THE PROPERTY OF your company.
   9:Generated_Source\PSoC5/CupSensor_CupSensor.c ****  *
  10:Generated_Source\PSoC5/CupSensor_CupSensor.c ****  * ========================================
  11:Generated_Source\PSoC5/CupSensor_CupSensor.c **** */
  12:Generated_Source\PSoC5/CupSensor_CupSensor.c **** #include <stdint.h>
  13:Generated_Source\PSoC5/CupSensor_CupSensor.c **** #include <stdio.h>
  14:Generated_Source\PSoC5/CupSensor_CupSensor.c **** #include <project.h>
  15:Generated_Source\PSoC5/CupSensor_CupSensor.c **** #include "GameController.h" 
  16:Generated_Source\PSoC5/CupSensor_CupSensor.c **** 
  17:Generated_Source\PSoC5/CupSensor_CupSensor.c **** #define SAMPLES_PER_SENSOR 90 // Number of samples to make from sensor before changing to the next.
  18:Generated_Source\PSoC5/CupSensor_CupSensor.c **** 
  19:Generated_Source\PSoC5/CupSensor_CupSensor.c **** void (*CupSensor_status_callback)(uint8_t);
  20:Generated_Source\PSoC5/CupSensor_CupSensor.c **** void (*CupSensor_hit_status_callback)(uint8_t);
  21:Generated_Source\PSoC5/CupSensor_CupSensor.c **** 
  22:Generated_Source\PSoC5/CupSensor_CupSensor.c **** 
  23:Generated_Source\PSoC5/CupSensor_CupSensor.c **** struct CupSensorUnit sensors[6] = 
  24:Generated_Source\PSoC5/CupSensor_CupSensor.c **** {
  25:Generated_Source\PSoC5/CupSensor_CupSensor.c ****     {
  26:Generated_Source\PSoC5/CupSensor_CupSensor.c ****     .placed_trigger = 11, // The value above baseline where the sensor changes to PLACED state
  27:Generated_Source\PSoC5/CupSensor_CupSensor.c ****     .removed_trigger = 8, // The value above baseline where the sensor shanges to NOT_PLACED state
  28:Generated_Source\PSoC5/CupSensor_CupSensor.c ****     .hit_trigger = 1.65f, //(hit trigger value)/(placed_baseline).
  29:Generated_Source\PSoC5/CupSensor_CupSensor.c ****     .hit_lower_threshold = 1.0f   
  30:Generated_Source\PSoC5/CupSensor_CupSensor.c ****     },
ARM GAS  C:\Users\nikol\AppData\Local\Temp\ccVL78Hm.s 			page 2


  31:Generated_Source\PSoC5/CupSensor_CupSensor.c ****     {
  32:Generated_Source\PSoC5/CupSensor_CupSensor.c ****     .placed_trigger = 11, // The value above baseline where the sensor changes to PLACED state
  33:Generated_Source\PSoC5/CupSensor_CupSensor.c ****     .removed_trigger = 8, // The value above baseline where the sensor shanges to NOT_PLACED state
  34:Generated_Source\PSoC5/CupSensor_CupSensor.c ****     .hit_trigger = 1.65f, //(hit trigger value)/(placed_baseline).
  35:Generated_Source\PSoC5/CupSensor_CupSensor.c ****     .hit_lower_threshold = 1.0f   
  36:Generated_Source\PSoC5/CupSensor_CupSensor.c ****     },
  37:Generated_Source\PSoC5/CupSensor_CupSensor.c ****     {
  38:Generated_Source\PSoC5/CupSensor_CupSensor.c ****     .placed_trigger = 11, // The value above baseline where the sensor changes to PLACED state
  39:Generated_Source\PSoC5/CupSensor_CupSensor.c ****     .removed_trigger = 8, // The value above baseline where the sensor shanges to NOT_PLACED state
  40:Generated_Source\PSoC5/CupSensor_CupSensor.c ****     .hit_trigger = 1.65f, //(hit trigger value)/(placed_baseline).
  41:Generated_Source\PSoC5/CupSensor_CupSensor.c ****     .hit_lower_threshold = 1.0f   
  42:Generated_Source\PSoC5/CupSensor_CupSensor.c ****     },
  43:Generated_Source\PSoC5/CupSensor_CupSensor.c ****     {
  44:Generated_Source\PSoC5/CupSensor_CupSensor.c ****     .placed_trigger = 11, // The value above baseline where the sensor changes to PLACED state
  45:Generated_Source\PSoC5/CupSensor_CupSensor.c ****     .removed_trigger = 8, // The value above baseline where the sensor shanges to NOT_PLACED state
  46:Generated_Source\PSoC5/CupSensor_CupSensor.c ****     .hit_trigger = 1.65f, //(hit trigger value)/(placed_baseline).
  47:Generated_Source\PSoC5/CupSensor_CupSensor.c ****     .hit_lower_threshold = 1.0f   
  48:Generated_Source\PSoC5/CupSensor_CupSensor.c ****     },
  49:Generated_Source\PSoC5/CupSensor_CupSensor.c ****     {
  50:Generated_Source\PSoC5/CupSensor_CupSensor.c ****     .placed_trigger = 11, // The value above baseline where the sensor changes to PLACED state
  51:Generated_Source\PSoC5/CupSensor_CupSensor.c ****     .removed_trigger = 8, // The value above baseline where the sensor shanges to NOT_PLACED state
  52:Generated_Source\PSoC5/CupSensor_CupSensor.c ****     .hit_trigger = 1.65f, //(hit trigger value)/(placed_baseline).
  53:Generated_Source\PSoC5/CupSensor_CupSensor.c ****     .hit_lower_threshold = 1.0f   
  54:Generated_Source\PSoC5/CupSensor_CupSensor.c ****     },
  55:Generated_Source\PSoC5/CupSensor_CupSensor.c ****     {
  56:Generated_Source\PSoC5/CupSensor_CupSensor.c ****     .placed_trigger = 11, // The value above baseline where the sensor changes to PLACED state
  57:Generated_Source\PSoC5/CupSensor_CupSensor.c ****     .removed_trigger = 8, // The value above baseline where the sensor shanges to NOT_PLACED state
  58:Generated_Source\PSoC5/CupSensor_CupSensor.c ****     .hit_trigger = 1.65f, //(hit trigger value)/(placed_baseline).
  59:Generated_Source\PSoC5/CupSensor_CupSensor.c ****     .hit_lower_threshold = 1.0f   
  60:Generated_Source\PSoC5/CupSensor_CupSensor.c ****     }
  61:Generated_Source\PSoC5/CupSensor_CupSensor.c **** };
  62:Generated_Source\PSoC5/CupSensor_CupSensor.c **** 
  63:Generated_Source\PSoC5/CupSensor_CupSensor.c **** 
  64:Generated_Source\PSoC5/CupSensor_CupSensor.c **** 
  65:Generated_Source\PSoC5/CupSensor_CupSensor.c **** int16_t V_sample[1];
  66:Generated_Source\PSoC5/CupSensor_CupSensor.c **** uint8_t CupSensor_cupStatus = 0;
  67:Generated_Source\PSoC5/CupSensor_CupSensor.c **** uint8_t CupSensor_hitStatus = 0;
  68:Generated_Source\PSoC5/CupSensor_CupSensor.c **** 
  69:Generated_Source\PSoC5/CupSensor_CupSensor.c **** char buffer[256];
  70:Generated_Source\PSoC5/CupSensor_CupSensor.c **** char uartSensorBuffer[256];
  71:Generated_Source\PSoC5/CupSensor_CupSensor.c **** CY_ISR(newValueInterruptHandler)
  72:Generated_Source\PSoC5/CupSensor_CupSensor.c **** {
  28              		.loc 1 72 0
  29              		.cfi_startproc
  30              		@ args = 0, pretend = 0, frame = 0
  31              		@ frame_needed = 0, uses_anonymous_args = 0
  32 0000 F8B5     		push	{r3, r4, r5, r6, r7, lr}
  33              		.cfi_def_cfa_offset 24
  34              		.cfi_offset 3, -24
  35              		.cfi_offset 4, -20
  36              		.cfi_offset 5, -16
  37              		.cfi_offset 6, -12
  38              		.cfi_offset 7, -8
  39              		.cfi_offset 14, -4
  73:Generated_Source\PSoC5/CupSensor_CupSensor.c ****     Test_time_pin_Write(1);
  40              		.loc 1 73 0
  41 0002 0120     		movs	r0, #1
ARM GAS  C:\Users\nikol\AppData\Local\Temp\ccVL78Hm.s 			page 3


  42 0004 FFF7FEFF 		bl	Test_time_pin_Write
  43              	.LVL0:
  74:Generated_Source\PSoC5/CupSensor_CupSensor.c ****     
  75:Generated_Source\PSoC5/CupSensor_CupSensor.c ****     uint8_t regValue = CupSensor_Control_Reg_Led_Read(); 
  44              		.loc 1 75 0
  45 0008 FFF7FEFF 		bl	CupSensor_Control_Reg_Led_Read
  46              	.LVL1:
  47 000c 0446     		mov	r4, r0
  48              	.LVL2:
  76:Generated_Source\PSoC5/CupSensor_CupSensor.c ****     if(regValue + 1>5) CupSensor_Control_Reg_Led_Write(0);
  49              		.loc 1 76 0
  50 000e 431C     		adds	r3, r0, #1
  51 0010 052B     		cmp	r3, #5
  52 0012 03DD     		ble	.L2
  53              		.loc 1 76 0 is_stmt 0 discriminator 1
  54 0014 0020     		movs	r0, #0
  55              	.LVL3:
  56 0016 FFF7FEFF 		bl	CupSensor_Control_Reg_Led_Write
  57              	.LVL4:
  58 001a 03E0     		b	.L3
  59              	.LVL5:
  60              	.L2:
  77:Generated_Source\PSoC5/CupSensor_CupSensor.c ****     else CupSensor_Control_Reg_Led_Write(regValue + 1);
  61              		.loc 1 77 0 is_stmt 1
  62 001c 0130     		adds	r0, r0, #1
  63              	.LVL6:
  64 001e C0B2     		uxtb	r0, r0
  65 0020 FFF7FEFF 		bl	CupSensor_Control_Reg_Led_Write
  66              	.LVL7:
  67              	.L3:
  78:Generated_Source\PSoC5/CupSensor_CupSensor.c ****     
  79:Generated_Source\PSoC5/CupSensor_CupSensor.c ****     if(V_sample[0] >= 0)
  68              		.loc 1 79 0
  69 0024 2F4B     		ldr	r3, .L11
  70 0026 B3F90010 		ldrsh	r1, [r3]
  71 002a 0029     		cmp	r1, #0
  72 002c 55DB     		blt	.L4
  73              	.LBB2:
  80:Generated_Source\PSoC5/CupSensor_CupSensor.c ****     {
  81:Generated_Source\PSoC5/CupSensor_CupSensor.c ****         
  82:Generated_Source\PSoC5/CupSensor_CupSensor.c ****         uint8_t sampleValue = ((uint8_t)(V_sample[0]>>7)); //MSB is used to for sign, it is therefo
  74              		.loc 1 82 0
  75 002e C1F3C715 		ubfx	r5, r1, #7, #8
  76              	.LVL8:
  83:Generated_Source\PSoC5/CupSensor_CupSensor.c **** 
  84:Generated_Source\PSoC5/CupSensor_CupSensor.c ****         if (regValue == 1){
  77              		.loc 1 84 0
  78 0032 012C     		cmp	r4, #1
  79 0034 02D1     		bne	.L5
  85:Generated_Source\PSoC5/CupSensor_CupSensor.c ****             CupSensor_VDAC8_SetValue(sampleValue);
  80              		.loc 1 85 0
  81 0036 2846     		mov	r0, r5
  82 0038 FFF7FEFF 		bl	CupSensor_VDAC8_SetValue
  83              	.LVL9:
  84              	.L5:
  86:Generated_Source\PSoC5/CupSensor_CupSensor.c ****         }
  87:Generated_Source\PSoC5/CupSensor_CupSensor.c ****         CUP_STATE oldState = sensors[regValue].state;
ARM GAS  C:\Users\nikol\AppData\Local\Temp\ccVL78Hm.s 			page 4


  88:Generated_Source\PSoC5/CupSensor_CupSensor.c ****         uint8_t oldStatus = CupSensor_cupStatus;
  89:Generated_Source\PSoC5/CupSensor_CupSensor.c ****         if(CupSensorUnit_insertReading(&(sensors[regValue]), sampleValue))
  85              		.loc 1 89 0
  86 003c 2946     		mov	r1, r5
  87 003e 40F63C00 		movw	r0, #2108
  88 0042 294B     		ldr	r3, .L11+4
  89 0044 00FB0430 		mla	r0, r0, r4, r3
  90 0048 FFF7FEFF 		bl	CupSensorUnit_insertReading
  91              	.LVL10:
  92 004c 0028     		cmp	r0, #0
  93 004e 44D0     		beq	.L4
  90:Generated_Source\PSoC5/CupSensor_CupSensor.c ****         {
  91:Generated_Source\PSoC5/CupSensor_CupSensor.c ****             //State changed
  92:Generated_Source\PSoC5/CupSensor_CupSensor.c ****             switch(sensors[regValue].state){
  94              		.loc 1 92 0
  95 0050 40F63C03 		movw	r3, #2108
  96 0054 03FB04F3 		mul	r3, r3, r4
  97 0058 234A     		ldr	r2, .L11+4
  98 005a D35C     		ldrb	r3, [r2, r3]	@ zero_extendqisi2
  99 005c 022B     		cmp	r3, #2
 100 005e 04D0     		beq	.L6
 101 0060 042B     		cmp	r3, #4
 102 0062 2FD0     		beq	.L7
 103 0064 002B     		cmp	r3, #0
 104 0066 38D1     		bne	.L4
 105 0068 0AE0     		b	.L8
 106              	.L6:
  93:Generated_Source\PSoC5/CupSensor_CupSensor.c ****                 case PLACED:
  94:Generated_Source\PSoC5/CupSensor_CupSensor.c ****                 {
  95:Generated_Source\PSoC5/CupSensor_CupSensor.c ****                     CupSensor_cupStatus |= 1<<regValue;
 107              		.loc 1 95 0
 108 006a 0120     		movs	r0, #1
 109 006c 00FA04F4 		lsl	r4, r0, r4
 110 0070 1E4B     		ldr	r3, .L11+8
 111 0072 1878     		ldrb	r0, [r3]	@ zero_extendqisi2
 112 0074 2043     		orrs	r0, r0, r4
 113 0076 C0B2     		uxtb	r0, r0
 114 0078 1870     		strb	r0, [r3]
  96:Generated_Source\PSoC5/CupSensor_CupSensor.c ****                     //(*CupSensor_status_callback)(CupSensor_cupStatus);
  97:Generated_Source\PSoC5/CupSensor_CupSensor.c ****                     updateCupStatus(CupSensor_cupStatus);
 115              		.loc 1 97 0
 116 007a FFF7FEFF 		bl	updateCupStatus
 117              	.LVL11:
  98:Generated_Source\PSoC5/CupSensor_CupSensor.c ****                 }   
  99:Generated_Source\PSoC5/CupSensor_CupSensor.c ****                 break;
 118              		.loc 1 99 0
 119 007e 2CE0     		b	.L4
 120              	.L8:
 100:Generated_Source\PSoC5/CupSensor_CupSensor.c ****                 case NOT_PLACED:
 101:Generated_Source\PSoC5/CupSensor_CupSensor.c ****                 {
 102:Generated_Source\PSoC5/CupSensor_CupSensor.c ****                     CupSensor_cupStatus &= ~(1<<regValue);
 121              		.loc 1 102 0
 122 0080 0126     		movs	r6, #1
 123 0082 A640     		lsls	r6, r6, r4
 124 0084 F643     		mvns	r6, r6
 125 0086 76B2     		sxtb	r6, r6
 126 0088 184B     		ldr	r3, .L11+8
ARM GAS  C:\Users\nikol\AppData\Local\Temp\ccVL78Hm.s 			page 5


 127 008a 1878     		ldrb	r0, [r3]	@ zero_extendqisi2
 128 008c 3040     		ands	r0, r0, r6
 129 008e 1870     		strb	r0, [r3]
 103:Generated_Source\PSoC5/CupSensor_CupSensor.c ****                     updateCupStatus(CupSensor_cupStatus);
 130              		.loc 1 103 0
 131 0090 FFF7FEFF 		bl	updateCupStatus
 132              	.LVL12:
 104:Generated_Source\PSoC5/CupSensor_CupSensor.c **** //                    (*CupSensor_status_callback)(CupSensor_cupStatus);
 105:Generated_Source\PSoC5/CupSensor_CupSensor.c ****                     if(regValue == 1) {
 133              		.loc 1 105 0
 134 0094 012C     		cmp	r4, #1
 135 0096 08D1     		bne	.L9
 106:Generated_Source\PSoC5/CupSensor_CupSensor.c ****                         //test_LED_Write(0);
 107:Generated_Source\PSoC5/CupSensor_CupSensor.c ****                         sprintf(uartSensorBuffer,"\n\rerror:%i\n\r",sampleValue);
 136              		.loc 1 107 0
 137 0098 154F     		ldr	r7, .L11+12
 138 009a 2A46     		mov	r2, r5
 139 009c 1549     		ldr	r1, .L11+16
 140 009e 3846     		mov	r0, r7
 141 00a0 FFF7FEFF 		bl	sprintf
 142              	.LVL13:
 108:Generated_Source\PSoC5/CupSensor_CupSensor.c ****                         UART_PutString(uartSensorBuffer);    
 143              		.loc 1 108 0
 144 00a4 3846     		mov	r0, r7
 145 00a6 FFF7FEFF 		bl	UART_PutString
 146              	.LVL14:
 147              	.L9:
 109:Generated_Source\PSoC5/CupSensor_CupSensor.c ****                     }
 110:Generated_Source\PSoC5/CupSensor_CupSensor.c ****                     if(CupSensor_hitStatus & (1<<regValue))
 148              		.loc 1 110 0
 149 00aa 104B     		ldr	r3, .L11+8
 150 00ac 5878     		ldrb	r0, [r3, #1]	@ zero_extendqisi2
 151 00ae 40FA04F4 		asr	r4, r0, r4
 152 00b2 14F0010F 		tst	r4, #1
 153 00b6 10D0     		beq	.L4
 111:Generated_Source\PSoC5/CupSensor_CupSensor.c ****                     {
 112:Generated_Source\PSoC5/CupSensor_CupSensor.c ****                         CupSensor_hitStatus &= ~(1<<regValue);
 154              		.loc 1 112 0
 155 00b8 3040     		ands	r0, r0, r6
 156 00ba 5870     		strb	r0, [r3, #1]
 113:Generated_Source\PSoC5/CupSensor_CupSensor.c ****                         (*CupSensor_hit_status_callback)(CupSensor_hitStatus);    
 157              		.loc 1 113 0
 158 00bc 0E4B     		ldr	r3, .L11+20
 159 00be 1B68     		ldr	r3, [r3]
 160 00c0 9847     		blx	r3
 161              	.LVL15:
 162 00c2 0AE0     		b	.L4
 163              	.L7:
 114:Generated_Source\PSoC5/CupSensor_CupSensor.c ****                     }
 115:Generated_Source\PSoC5/CupSensor_CupSensor.c ****                 } 
 116:Generated_Source\PSoC5/CupSensor_CupSensor.c ****                 break;
 117:Generated_Source\PSoC5/CupSensor_CupSensor.c ****                 case HIT:
 118:Generated_Source\PSoC5/CupSensor_CupSensor.c ****                 {
 119:Generated_Source\PSoC5/CupSensor_CupSensor.c ****                     CupSensor_hitStatus |= 1<<regValue;
 164              		.loc 1 119 0
 165 00c4 0120     		movs	r0, #1
 166 00c6 00FA04F4 		lsl	r4, r0, r4
ARM GAS  C:\Users\nikol\AppData\Local\Temp\ccVL78Hm.s 			page 6


 167 00ca 084B     		ldr	r3, .L11+8
 168 00cc 5878     		ldrb	r0, [r3, #1]	@ zero_extendqisi2
 169 00ce 2043     		orrs	r0, r0, r4
 170 00d0 C0B2     		uxtb	r0, r0
 171 00d2 5870     		strb	r0, [r3, #1]
 120:Generated_Source\PSoC5/CupSensor_CupSensor.c ****                     (*CupSensor_hit_status_callback)(CupSensor_hitStatus);
 172              		.loc 1 120 0
 173 00d4 084B     		ldr	r3, .L11+20
 174 00d6 1B68     		ldr	r3, [r3]
 175 00d8 9847     		blx	r3
 176              	.LVL16:
 177              	.L4:
 178              	.LBE2:
 121:Generated_Source\PSoC5/CupSensor_CupSensor.c ****                 }
 122:Generated_Source\PSoC5/CupSensor_CupSensor.c ****                 break;
 123:Generated_Source\PSoC5/CupSensor_CupSensor.c ****                 default:
 124:Generated_Source\PSoC5/CupSensor_CupSensor.c ****                 break;
 125:Generated_Source\PSoC5/CupSensor_CupSensor.c ****             }
 126:Generated_Source\PSoC5/CupSensor_CupSensor.c ****             //if(!(CupSensor_cupStatus & 1<<1) && (oldStatus & 1<<1)) test_LED_Write(0);
 127:Generated_Source\PSoC5/CupSensor_CupSensor.c ****         }
 128:Generated_Source\PSoC5/CupSensor_CupSensor.c ****     }
 129:Generated_Source\PSoC5/CupSensor_CupSensor.c ****     
 130:Generated_Source\PSoC5/CupSensor_CupSensor.c ****     Test_time_pin_Write(0);
 179              		.loc 1 130 0
 180 00da 0020     		movs	r0, #0
 181 00dc FFF7FEFF 		bl	Test_time_pin_Write
 182              	.LVL17:
 183 00e0 F8BD     		pop	{r3, r4, r5, r6, r7, pc}
 184              	.L12:
 185 00e2 00BF     		.align	2
 186              	.L11:
 187 00e4 00000000 		.word	V_sample
 188 00e8 00000000 		.word	.LANCHOR0
 189 00ec 00000000 		.word	.LANCHOR1
 190 00f0 00000000 		.word	uartSensorBuffer
 191 00f4 00000000 		.word	.LC0
 192 00f8 00000000 		.word	CupSensor_hit_status_callback
 193              		.cfi_endproc
 194              	.LFE64:
 195              		.size	newValueInterruptHandler, .-newValueInterruptHandler
 196              		.section	.text.DMA_ADC_Config,"ax",%progbits
 197              		.align	2
 198              		.global	DMA_ADC_Config
 199              		.thumb
 200              		.thumb_func
 201              		.type	DMA_ADC_Config, %function
 202              	DMA_ADC_Config:
 203              	.LFB65:
 131:Generated_Source\PSoC5/CupSensor_CupSensor.c **** }
 132:Generated_Source\PSoC5/CupSensor_CupSensor.c **** 
 133:Generated_Source\PSoC5/CupSensor_CupSensor.c **** 
 134:Generated_Source\PSoC5/CupSensor_CupSensor.c **** void DMA_ADC_Config()
 135:Generated_Source\PSoC5/CupSensor_CupSensor.c **** {
 204              		.loc 1 135 0
 205              		.cfi_startproc
 206              		@ args = 0, pretend = 0, frame = 0
 207              		@ frame_needed = 0, uses_anonymous_args = 0
ARM GAS  C:\Users\nikol\AppData\Local\Temp\ccVL78Hm.s 			page 7


 208 0000 2DE9F84F 		push	{r3, r4, r5, r6, r7, r8, r9, r10, fp, lr}
 209              		.cfi_def_cfa_offset 40
 210              		.cfi_offset 3, -40
 211              		.cfi_offset 4, -36
 212              		.cfi_offset 5, -32
 213              		.cfi_offset 6, -28
 214              		.cfi_offset 7, -24
 215              		.cfi_offset 8, -20
 216              		.cfi_offset 9, -16
 217              		.cfi_offset 10, -12
 218              		.cfi_offset 11, -8
 219              		.cfi_offset 14, -4
 136:Generated_Source\PSoC5/CupSensor_CupSensor.c ****     /* Variable declarations for CupSensor_DMA_ADC */
 137:Generated_Source\PSoC5/CupSensor_CupSensor.c ****     /* Move these variable declarations to the top of the function */
 138:Generated_Source\PSoC5/CupSensor_CupSensor.c ****     uint8_t CupSensor_DMA_ADC_Chan;
 139:Generated_Source\PSoC5/CupSensor_CupSensor.c ****     uint8_t CupSensor_DMA_ADC_TD[6];
 140:Generated_Source\PSoC5/CupSensor_CupSensor.c ****     
 141:Generated_Source\PSoC5/CupSensor_CupSensor.c ****     /* Defines for CupSensor_DMA_ADC */
 142:Generated_Source\PSoC5/CupSensor_CupSensor.c ****     #define CupSensor_DMA_ADC_BYTES_PER_BURST 2
 143:Generated_Source\PSoC5/CupSensor_CupSensor.c ****     #define CupSensor_DMA_ADC_REQUEST_PER_BURST 1
 144:Generated_Source\PSoC5/CupSensor_CupSensor.c ****     #define CupSensor_DMA_ADC_SRC_BASE (CYDEV_PERIPH_BASE)
 145:Generated_Source\PSoC5/CupSensor_CupSensor.c ****     #define CupSensor_DMA_ADC_DST_BASE (CYDEV_SRAM_BASE)
 146:Generated_Source\PSoC5/CupSensor_CupSensor.c **** 
 147:Generated_Source\PSoC5/CupSensor_CupSensor.c ****     /* DMA Configuration for CupSensor_DMA_ADC */
 148:Generated_Source\PSoC5/CupSensor_CupSensor.c ****     CupSensor_DMA_ADC_Chan = CupSensor_DMA_ADC_DmaInitialize(CupSensor_DMA_ADC_BYTES_PER_BURST, Cup
 220              		.loc 1 148 0
 221 0004 41F6FF73 		movw	r3, #8191
 222 0008 4FF48042 		mov	r2, #16384
 223 000c 0121     		movs	r1, #1
 224 000e 0220     		movs	r0, #2
 225 0010 FFF7FEFF 		bl	CupSensor_DMA_ADC_DmaInitialize
 226              	.LVL18:
 227 0014 8346     		mov	fp, r0
 228              	.LVL19:
 149:Generated_Source\PSoC5/CupSensor_CupSensor.c ****         HI16(CupSensor_DMA_ADC_SRC_BASE), HI16(CupSensor_DMA_ADC_DST_BASE));
 150:Generated_Source\PSoC5/CupSensor_CupSensor.c ****     CupSensor_DMA_ADC_TD[0] = CyDmaTdAllocate();
 229              		.loc 1 150 0
 230 0016 FFF7FEFF 		bl	CyDmaTdAllocate
 231              	.LVL20:
 232 001a 0546     		mov	r5, r0
 151:Generated_Source\PSoC5/CupSensor_CupSensor.c ****     CupSensor_DMA_ADC_TD[1] = CyDmaTdAllocate();
 233              		.loc 1 151 0
 234 001c FFF7FEFF 		bl	CyDmaTdAllocate
 235              	.LVL21:
 236 0020 8246     		mov	r10, r0
 152:Generated_Source\PSoC5/CupSensor_CupSensor.c ****     CupSensor_DMA_ADC_TD[2] = CyDmaTdAllocate();
 237              		.loc 1 152 0
 238 0022 FFF7FEFF 		bl	CyDmaTdAllocate
 239              	.LVL22:
 240 0026 8146     		mov	r9, r0
 153:Generated_Source\PSoC5/CupSensor_CupSensor.c ****     CupSensor_DMA_ADC_TD[3] = CyDmaTdAllocate();
 241              		.loc 1 153 0
 242 0028 FFF7FEFF 		bl	CyDmaTdAllocate
 243              	.LVL23:
 244 002c 8046     		mov	r8, r0
 154:Generated_Source\PSoC5/CupSensor_CupSensor.c ****     CupSensor_DMA_ADC_TD[4] = CyDmaTdAllocate();
 245              		.loc 1 154 0
ARM GAS  C:\Users\nikol\AppData\Local\Temp\ccVL78Hm.s 			page 8


 246 002e FFF7FEFF 		bl	CyDmaTdAllocate
 247              	.LVL24:
 248 0032 0746     		mov	r7, r0
 155:Generated_Source\PSoC5/CupSensor_CupSensor.c ****     CupSensor_DMA_ADC_TD[5] = CyDmaTdAllocate();
 249              		.loc 1 155 0
 250 0034 FFF7FEFF 		bl	CyDmaTdAllocate
 251              	.LVL25:
 252 0038 0646     		mov	r6, r0
 156:Generated_Source\PSoC5/CupSensor_CupSensor.c ****     
 157:Generated_Source\PSoC5/CupSensor_CupSensor.c ****     CyDmaTdSetConfiguration(CupSensor_DMA_ADC_TD[0], 2, CupSensor_DMA_ADC_TD[1], 0 );
 253              		.loc 1 157 0
 254 003a 0023     		movs	r3, #0
 255 003c 5246     		mov	r2, r10
 256 003e 0221     		movs	r1, #2
 257 0040 2846     		mov	r0, r5
 258 0042 FFF7FEFF 		bl	CyDmaTdSetConfiguration
 259              	.LVL26:
 158:Generated_Source\PSoC5/CupSensor_CupSensor.c ****     CyDmaTdSetConfiguration(CupSensor_DMA_ADC_TD[1], 2, CupSensor_DMA_ADC_TD[2], 0 );
 260              		.loc 1 158 0
 261 0046 0023     		movs	r3, #0
 262 0048 4A46     		mov	r2, r9
 263 004a 0221     		movs	r1, #2
 264 004c 5046     		mov	r0, r10
 265 004e FFF7FEFF 		bl	CyDmaTdSetConfiguration
 266              	.LVL27:
 159:Generated_Source\PSoC5/CupSensor_CupSensor.c ****     CyDmaTdSetConfiguration(CupSensor_DMA_ADC_TD[2], 2, CupSensor_DMA_ADC_TD[3], 0 );
 267              		.loc 1 159 0
 268 0052 0023     		movs	r3, #0
 269 0054 4246     		mov	r2, r8
 270 0056 0221     		movs	r1, #2
 271 0058 4846     		mov	r0, r9
 272 005a FFF7FEFF 		bl	CyDmaTdSetConfiguration
 273              	.LVL28:
 160:Generated_Source\PSoC5/CupSensor_CupSensor.c ****     CyDmaTdSetConfiguration(CupSensor_DMA_ADC_TD[3], 2, CupSensor_DMA_ADC_TD[4], 0 );
 274              		.loc 1 160 0
 275 005e 0023     		movs	r3, #0
 276 0060 3A46     		mov	r2, r7
 277 0062 0221     		movs	r1, #2
 278 0064 4046     		mov	r0, r8
 279 0066 FFF7FEFF 		bl	CyDmaTdSetConfiguration
 280              	.LVL29:
 161:Generated_Source\PSoC5/CupSensor_CupSensor.c ****     CyDmaTdSetConfiguration(CupSensor_DMA_ADC_TD[4], 2, CupSensor_DMA_ADC_TD[5], 0 );
 281              		.loc 1 161 0
 282 006a 0023     		movs	r3, #0
 283 006c 3246     		mov	r2, r6
 284 006e 0221     		movs	r1, #2
 285 0070 3846     		mov	r0, r7
 286 0072 FFF7FEFF 		bl	CyDmaTdSetConfiguration
 287              	.LVL30:
 162:Generated_Source\PSoC5/CupSensor_CupSensor.c ****     CyDmaTdSetConfiguration(CupSensor_DMA_ADC_TD[5], 2, CupSensor_DMA_ADC_TD[0], CupSensor_DMA_ADC_
 288              		.loc 1 162 0
 289 0076 0423     		movs	r3, #4
 290 0078 2A46     		mov	r2, r5
 291 007a 0221     		movs	r1, #2
 292 007c 3046     		mov	r0, r6
 293 007e FFF7FEFF 		bl	CyDmaTdSetConfiguration
 294              	.LVL31:
ARM GAS  C:\Users\nikol\AppData\Local\Temp\ccVL78Hm.s 			page 9


 163:Generated_Source\PSoC5/CupSensor_CupSensor.c ****     
 164:Generated_Source\PSoC5/CupSensor_CupSensor.c ****     CyDmaTdSetAddress(CupSensor_DMA_ADC_TD[0], LO16((uint32)CupSensor_ADC_DelSig_DEC_SAMP_PTR/*CupS
 295              		.loc 1 164 0
 296 0082 184C     		ldr	r4, .L15
 297 0084 A4B2     		uxth	r4, r4
 298 0086 2246     		mov	r2, r4
 299 0088 44F61061 		movw	r1, #19984
 300 008c 2846     		mov	r0, r5
 301 008e FFF7FEFF 		bl	CyDmaTdSetAddress
 302              	.LVL32:
 165:Generated_Source\PSoC5/CupSensor_CupSensor.c ****     CyDmaTdSetAddress(CupSensor_DMA_ADC_TD[1], LO16((uint32)CupSensor_ADC_DelSig_DEC_SAMP_PTR/*CupS
 303              		.loc 1 165 0
 304 0092 2246     		mov	r2, r4
 305 0094 44F61061 		movw	r1, #19984
 306 0098 5046     		mov	r0, r10
 307 009a FFF7FEFF 		bl	CyDmaTdSetAddress
 308              	.LVL33:
 166:Generated_Source\PSoC5/CupSensor_CupSensor.c ****     CyDmaTdSetAddress(CupSensor_DMA_ADC_TD[2], LO16((uint32)CupSensor_ADC_DelSig_DEC_SAMP_PTR/*CupS
 309              		.loc 1 166 0
 310 009e 2246     		mov	r2, r4
 311 00a0 44F61061 		movw	r1, #19984
 312 00a4 4846     		mov	r0, r9
 313 00a6 FFF7FEFF 		bl	CyDmaTdSetAddress
 314              	.LVL34:
 167:Generated_Source\PSoC5/CupSensor_CupSensor.c ****     CyDmaTdSetAddress(CupSensor_DMA_ADC_TD[3], LO16((uint32)CupSensor_ADC_DelSig_DEC_SAMP_PTR/*CupS
 315              		.loc 1 167 0
 316 00aa 2246     		mov	r2, r4
 317 00ac 44F61061 		movw	r1, #19984
 318 00b0 4046     		mov	r0, r8
 319 00b2 FFF7FEFF 		bl	CyDmaTdSetAddress
 320              	.LVL35:
 168:Generated_Source\PSoC5/CupSensor_CupSensor.c ****     CyDmaTdSetAddress(CupSensor_DMA_ADC_TD[4], LO16((uint32)CupSensor_ADC_DelSig_DEC_SAMP_PTR/*CupS
 321              		.loc 1 168 0
 322 00b6 2246     		mov	r2, r4
 323 00b8 44F61061 		movw	r1, #19984
 324 00bc 3846     		mov	r0, r7
 325 00be FFF7FEFF 		bl	CyDmaTdSetAddress
 326              	.LVL36:
 169:Generated_Source\PSoC5/CupSensor_CupSensor.c ****     CyDmaTdSetAddress(CupSensor_DMA_ADC_TD[5], LO16((uint32)CupSensor_ADC_DelSig_DEC_SAMP_PTR/*CupS
 327              		.loc 1 169 0
 328 00c2 2246     		mov	r2, r4
 329 00c4 44F61061 		movw	r1, #19984
 330 00c8 3046     		mov	r0, r6
 331 00ca FFF7FEFF 		bl	CyDmaTdSetAddress
 332              	.LVL37:
 170:Generated_Source\PSoC5/CupSensor_CupSensor.c ****         
 171:Generated_Source\PSoC5/CupSensor_CupSensor.c ****     CyDmaChSetInitialTd(CupSensor_DMA_ADC_Chan, CupSensor_DMA_ADC_TD[0]);
 333              		.loc 1 171 0
 334 00ce 2946     		mov	r1, r5
 335 00d0 5846     		mov	r0, fp
 336 00d2 FFF7FEFF 		bl	CyDmaChSetInitialTd
 337              	.LVL38:
 172:Generated_Source\PSoC5/CupSensor_CupSensor.c ****     CyDmaChEnable(CupSensor_DMA_ADC_Chan, 1);
 338              		.loc 1 172 0
 339 00d6 0121     		movs	r1, #1
 340 00d8 5846     		mov	r0, fp
 341 00da FFF7FEFF 		bl	CyDmaChEnable
ARM GAS  C:\Users\nikol\AppData\Local\Temp\ccVL78Hm.s 			page 10


 342              	.LVL39:
 343 00de BDE8F88F 		pop	{r3, r4, r5, r6, r7, r8, r9, r10, fp, pc}
 344              	.LVL40:
 345              	.L16:
 346 00e2 00BF     		.align	2
 347              	.L15:
 348 00e4 00000000 		.word	V_sample
 349              		.cfi_endproc
 350              	.LFE65:
 351              		.size	DMA_ADC_Config, .-DMA_ADC_Config
 352              		.section	.text.CupSensor_Start,"ax",%progbits
 353              		.align	2
 354              		.global	CupSensor_Start
 355              		.thumb
 356              		.thumb_func
 357              		.type	CupSensor_Start, %function
 358              	CupSensor_Start:
 359              	.LFB66:
 173:Generated_Source\PSoC5/CupSensor_CupSensor.c ****    
 174:Generated_Source\PSoC5/CupSensor_CupSensor.c **** }
 175:Generated_Source\PSoC5/CupSensor_CupSensor.c **** 
 176:Generated_Source\PSoC5/CupSensor_CupSensor.c **** 
 177:Generated_Source\PSoC5/CupSensor_CupSensor.c **** 
 178:Generated_Source\PSoC5/CupSensor_CupSensor.c **** void CupSensor_Start()
 179:Generated_Source\PSoC5/CupSensor_CupSensor.c **** {
 360              		.loc 1 179 0
 361              		.cfi_startproc
 362              		@ args = 0, pretend = 0, frame = 0
 363              		@ frame_needed = 0, uses_anonymous_args = 0
 364 0000 10B5     		push	{r4, lr}
 365              		.cfi_def_cfa_offset 8
 366              		.cfi_offset 4, -8
 367              		.cfi_offset 14, -4
 368              	.LVL41:
 369              	.LBB3:
 180:Generated_Source\PSoC5/CupSensor_CupSensor.c ****     for(size_t i = 0; i< 6; i++){
 370              		.loc 1 180 0
 371 0002 0024     		movs	r4, #0
 372 0004 0AE0     		b	.L18
 373              	.LVL42:
 374              	.L19:
 181:Generated_Source\PSoC5/CupSensor_CupSensor.c ****         CupSensorUnit_init(&sensors[i], SAMPLES_PER_SENSOR, 333);
 375              		.loc 1 181 0 discriminator 3
 376 0006 40F24D12 		movw	r2, #333
 377 000a 5A21     		movs	r1, #90
 378 000c 40F63C00 		movw	r0, #2108
 379 0010 0D4B     		ldr	r3, .L21
 380 0012 00FB0430 		mla	r0, r0, r4, r3
 381 0016 FFF7FEFF 		bl	CupSensorUnit_init
 382              	.LVL43:
 180:Generated_Source\PSoC5/CupSensor_CupSensor.c ****     for(size_t i = 0; i< 6; i++){
 383              		.loc 1 180 0 discriminator 3
 384 001a 0134     		adds	r4, r4, #1
 385              	.LVL44:
 386              	.L18:
 180:Generated_Source\PSoC5/CupSensor_CupSensor.c ****     for(size_t i = 0; i< 6; i++){
 387              		.loc 1 180 0 is_stmt 0 discriminator 1
ARM GAS  C:\Users\nikol\AppData\Local\Temp\ccVL78Hm.s 			page 11


 388 001c 052C     		cmp	r4, #5
 389 001e F2D9     		bls	.L19
 390              	.LBE3:
 182:Generated_Source\PSoC5/CupSensor_CupSensor.c ****     }
 183:Generated_Source\PSoC5/CupSensor_CupSensor.c ****     CupSensor_TIA_Start();
 391              		.loc 1 183 0 is_stmt 1
 392 0020 FFF7FEFF 		bl	CupSensor_TIA_Start
 393              	.LVL45:
 184:Generated_Source\PSoC5/CupSensor_CupSensor.c ****     CupSensor_Opamp_1_Start();
 394              		.loc 1 184 0
 395 0024 FFF7FEFF 		bl	CupSensor_Opamp_1_Start
 396              	.LVL46:
 185:Generated_Source\PSoC5/CupSensor_CupSensor.c ****     CupSensor_ADC_DelSig_Start();
 397              		.loc 1 185 0
 398 0028 FFF7FEFF 		bl	CupSensor_ADC_DelSig_Start
 399              	.LVL47:
 186:Generated_Source\PSoC5/CupSensor_CupSensor.c ****     CupSensor_ADC_DelSig_SetCoherency(CupSensor_ADC_DelSig_COHER_MID);
 400              		.loc 1 186 0
 401 002c 0220     		movs	r0, #2
 402 002e FFF7FEFF 		bl	CupSensor_ADC_DelSig_SetCoherency
 403              	.LVL48:
 187:Generated_Source\PSoC5/CupSensor_CupSensor.c ****     CupSensor_ADC_DelSig_StartConvert();
 404              		.loc 1 187 0
 405 0032 FFF7FEFF 		bl	CupSensor_ADC_DelSig_StartConvert
 406              	.LVL49:
 188:Generated_Source\PSoC5/CupSensor_CupSensor.c ****     CupSensor_VDAC8_Start();
 407              		.loc 1 188 0
 408 0036 FFF7FEFF 		bl	CupSensor_VDAC8_Start
 409              	.LVL50:
 189:Generated_Source\PSoC5/CupSensor_CupSensor.c **** 
 190:Generated_Source\PSoC5/CupSensor_CupSensor.c ****      DMA_ADC_Config();
 410              		.loc 1 190 0
 411 003a FFF7FEFF 		bl	DMA_ADC_Config
 412              	.LVL51:
 191:Generated_Source\PSoC5/CupSensor_CupSensor.c ****     
 192:Generated_Source\PSoC5/CupSensor_CupSensor.c ****     CupSensor_isr_DMA_StartEx(newValueInterruptHandler);
 413              		.loc 1 192 0
 414 003e 0348     		ldr	r0, .L21+4
 415 0040 FFF7FEFF 		bl	CupSensor_isr_DMA_StartEx
 416              	.LVL52:
 417 0044 10BD     		pop	{r4, pc}
 418              	.LVL53:
 419              	.L22:
 420 0046 00BF     		.align	2
 421              	.L21:
 422 0048 00000000 		.word	.LANCHOR0
 423 004c 00000000 		.word	newValueInterruptHandler
 424              		.cfi_endproc
 425              	.LFE66:
 426              		.size	CupSensor_Start, .-CupSensor_Start
 427              		.section	.text.CupSensor_statusCallback,"ax",%progbits
 428              		.align	2
 429              		.global	CupSensor_statusCallback
 430              		.thumb
 431              		.thumb_func
 432              		.type	CupSensor_statusCallback, %function
 433              	CupSensor_statusCallback:
ARM GAS  C:\Users\nikol\AppData\Local\Temp\ccVL78Hm.s 			page 12


 434              	.LFB67:
 193:Generated_Source\PSoC5/CupSensor_CupSensor.c **** }
 194:Generated_Source\PSoC5/CupSensor_CupSensor.c **** 
 195:Generated_Source\PSoC5/CupSensor_CupSensor.c **** void CupSensor_statusCallback(void (*callback)(uint8_t))
 196:Generated_Source\PSoC5/CupSensor_CupSensor.c **** {
 435              		.loc 1 196 0
 436              		.cfi_startproc
 437              		@ args = 0, pretend = 0, frame = 0
 438              		@ frame_needed = 0, uses_anonymous_args = 0
 439              		@ link register save eliminated.
 440              	.LVL54:
 197:Generated_Source\PSoC5/CupSensor_CupSensor.c ****     CupSensor_status_callback=callback;
 441              		.loc 1 197 0
 442 0000 014B     		ldr	r3, .L24
 443 0002 1860     		str	r0, [r3]
 444 0004 7047     		bx	lr
 445              	.L25:
 446 0006 00BF     		.align	2
 447              	.L24:
 448 0008 00000000 		.word	CupSensor_status_callback
 449              		.cfi_endproc
 450              	.LFE67:
 451              		.size	CupSensor_statusCallback, .-CupSensor_statusCallback
 452              		.section	.text.CupSensor_hitStatusCallback,"ax",%progbits
 453              		.align	2
 454              		.global	CupSensor_hitStatusCallback
 455              		.thumb
 456              		.thumb_func
 457              		.type	CupSensor_hitStatusCallback, %function
 458              	CupSensor_hitStatusCallback:
 459              	.LFB68:
 198:Generated_Source\PSoC5/CupSensor_CupSensor.c **** }
 199:Generated_Source\PSoC5/CupSensor_CupSensor.c **** 
 200:Generated_Source\PSoC5/CupSensor_CupSensor.c **** void CupSensor_hitStatusCallback(void (*callback)(uint8_t))
 201:Generated_Source\PSoC5/CupSensor_CupSensor.c **** {
 460              		.loc 1 201 0
 461              		.cfi_startproc
 462              		@ args = 0, pretend = 0, frame = 0
 463              		@ frame_needed = 0, uses_anonymous_args = 0
 464              		@ link register save eliminated.
 465              	.LVL55:
 202:Generated_Source\PSoC5/CupSensor_CupSensor.c ****     CupSensor_hit_status_callback=callback;
 466              		.loc 1 202 0
 467 0000 014B     		ldr	r3, .L27
 468 0002 1860     		str	r0, [r3]
 469 0004 7047     		bx	lr
 470              	.L28:
 471 0006 00BF     		.align	2
 472              	.L27:
 473 0008 00000000 		.word	CupSensor_hit_status_callback
 474              		.cfi_endproc
 475              	.LFE68:
 476              		.size	CupSensor_hitStatusCallback, .-CupSensor_hitStatusCallback
 477              		.section	.text.CupSensor_getStatus,"ax",%progbits
 478              		.align	2
 479              		.global	CupSensor_getStatus
 480              		.thumb
ARM GAS  C:\Users\nikol\AppData\Local\Temp\ccVL78Hm.s 			page 13


 481              		.thumb_func
 482              		.type	CupSensor_getStatus, %function
 483              	CupSensor_getStatus:
 484              	.LFB69:
 203:Generated_Source\PSoC5/CupSensor_CupSensor.c **** }
 204:Generated_Source\PSoC5/CupSensor_CupSensor.c **** 
 205:Generated_Source\PSoC5/CupSensor_CupSensor.c **** uint8_t CupSensor_getStatus()
 206:Generated_Source\PSoC5/CupSensor_CupSensor.c **** {
 485              		.loc 1 206 0
 486              		.cfi_startproc
 487              		@ args = 0, pretend = 0, frame = 0
 488              		@ frame_needed = 0, uses_anonymous_args = 0
 489              		@ link register save eliminated.
 207:Generated_Source\PSoC5/CupSensor_CupSensor.c ****     return CupSensor_cupStatus;
 208:Generated_Source\PSoC5/CupSensor_CupSensor.c **** }
 490              		.loc 1 208 0
 491 0000 014B     		ldr	r3, .L30
 492 0002 1878     		ldrb	r0, [r3]	@ zero_extendqisi2
 493 0004 7047     		bx	lr
 494              	.L31:
 495 0006 00BF     		.align	2
 496              	.L30:
 497 0008 00000000 		.word	.LANCHOR1
 498              		.cfi_endproc
 499              	.LFE69:
 500              		.size	CupSensor_getStatus, .-CupSensor_getStatus
 501              		.section	.text.CupSensor_getHitStatus,"ax",%progbits
 502              		.align	2
 503              		.global	CupSensor_getHitStatus
 504              		.thumb
 505              		.thumb_func
 506              		.type	CupSensor_getHitStatus, %function
 507              	CupSensor_getHitStatus:
 508              	.LFB70:
 209:Generated_Source\PSoC5/CupSensor_CupSensor.c **** 
 210:Generated_Source\PSoC5/CupSensor_CupSensor.c **** uint8_t CupSensor_getHitStatus()
 211:Generated_Source\PSoC5/CupSensor_CupSensor.c **** {
 509              		.loc 1 211 0
 510              		.cfi_startproc
 511              		@ args = 0, pretend = 0, frame = 0
 512              		@ frame_needed = 0, uses_anonymous_args = 0
 513              		@ link register save eliminated.
 212:Generated_Source\PSoC5/CupSensor_CupSensor.c ****     return CupSensor_hitStatus;    
 213:Generated_Source\PSoC5/CupSensor_CupSensor.c **** }
 514              		.loc 1 213 0
 515 0000 014B     		ldr	r3, .L33
 516 0002 5878     		ldrb	r0, [r3, #1]	@ zero_extendqisi2
 517 0004 7047     		bx	lr
 518              	.L34:
 519 0006 00BF     		.align	2
 520              	.L33:
 521 0008 00000000 		.word	.LANCHOR1
 522              		.cfi_endproc
 523              	.LFE70:
 524              		.size	CupSensor_getHitStatus, .-CupSensor_getHitStatus
 525              		.comm	uartSensorBuffer,256,4
 526              		.comm	buffer,256,4
ARM GAS  C:\Users\nikol\AppData\Local\Temp\ccVL78Hm.s 			page 14


 527              		.global	CupSensor_hitStatus
 528              		.global	CupSensor_cupStatus
 529              		.comm	V_sample,2,4
 530              		.global	sensors
 531              		.comm	CupSensor_hit_status_callback,4,4
 532              		.comm	CupSensor_status_callback,4,4
 533              		.comm	currentState,1,1
 534              		.data
 535              		.align	2
 536              		.set	.LANCHOR0,. + 0
 537              		.type	sensors, %object
 538              		.size	sensors, 12648
 539              	sensors:
 540 0000 00000000 		.space	6
 540      0000
 541 0006 0B       		.byte	11
 542 0007 08       		.byte	8
 543 0008 3333D33F 		.word	1070805811
 544 000c 0000803F 		.word	1065353216
 545 0010 00000000 		.space	2092
 545      00000000 
 545      00000000 
 545      00000000 
 545      00000000 
 546 083c 00000000 		.space	6
 546      0000
 547 0842 0B       		.byte	11
 548 0843 08       		.byte	8
 549 0844 3333D33F 		.word	1070805811
 550 0848 0000803F 		.word	1065353216
 551 084c 00000000 		.space	2092
 551      00000000 
 551      00000000 
 551      00000000 
 551      00000000 
 552 1078 00000000 		.space	6
 552      0000
 553 107e 0B       		.byte	11
 554 107f 08       		.byte	8
 555 1080 3333D33F 		.word	1070805811
 556 1084 0000803F 		.word	1065353216
 557 1088 00000000 		.space	2092
 557      00000000 
 557      00000000 
 557      00000000 
 557      00000000 
 558 18b4 00000000 		.space	6
 558      0000
 559 18ba 0B       		.byte	11
 560 18bb 08       		.byte	8
 561 18bc 3333D33F 		.word	1070805811
 562 18c0 0000803F 		.word	1065353216
 563 18c4 00000000 		.space	2092
 563      00000000 
 563      00000000 
 563      00000000 
 563      00000000 
ARM GAS  C:\Users\nikol\AppData\Local\Temp\ccVL78Hm.s 			page 15


 564 20f0 00000000 		.space	6
 564      0000
 565 20f6 0B       		.byte	11
 566 20f7 08       		.byte	8
 567 20f8 3333D33F 		.word	1070805811
 568 20fc 0000803F 		.word	1065353216
 569 2100 00000000 		.space	2092
 569      00000000 
 569      00000000 
 569      00000000 
 569      00000000 
 570 292c 00000000 		.space	6
 570      0000
 571 2932 0B       		.byte	11
 572 2933 08       		.byte	8
 573 2934 3333D33F 		.word	1070805811
 574 2938 0000803F 		.word	1065353216
 575 293c 00000000 		.space	2092
 575      00000000 
 575      00000000 
 575      00000000 
 575      00000000 
 576              		.section	.rodata.str1.4,"aMS",%progbits,1
 577              		.align	2
 578              	.LC0:
 579 0000 0A0D6572 		.ascii	"\012\015error:%i\012\015\000"
 579      726F723A 
 579      25690A0D 
 579      00
 580              		.bss
 581              		.set	.LANCHOR1,. + 0
 582              		.type	CupSensor_cupStatus, %object
 583              		.size	CupSensor_cupStatus, 1
 584              	CupSensor_cupStatus:
 585 0000 00       		.space	1
 586              		.type	CupSensor_hitStatus, %object
 587              		.size	CupSensor_hitStatus, 1
 588              	CupSensor_hitStatus:
 589 0001 00       		.space	1
 590              		.text
 591              	.Letext0:
 592              		.file 2 "c:\\program files (x86)\\cypress\\psoc creator\\4.2\\psoc creator\\import\\gnu\\arm\\5.4.
 593              		.file 3 "c:\\program files (x86)\\cypress\\psoc creator\\4.2\\psoc creator\\import\\gnu\\arm\\5.4.
 594              		.file 4 "c:\\program files (x86)\\cypress\\psoc creator\\4.2\\psoc creator\\import\\gnu\\arm\\5.4.
 595              		.file 5 "Generated_Source\\PSoC5/cytypes.h"
 596              		.file 6 "Generated_Source\\PSoC5/CupSensor_CircularBuffer.h"
 597              		.file 7 "Generated_Source\\PSoC5/CupSensor_CupSensorUnit.h"
 598              		.file 8 "Generated_Source\\PSoC5/core_cm3.h"
 599              		.file 9 "./GameController.h"
 600              		.file 10 "Generated_Source\\PSoC5/CupSensor_VDAC8.h"
 601              		.file 11 "c:\\program files (x86)\\cypress\\psoc creator\\4.2\\psoc creator\\import\\gnu\\arm\\5.4
 602              		.file 12 "Generated_Source\\PSoC5/UART.h"
 603              		.file 13 "Generated_Source\\PSoC5/Test_time_pin.h"
 604              		.file 14 "Generated_Source\\PSoC5/CupSensor_Control_Reg_Led.h"
 605              		.file 15 "Generated_Source\\PSoC5/CupSensor_DMA_ADC_dma.h"
 606              		.file 16 "Generated_Source\\PSoC5/CYDMAC.H"
 607              		.file 17 "Generated_Source\\PSoC5/CupSensor_TIA.h"
ARM GAS  C:\Users\nikol\AppData\Local\Temp\ccVL78Hm.s 			page 16


 608              		.file 18 "Generated_Source\\PSoC5/CupSensor_Opamp_1.h"
 609              		.file 19 "Generated_Source\\PSoC5/CupSensor_ADC_DelSig.h"
 610              		.file 20 "Generated_Source\\PSoC5/CupSensor_isr_DMA.h"