ARM GAS  C:\Users\nikol\AppData\Local\Temp\cc4DjjaY.s 			page 1


   1              		.syntax unified
   2              		.cpu cortex-m3
   3              		.fpu softvfp
   4              		.eabi_attribute 20, 1
   5              		.eabi_attribute 21, 1
   6              		.eabi_attribute 23, 3
   7              		.eabi_attribute 24, 1
   8              		.eabi_attribute 25, 1
   9              		.eabi_attribute 26, 1
  10              		.eabi_attribute 30, 1
  11              		.eabi_attribute 34, 1
  12              		.eabi_attribute 18, 4
  13              		.thumb
  14              		.syntax unified
  15              		.file	"CupSensor_CircularBuffer.c"
  16              		.text
  17              	.Ltext0:
  18              		.cfi_sections	.debug_frame
  19              		.section	.text.CircularBuffer_calculateMinMax,"ax",%progbits
  20              		.align	2
  21              		.global	CircularBuffer_calculateMinMax
  22              		.thumb
  23              		.thumb_func
  24              		.type	CircularBuffer_calculateMinMax, %function
  25              	CircularBuffer_calculateMinMax:
  26              	.LFB1:
  27              		.file 1 "Generated_Source\\PSoC5\\CupSensor_CircularBuffer.c"
   1:Generated_Source\PSoC5/CupSensor_CircularBuffer.c **** /* ========================================
   2:Generated_Source\PSoC5/CupSensor_CircularBuffer.c ****  *
   3:Generated_Source\PSoC5/CupSensor_CircularBuffer.c ****  * Copyright YOUR COMPANY, THE YEAR
   4:Generated_Source\PSoC5/CupSensor_CircularBuffer.c ****  * All Rights Reserved
   5:Generated_Source\PSoC5/CupSensor_CircularBuffer.c ****  * UNPUBLISHED, LICENSED SOFTWARE.
   6:Generated_Source\PSoC5/CupSensor_CircularBuffer.c ****  *
   7:Generated_Source\PSoC5/CupSensor_CircularBuffer.c ****  * CONFIDENTIAL AND PROPRIETARY INFORMATION
   8:Generated_Source\PSoC5/CupSensor_CircularBuffer.c ****  * WHICH IS THE PROPERTY OF your company.
   9:Generated_Source\PSoC5/CupSensor_CircularBuffer.c ****  *
  10:Generated_Source\PSoC5/CupSensor_CircularBuffer.c ****  * ========================================
  11:Generated_Source\PSoC5/CupSensor_CircularBuffer.c **** */
  12:Generated_Source\PSoC5/CupSensor_CircularBuffer.c **** #include "CupSensor_CircularBuffer.h"
  13:Generated_Source\PSoC5/CupSensor_CircularBuffer.c **** 
  14:Generated_Source\PSoC5/CupSensor_CircularBuffer.c **** void CircularBuffer_calculateMinMax(struct CircularBuffer* buffer)
  15:Generated_Source\PSoC5/CupSensor_CircularBuffer.c **** {
  28              		.loc 1 15 0
  29              		.cfi_startproc
  30              		@ args = 0, pretend = 0, frame = 0
  31              		@ frame_needed = 0, uses_anonymous_args = 0
  32              		@ link register save eliminated.
  33              	.LVL0:
  34 0000 10B4     		push	{r4}
  35              		.cfi_def_cfa_offset 4
  36              		.cfi_offset 4, -4
  16:Generated_Source\PSoC5/CupSensor_CircularBuffer.c ****     buffer->min = 0xFF;
  37              		.loc 1 16 0
  38 0002 FF23     		movs	r3, #255
  39 0004 80F80834 		strb	r3, [r0, #1032]
  17:Generated_Source\PSoC5/CupSensor_CircularBuffer.c ****     buffer->max = 0x00;
  40              		.loc 1 17 0
ARM GAS  C:\Users\nikol\AppData\Local\Temp\cc4DjjaY.s 			page 2


  41 0008 0023     		movs	r3, #0
  42 000a 80F80934 		strb	r3, [r0, #1033]
  18:Generated_Source\PSoC5/CupSensor_CircularBuffer.c ****     int countSize = buffer->size;
  43              		.loc 1 18 0
  44 000e B0F81044 		ldrh	r4, [r0, #1040]
  45              	.LVL1:
  19:Generated_Source\PSoC5/CupSensor_CircularBuffer.c ****     if(buffer->reset == 1)
  46              		.loc 1 19 0
  47 0012 90F90A34 		ldrsb	r3, [r0, #1034]
  48 0016 012B     		cmp	r3, #1
  49 0018 01D1     		bne	.L2
  20:Generated_Source\PSoC5/CupSensor_CircularBuffer.c ****     {
  21:Generated_Source\PSoC5/CupSensor_CircularBuffer.c ****         countSize = buffer->index;
  50              		.loc 1 21 0
  51 001a B0F80044 		ldrh	r4, [r0, #1024]
  52              	.LVL2:
  53              	.L2:
  54              	.LBB2:
  22:Generated_Source\PSoC5/CupSensor_CircularBuffer.c ****     }
  23:Generated_Source\PSoC5/CupSensor_CircularBuffer.c ****     for(size_t i = 0; i < countSize; i++)
  55              		.loc 1 23 0
  56 001e 0023     		movs	r3, #0
  57 0020 0DE0     		b	.L3
  58              	.LVL3:
  59              	.L6:
  24:Generated_Source\PSoC5/CupSensor_CircularBuffer.c ****     {
  25:Generated_Source\PSoC5/CupSensor_CircularBuffer.c ****         if(buffer->min > buffer->data[i]) buffer->min = buffer->data[i]; 
  60              		.loc 1 25 0
  61 0022 90F80814 		ldrb	r1, [r0, #1032]	@ zero_extendqisi2
  62 0026 C25C     		ldrb	r2, [r0, r3]	@ zero_extendqisi2
  63 0028 9142     		cmp	r1, r2
  64 002a 01D9     		bls	.L4
  65              		.loc 1 25 0 is_stmt 0 discriminator 1
  66 002c 80F80824 		strb	r2, [r0, #1032]
  67              	.L4:
  26:Generated_Source\PSoC5/CupSensor_CircularBuffer.c ****         if(buffer->max < buffer->data[i]) buffer->max = buffer->data[i];    
  68              		.loc 1 26 0 is_stmt 1
  69 0030 90F80914 		ldrb	r1, [r0, #1033]	@ zero_extendqisi2
  70 0034 8A42     		cmp	r2, r1
  71 0036 01D9     		bls	.L5
  72              		.loc 1 26 0 is_stmt 0 discriminator 1
  73 0038 80F80924 		strb	r2, [r0, #1033]
  74              	.L5:
  23:Generated_Source\PSoC5/CupSensor_CircularBuffer.c ****     {
  75              		.loc 1 23 0 is_stmt 1 discriminator 2
  76 003c 0133     		adds	r3, r3, #1
  77              	.LVL4:
  78              	.L3:
  23:Generated_Source\PSoC5/CupSensor_CircularBuffer.c ****     {
  79              		.loc 1 23 0 is_stmt 0 discriminator 1
  80 003e A342     		cmp	r3, r4
  81 0040 EFD3     		bcc	.L6
  82              	.LBE2:
  27:Generated_Source\PSoC5/CupSensor_CircularBuffer.c ****     }
  28:Generated_Source\PSoC5/CupSensor_CircularBuffer.c ****     
  29:Generated_Source\PSoC5/CupSensor_CircularBuffer.c **** }
  83              		.loc 1 29 0 is_stmt 1
ARM GAS  C:\Users\nikol\AppData\Local\Temp\cc4DjjaY.s 			page 3


  84 0042 10BC     		pop	{r4}
  85              		.cfi_restore 4
  86              		.cfi_def_cfa_offset 0
  87              	.LVL5:
  88 0044 7047     		bx	lr
  89              		.cfi_endproc
  90              	.LFE1:
  91              		.size	CircularBuffer_calculateMinMax, .-CircularBuffer_calculateMinMax
  92              		.global	__aeabi_ui2f
  93              		.global	__aeabi_i2f
  94              		.global	__aeabi_fdiv
  95 0046 00BF     		.section	.text.CircularBuffer_insertReading,"ax",%progbits
  96              		.align	2
  97              		.global	CircularBuffer_insertReading
  98              		.thumb
  99              		.thumb_func
 100              		.type	CircularBuffer_insertReading, %function
 101              	CircularBuffer_insertReading:
 102              	.LFB2:
  30:Generated_Source\PSoC5/CupSensor_CircularBuffer.c **** 
  31:Generated_Source\PSoC5/CupSensor_CircularBuffer.c **** void CircularBuffer_insertReading(struct CircularBuffer* buffer, uint8_t reading)
  32:Generated_Source\PSoC5/CupSensor_CircularBuffer.c **** {
 103              		.loc 1 32 0
 104              		.cfi_startproc
 105              		@ args = 0, pretend = 0, frame = 0
 106              		@ frame_needed = 0, uses_anonymous_args = 0
 107              	.LVL6:
 108 0000 70B5     		push	{r4, r5, r6, lr}
 109              		.cfi_def_cfa_offset 16
 110              		.cfi_offset 4, -16
 111              		.cfi_offset 5, -12
 112              		.cfi_offset 6, -8
 113              		.cfi_offset 14, -4
 114 0002 0446     		mov	r4, r0
  33:Generated_Source\PSoC5/CupSensor_CircularBuffer.c ****     if(buffer->reset){
 115              		.loc 1 33 0
 116 0004 90F90A34 		ldrsb	r3, [r0, #1034]
 117 0008 FBB1     		cbz	r3, .L9
  34:Generated_Source\PSoC5/CupSensor_CircularBuffer.c ****         buffer->sum += reading;
 118              		.loc 1 34 0
 119 000a D0F80C04 		ldr	r0, [r0, #1036]
 120              	.LVL7:
 121 000e 0844     		add	r0, r0, r1
 122 0010 C4F80C04 		str	r0, [r4, #1036]
  35:Generated_Source\PSoC5/CupSensor_CircularBuffer.c ****         buffer->data[buffer->index++] = reading;
 123              		.loc 1 35 0
 124 0014 B4F80034 		ldrh	r3, [r4, #1024]
 125 0018 5D1C     		adds	r5, r3, #1
 126 001a ADB2     		uxth	r5, r5
 127 001c A4F80054 		strh	r5, [r4, #1024]	@ movhi
 128 0020 E154     		strb	r1, [r4, r3]
  36:Generated_Source\PSoC5/CupSensor_CircularBuffer.c ****         buffer->average = (float)buffer->sum/buffer->index;
 129              		.loc 1 36 0
 130 0022 FFF7FEFF 		bl	__aeabi_ui2f
 131              	.LVL8:
 132 0026 0646     		mov	r6, r0
 133 0028 2846     		mov	r0, r5
ARM GAS  C:\Users\nikol\AppData\Local\Temp\cc4DjjaY.s 			page 4


 134 002a FFF7FEFF 		bl	__aeabi_i2f
 135              	.LVL9:
 136 002e 0146     		mov	r1, r0
 137 0030 3046     		mov	r0, r6
 138 0032 FFF7FEFF 		bl	__aeabi_fdiv
 139              	.LVL10:
 140 0036 C4F80404 		str	r0, [r4, #1028]	@ float
  37:Generated_Source\PSoC5/CupSensor_CircularBuffer.c ****         if(buffer->index >= buffer->size)
 141              		.loc 1 37 0
 142 003a B4F81034 		ldrh	r3, [r4, #1040]
 143 003e 9D42     		cmp	r5, r3
 144 0040 1DD3     		bcc	.L10
  38:Generated_Source\PSoC5/CupSensor_CircularBuffer.c ****         {
  39:Generated_Source\PSoC5/CupSensor_CircularBuffer.c ****             //just filled up the buffer
  40:Generated_Source\PSoC5/CupSensor_CircularBuffer.c ****             buffer->reset = 0;
 145              		.loc 1 40 0
 146 0042 0023     		movs	r3, #0
 147 0044 84F80A34 		strb	r3, [r4, #1034]
 148 0048 19E0     		b	.L10
 149              	.LVL11:
 150              	.L9:
 151              	.LBB3:
  41:Generated_Source\PSoC5/CupSensor_CircularBuffer.c ****         } 
  42:Generated_Source\PSoC5/CupSensor_CircularBuffer.c ****     }
  43:Generated_Source\PSoC5/CupSensor_CircularBuffer.c ****     else
  44:Generated_Source\PSoC5/CupSensor_CircularBuffer.c ****     {
  45:Generated_Source\PSoC5/CupSensor_CircularBuffer.c ****         uint8_t oldData = buffer->data[buffer->index];
 152              		.loc 1 45 0
 153 004a B0F80034 		ldrh	r3, [r0, #1024]
 154 004e C05C     		ldrb	r0, [r0, r3]	@ zero_extendqisi2
 155              	.LVL12:
  46:Generated_Source\PSoC5/CupSensor_CircularBuffer.c ****         buffer->data[buffer->index++] = reading;
 156              		.loc 1 46 0
 157 0050 5A1C     		adds	r2, r3, #1
 158 0052 A4F80024 		strh	r2, [r4, #1024]	@ movhi
 159 0056 E154     		strb	r1, [r4, r3]
  47:Generated_Source\PSoC5/CupSensor_CircularBuffer.c ****         buffer->sum += reading-oldData;
 160              		.loc 1 47 0
 161 0058 091A     		subs	r1, r1, r0
 162              	.LVL13:
 163 005a D4F80C04 		ldr	r0, [r4, #1036]
 164              	.LVL14:
 165 005e 0844     		add	r0, r0, r1
 166 0060 C4F80C04 		str	r0, [r4, #1036]
 167              	.LVL15:
  48:Generated_Source\PSoC5/CupSensor_CircularBuffer.c ****         buffer->average = (((float)buffer->sum)/buffer->size);
 168              		.loc 1 48 0
 169 0064 FFF7FEFF 		bl	__aeabi_ui2f
 170              	.LVL16:
 171 0068 0546     		mov	r5, r0
 172 006a B4F81004 		ldrh	r0, [r4, #1040]
 173 006e FFF7FEFF 		bl	__aeabi_i2f
 174              	.LVL17:
 175 0072 0146     		mov	r1, r0
 176 0074 2846     		mov	r0, r5
 177 0076 FFF7FEFF 		bl	__aeabi_fdiv
 178              	.LVL18:
ARM GAS  C:\Users\nikol\AppData\Local\Temp\cc4DjjaY.s 			page 5


 179 007a C4F80404 		str	r0, [r4, #1028]	@ float
 180              	.L10:
 181              	.LBE3:
  49:Generated_Source\PSoC5/CupSensor_CircularBuffer.c ****     }
  50:Generated_Source\PSoC5/CupSensor_CircularBuffer.c ****     
  51:Generated_Source\PSoC5/CupSensor_CircularBuffer.c ****     if(buffer->index >= buffer->size)
 182              		.loc 1 51 0
 183 007e B4F80024 		ldrh	r2, [r4, #1024]
 184 0082 B4F81034 		ldrh	r3, [r4, #1040]
 185 0086 9A42     		cmp	r2, r3
 186 0088 02D3     		bcc	.L8
  52:Generated_Source\PSoC5/CupSensor_CircularBuffer.c ****     {
  53:Generated_Source\PSoC5/CupSensor_CircularBuffer.c ****         buffer->index = 0;
 187              		.loc 1 53 0
 188 008a 0023     		movs	r3, #0
 189 008c A4F80034 		strh	r3, [r4, #1024]	@ movhi
 190              	.L8:
 191 0090 70BD     		pop	{r4, r5, r6, pc}
 192              		.cfi_endproc
 193              	.LFE2:
 194              		.size	CircularBuffer_insertReading, .-CircularBuffer_insertReading
 195 0092 00BF     		.section	.text.CircularBuffer_getLastReading,"ax",%progbits
 196              		.align	2
 197              		.global	CircularBuffer_getLastReading
 198              		.thumb
 199              		.thumb_func
 200              		.type	CircularBuffer_getLastReading, %function
 201              	CircularBuffer_getLastReading:
 202              	.LFB3:
  54:Generated_Source\PSoC5/CupSensor_CircularBuffer.c ****     }
  55:Generated_Source\PSoC5/CupSensor_CircularBuffer.c **** }
  56:Generated_Source\PSoC5/CupSensor_CircularBuffer.c **** 
  57:Generated_Source\PSoC5/CupSensor_CircularBuffer.c **** int8_t CircularBuffer_getLastReading(struct CircularBuffer* buffer, uint8_t * reading)
  58:Generated_Source\PSoC5/CupSensor_CircularBuffer.c **** {
 203              		.loc 1 58 0
 204              		.cfi_startproc
 205              		@ args = 0, pretend = 0, frame = 0
 206              		@ frame_needed = 0, uses_anonymous_args = 0
 207              		@ link register save eliminated.
 208              	.LVL19:
 209 0000 0346     		mov	r3, r0
  59:Generated_Source\PSoC5/CupSensor_CircularBuffer.c ****     if(buffer->index == 0)
 210              		.loc 1 59 0
 211 0002 B0F80024 		ldrh	r2, [r0, #1024]
 212 0006 42B9     		cbnz	r2, .L14
  60:Generated_Source\PSoC5/CupSensor_CircularBuffer.c ****     {
  61:Generated_Source\PSoC5/CupSensor_CircularBuffer.c ****         if(buffer->reset == 0)
 213              		.loc 1 61 0
 214 0008 90F90A04 		ldrsb	r0, [r0, #1034]
 215              	.LVL20:
 216 000c 50B9     		cbnz	r0, .L16
  62:Generated_Source\PSoC5/CupSensor_CircularBuffer.c ****         {
  63:Generated_Source\PSoC5/CupSensor_CircularBuffer.c ****             *reading = buffer->data[buffer->size - 1];
 217              		.loc 1 63 0
 218 000e B3F81024 		ldrh	r2, [r3, #1040]
 219 0012 013A     		subs	r2, r2, #1
 220 0014 9B5C     		ldrb	r3, [r3, r2]	@ zero_extendqisi2
ARM GAS  C:\Users\nikol\AppData\Local\Temp\cc4DjjaY.s 			page 6


 221              	.LVL21:
 222 0016 0B70     		strb	r3, [r1]
  64:Generated_Source\PSoC5/CupSensor_CircularBuffer.c ****             return 0; //No error
 223              		.loc 1 64 0
 224 0018 7047     		bx	lr
 225              	.LVL22:
 226              	.L14:
  65:Generated_Source\PSoC5/CupSensor_CircularBuffer.c ****         }
  66:Generated_Source\PSoC5/CupSensor_CircularBuffer.c ****         else
  67:Generated_Source\PSoC5/CupSensor_CircularBuffer.c ****         {
  68:Generated_Source\PSoC5/CupSensor_CircularBuffer.c ****             return -1; //Error
  69:Generated_Source\PSoC5/CupSensor_CircularBuffer.c ****         }
  70:Generated_Source\PSoC5/CupSensor_CircularBuffer.c ****     }
  71:Generated_Source\PSoC5/CupSensor_CircularBuffer.c ****     else
  72:Generated_Source\PSoC5/CupSensor_CircularBuffer.c ****     {
  73:Generated_Source\PSoC5/CupSensor_CircularBuffer.c ****         *reading = buffer->data[buffer->index - 1]; 
 227              		.loc 1 73 0
 228 001a 013A     		subs	r2, r2, #1
 229 001c 835C     		ldrb	r3, [r0, r2]	@ zero_extendqisi2
 230 001e 0B70     		strb	r3, [r1]
  74:Generated_Source\PSoC5/CupSensor_CircularBuffer.c ****         return 0; //No error
 231              		.loc 1 74 0
 232 0020 0020     		movs	r0, #0
 233              	.LVL23:
 234 0022 7047     		bx	lr
 235              	.LVL24:
 236              	.L16:
  68:Generated_Source\PSoC5/CupSensor_CircularBuffer.c ****         }
 237              		.loc 1 68 0
 238 0024 4FF0FF30 		mov	r0, #-1
  75:Generated_Source\PSoC5/CupSensor_CircularBuffer.c ****     }
  76:Generated_Source\PSoC5/CupSensor_CircularBuffer.c **** }
 239              		.loc 1 76 0
 240 0028 7047     		bx	lr
 241              		.cfi_endproc
 242              	.LFE3:
 243              		.size	CircularBuffer_getLastReading, .-CircularBuffer_getLastReading
 244 002a 00BF     		.section	.text.CircularBuffer_resetBuffer,"ax",%progbits
 245              		.align	2
 246              		.global	CircularBuffer_resetBuffer
 247              		.thumb
 248              		.thumb_func
 249              		.type	CircularBuffer_resetBuffer, %function
 250              	CircularBuffer_resetBuffer:
 251              	.LFB5:
  77:Generated_Source\PSoC5/CupSensor_CircularBuffer.c **** 
  78:Generated_Source\PSoC5/CupSensor_CircularBuffer.c **** 
  79:Generated_Source\PSoC5/CupSensor_CircularBuffer.c **** void CircularBuffer_init(struct CircularBuffer* buffer, uint16_t size)
  80:Generated_Source\PSoC5/CupSensor_CircularBuffer.c **** {
  81:Generated_Source\PSoC5/CupSensor_CircularBuffer.c ****     if(size > BUFFER_SIZE) size = BUFFER_SIZE;
  82:Generated_Source\PSoC5/CupSensor_CircularBuffer.c ****     buffer->size = size;
  83:Generated_Source\PSoC5/CupSensor_CircularBuffer.c ****     CircularBuffer_resetBuffer(buffer);
  84:Generated_Source\PSoC5/CupSensor_CircularBuffer.c **** }
  85:Generated_Source\PSoC5/CupSensor_CircularBuffer.c **** 
  86:Generated_Source\PSoC5/CupSensor_CircularBuffer.c **** void CircularBuffer_resetBuffer(struct CircularBuffer* buffer)
  87:Generated_Source\PSoC5/CupSensor_CircularBuffer.c **** {
 252              		.loc 1 87 0
ARM GAS  C:\Users\nikol\AppData\Local\Temp\cc4DjjaY.s 			page 7


 253              		.cfi_startproc
 254              		@ args = 0, pretend = 0, frame = 0
 255              		@ frame_needed = 0, uses_anonymous_args = 0
 256              		@ link register save eliminated.
 257              	.LVL25:
  88:Generated_Source\PSoC5/CupSensor_CircularBuffer.c ****     buffer->index = 0;
 258              		.loc 1 88 0
 259 0000 0023     		movs	r3, #0
 260 0002 A0F80034 		strh	r3, [r0, #1024]	@ movhi
  89:Generated_Source\PSoC5/CupSensor_CircularBuffer.c ****     buffer->average = -1;
 261              		.loc 1 89 0
 262 0006 074A     		ldr	r2, .L18
 263 0008 C0F80424 		str	r2, [r0, #1028]	@ float
  90:Generated_Source\PSoC5/CupSensor_CircularBuffer.c ****     buffer->min = 0xFF;
 264              		.loc 1 90 0
 265 000c FF22     		movs	r2, #255
 266 000e 80F80824 		strb	r2, [r0, #1032]
  91:Generated_Source\PSoC5/CupSensor_CircularBuffer.c ****     buffer->max = 0;
 267              		.loc 1 91 0
 268 0012 80F80934 		strb	r3, [r0, #1033]
  92:Generated_Source\PSoC5/CupSensor_CircularBuffer.c ****     buffer->reset = 1;
 269              		.loc 1 92 0
 270 0016 0122     		movs	r2, #1
 271 0018 80F80A24 		strb	r2, [r0, #1034]
  93:Generated_Source\PSoC5/CupSensor_CircularBuffer.c ****     buffer->sum = 0;
 272              		.loc 1 93 0
 273 001c C0F80C34 		str	r3, [r0, #1036]
 274 0020 7047     		bx	lr
 275              	.L19:
 276 0022 00BF     		.align	2
 277              	.L18:
 278 0024 000080BF 		.word	-1082130432
 279              		.cfi_endproc
 280              	.LFE5:
 281              		.size	CircularBuffer_resetBuffer, .-CircularBuffer_resetBuffer
 282              		.section	.text.CircularBuffer_init,"ax",%progbits
 283              		.align	2
 284              		.global	CircularBuffer_init
 285              		.thumb
 286              		.thumb_func
 287              		.type	CircularBuffer_init, %function
 288              	CircularBuffer_init:
 289              	.LFB4:
  80:Generated_Source\PSoC5/CupSensor_CircularBuffer.c ****     if(size > BUFFER_SIZE) size = BUFFER_SIZE;
 290              		.loc 1 80 0
 291              		.cfi_startproc
 292              		@ args = 0, pretend = 0, frame = 0
 293              		@ frame_needed = 0, uses_anonymous_args = 0
 294              	.LVL26:
 295 0000 08B5     		push	{r3, lr}
 296              		.cfi_def_cfa_offset 8
 297              		.cfi_offset 3, -8
 298              		.cfi_offset 14, -4
  81:Generated_Source\PSoC5/CupSensor_CircularBuffer.c ****     buffer->size = size;
 299              		.loc 1 81 0
 300 0002 B1F5806F 		cmp	r1, #1024
 301 0006 01D9     		bls	.L21
ARM GAS  C:\Users\nikol\AppData\Local\Temp\cc4DjjaY.s 			page 8


 302 0008 4FF48061 		mov	r1, #1024
 303              	.LVL27:
 304              	.L21:
  82:Generated_Source\PSoC5/CupSensor_CircularBuffer.c ****     CircularBuffer_resetBuffer(buffer);
 305              		.loc 1 82 0
 306 000c A0F81014 		strh	r1, [r0, #1040]	@ movhi
  83:Generated_Source\PSoC5/CupSensor_CircularBuffer.c **** }
 307              		.loc 1 83 0
 308 0010 FFF7FEFF 		bl	CircularBuffer_resetBuffer
 309              	.LVL28:
 310 0014 08BD     		pop	{r3, pc}
 311              		.cfi_endproc
 312              	.LFE4:
 313              		.size	CircularBuffer_init, .-CircularBuffer_init
 314 0016 00BF     		.text
 315              	.Letext0:
 316              		.file 2 "c:\\program files (x86)\\cypress\\psoc creator\\4.2\\psoc creator\\import\\gnu\\arm\\5.4.
 317              		.file 3 "c:\\program files (x86)\\cypress\\psoc creator\\4.2\\psoc creator\\import\\gnu\\arm\\5.4.
 318              		.file 4 "c:\\program files (x86)\\cypress\\psoc creator\\4.2\\psoc creator\\import\\gnu\\arm\\5.4.
 319              		.file 5 "Generated_Source\\PSoC5\\CupSensor_CircularBuffer.h"