ARM GAS  C:\Users\nikol\AppData\Local\Temp\ccALmMj1.s 			page 1


   1              		.syntax unified
   2              		.cpu cortex-m3
   3              		.fpu softvfp
   4              		.eabi_attribute 20, 1
   5              		.eabi_attribute 21, 1
   6              		.eabi_attribute 23, 3
   7              		.eabi_attribute 24, 1
   8              		.eabi_attribute 25, 1
   9              		.eabi_attribute 26, 1
  10              		.eabi_attribute 30, 1
  11              		.eabi_attribute 34, 1
  12              		.eabi_attribute 18, 4
  13              		.thumb
  14              		.syntax unified
  15              		.file	"GameController.c"
  16              		.text
  17              	.Ltext0:
  18              		.cfi_sections	.debug_frame
  19              		.section	.text.updateCupStatus,"ax",%progbits
  20              		.align	2
  21              		.global	updateCupStatus
  22              		.thumb
  23              		.thumb_func
  24              		.type	updateCupStatus, %function
  25              	updateCupStatus:
  26              	.LFB67:
  27              		.file 1 "GameController.c"
   1:GameController.c **** /* ========================================
   2:GameController.c ****  *
   3:GameController.c ****  * Copyright YOUR COMPANY, THE YEAR
   4:GameController.c ****  * All Rights Reserved
   5:GameController.c ****  * UNPUBLISHED, LICENSED SOFTWARE.
   6:GameController.c ****  *
   7:GameController.c ****  * CONFIDENTIAL AND PROPRIETARY INFORMATION
   8:GameController.c ****  * WHICH IS THE PROPERTY OF your company.
   9:GameController.c ****  *
  10:GameController.c ****  * ========================================
  11:GameController.c **** */
  12:GameController.c **** #include "GameController.h"
  13:GameController.c **** #include <stdint.h>
  14:GameController.c **** #include <stdio.h>
  15:GameController.c **** 
  16:GameController.c **** static int blinking =0;
  17:GameController.c **** static color_t turnedOffColor={.Red=0,.Green=0,.Blue=0,};
  18:GameController.c **** static color_t myColor={.Red=0,.Green=255,.Blue=0,};
  19:GameController.c **** static color_t opponentColor={.Red=255,.Green=0,.Blue=255,};
  20:GameController.c **** static color_t missingCupColor={.Red=255,.Green=255,.Blue=0,};
  21:GameController.c **** static color_t placedCupColor={.Red=0,.Green=0,.Blue=255,};
  22:GameController.c **** static uint8_t CupStatus;
  23:GameController.c **** static uint8_t hitStatus;
  24:GameController.c **** static char game_buf[256];
  25:GameController.c **** static uint8_t LED_states[8];
  26:GameController.c **** static uint8_t CupStatus_latest=0b11000000;
  27:GameController.c **** 
  28:GameController.c **** //#define STUB
  29:GameController.c **** //#define HIT_ANIMATION
  30:GameController.c **** 
ARM GAS  C:\Users\nikol\AppData\Local\Temp\ccALmMj1.s 			page 2


  31:GameController.c **** void setState(enum GameState state)
  32:GameController.c **** {
  33:GameController.c ****    switch(state)
  34:GameController.c ****     {
  35:GameController.c ****         case IDLE:
  36:GameController.c ****         {
  37:GameController.c ****                 currentState=state;
  38:GameController.c ****                 UART_PutString("State==IDLE\n\r");
  39:GameController.c ****                 controlAllLights(turnedOffColor);
  40:GameController.c ****         }
  41:GameController.c ****         break;
  42:GameController.c ****         case STARTING:
  43:GameController.c ****         {
  44:GameController.c ****                 currentState=state;
  45:GameController.c ****                 #ifdef STUB
  46:GameController.c ****                     CupStatus = 0;
  47:GameController.c ****                 #else
  48:GameController.c ****                     CupStatus=getStatus();
  49:GameController.c ****                 #endif
  50:GameController.c ****                 ControlLights();
  51:GameController.c ****                 sendCupStatus(CupStatus);
  52:GameController.c ****                 UART_PutString("State==STARTING\n\r");
  53:GameController.c ****         }
  54:GameController.c ****         break;
  55:GameController.c ****         case PLAYING:
  56:GameController.c ****         {
  57:GameController.c ****                 currentState=state;
  58:GameController.c ****                 CupStatus=getStatus();
  59:GameController.c ****                 #ifdef STUB
  60:GameController.c ****                     CupStatus = 0b00111111;
  61:GameController.c ****                 #else
  62:GameController.c ****                     CupStatus=getStatus();
  63:GameController.c ****                 #endif
  64:GameController.c ****                 ControlLights();
  65:GameController.c ****                 sendCupStatus(CupStatus);
  66:GameController.c ****                 UART_PutString("State==PLAYING\n\r");
  67:GameController.c ****         }
  68:GameController.c ****         break;
  69:GameController.c ****         case WON:
  70:GameController.c ****         {
  71:GameController.c ****                 currentState=state;
  72:GameController.c ****                 controlAllLights(myColor);
  73:GameController.c ****                 UART_PutString("state==WON\n\r");
  74:GameController.c ****         }
  75:GameController.c ****         break;
  76:GameController.c ****         case LOST:
  77:GameController.c ****         {
  78:GameController.c ****                 currentState=state;
  79:GameController.c ****                 controlAllLights(opponentColor);
  80:GameController.c ****                 UART_PutString("state==LOST\n\r");
  81:GameController.c ****         }  
  82:GameController.c ****          break;
  83:GameController.c ****     }
  84:GameController.c **** }
  85:GameController.c ****  void setMyColor(color_t c)
  86:GameController.c **** {
  87:GameController.c ****     myColor=c;
ARM GAS  C:\Users\nikol\AppData\Local\Temp\ccALmMj1.s 			page 3


  88:GameController.c ****     ControlLights();
  89:GameController.c **** }
  90:GameController.c ****  void setOpponentColor(color_t c)
  91:GameController.c **** {
  92:GameController.c ****     opponentColor=c;
  93:GameController.c ****      ControlLights();
  94:GameController.c **** }
  95:GameController.c ****  void updateCupStatus(uint8_t status)
  96:GameController.c **** {
  28              		.loc 1 96 0
  29              		.cfi_startproc
  30              		@ args = 0, pretend = 0, frame = 0
  31              		@ frame_needed = 0, uses_anonymous_args = 0
  32              		@ link register save eliminated.
  33              	.LVL0:
  97:GameController.c ****     //if(!(status & 1<<1) && (CupStatus & 1<<1)) test_LED_Write(0);
  98:GameController.c ****     //else test_LED_Write(0);
  99:GameController.c ****     
 100:GameController.c ****     if((currentState==STARTING || currentState==PLAYING) )
  34              		.loc 1 100 0
  35 0000 044B     		ldr	r3, .L3
  36 0002 1B78     		ldrb	r3, [r3]	@ zero_extendqisi2
  37 0004 013B     		subs	r3, r3, #1
  38 0006 DBB2     		uxtb	r3, r3
  39 0008 012B     		cmp	r3, #1
  40 000a 01D8     		bhi	.L1
 101:GameController.c ****     {
 102:GameController.c ****         CupStatus=status;
  41              		.loc 1 102 0
  42 000c 024B     		ldr	r3, .L3+4
  43 000e 1870     		strb	r0, [r3]
  44              	.L1:
  45 0010 7047     		bx	lr
  46              	.L4:
  47 0012 00BF     		.align	2
  48              	.L3:
  49 0014 00000000 		.word	currentState
  50 0018 00000000 		.word	.LANCHOR0
  51              		.cfi_endproc
  52              	.LFE67:
  53              		.size	updateCupStatus, .-updateCupStatus
  54              		.section	.text.updateHitStatus,"ax",%progbits
  55              		.align	2
  56              		.global	updateHitStatus
  57              		.thumb
  58              		.thumb_func
  59              		.type	updateHitStatus, %function
  60              	updateHitStatus:
  61              	.LFB68:
 103:GameController.c ****         //sprintf(game_buf,"Sending cupstatus. Updating cupstatus with cupstatus:%x\n\r",CupStatus)
 104:GameController.c ****         //UART_PutString(game_buf);
 105:GameController.c ****         //sendCupStatus(CupStatus);
 106:GameController.c ****     }
 107:GameController.c ****     
 108:GameController.c **** }
 109:GameController.c ****  void updateHitStatus(uint8_t status)
 110:GameController.c **** {
ARM GAS  C:\Users\nikol\AppData\Local\Temp\ccALmMj1.s 			page 4


  62              		.loc 1 110 0
  63              		.cfi_startproc
  64              		@ args = 0, pretend = 0, frame = 0
  65              		@ frame_needed = 0, uses_anonymous_args = 0
  66              	.LVL1:
 111:GameController.c ****     if(currentState==PLAYING && (status == getHitStatus()))
  67              		.loc 1 111 0
  68 0000 064B     		ldr	r3, .L9
  69 0002 1B78     		ldrb	r3, [r3]	@ zero_extendqisi2
  70 0004 022B     		cmp	r3, #2
  71 0006 08D1     		bne	.L8
 110:GameController.c ****     if(currentState==PLAYING && (status == getHitStatus()))
  72              		.loc 1 110 0 discriminator 1
  73 0008 10B5     		push	{r4, lr}
  74              		.cfi_def_cfa_offset 8
  75              		.cfi_offset 4, -8
  76              		.cfi_offset 14, -4
  77 000a 0446     		mov	r4, r0
  78              		.loc 1 111 0 discriminator 1
  79 000c FFF7FEFF 		bl	getHitStatus
  80              	.LVL2:
  81 0010 A042     		cmp	r0, r4
  82 0012 01D1     		bne	.L5
 112:GameController.c ****     {
 113:GameController.c ****         #ifdef HIT_ANIMATION
 114:GameController.c ****         if(status != hitStatus)
 115:GameController.c ****         {
 116:GameController.c ****             if((status^hitStatus)&(1<<0) && (status&(1<<0)))
 117:GameController.c ****             {
 118:GameController.c ****                 controlLight(0,opponentColor);
 119:GameController.c ****                 CyDelay(50);
 120:GameController.c ****                 controlLight(0,myColor);
 121:GameController.c ****                 controlLight(1,opponentColor);
 122:GameController.c ****                 controlLight(2,opponentColor);
 123:GameController.c ****                 CyDelay(50);
 124:GameController.c ****                 controlLight(1,myColor);
 125:GameController.c ****                 controlLight(2,myColor);
 126:GameController.c ****                 controlLight(3,opponentColor);
 127:GameController.c ****                 controlLight(4,opponentColor);
 128:GameController.c ****                 controlLight(5,opponentColor);
 129:GameController.c ****                 CyDelay(50);
 130:GameController.c ****                 controlLight(3,myColor);
 131:GameController.c ****                 controlLight(4,myColor);
 132:GameController.c ****                 controlLight(5,myColor);
 133:GameController.c ****                 
 134:GameController.c ****                 
 135:GameController.c ****             }
 136:GameController.c ****             else if((status^hitStatus)&(1<<1) && (status&(1<<1)))
 137:GameController.c ****             {
 138:GameController.c ****                 controlLight(1,opponentColor);
 139:GameController.c ****                 CyDelay(50);
 140:GameController.c ****                 controlLight(1,myColor);
 141:GameController.c ****                 
 142:GameController.c ****                 controlLight(0,opponentColor);
 143:GameController.c ****                 controlLight(2,opponentColor);
 144:GameController.c ****                 controlLight(3,opponentColor);
 145:GameController.c ****                 controlLight(4,opponentColor);
ARM GAS  C:\Users\nikol\AppData\Local\Temp\ccALmMj1.s 			page 5


 146:GameController.c ****                 CyDelay(50);
 147:GameController.c ****                 controlLight(0,myColor);
 148:GameController.c ****                 controlLight(2,myColor);
 149:GameController.c ****                 controlLight(3,myColor);
 150:GameController.c ****                 controlLight(4,myColor);
 151:GameController.c ****                 
 152:GameController.c ****                 controlLight(5,opponentColor);
 153:GameController.c ****                 CyDelay(50);
 154:GameController.c ****                 controlLight(5,myColor);
 155:GameController.c ****             }else if((status^hitStatus)&(1<<2) && (status&(1<<2)))
 156:GameController.c ****             {
 157:GameController.c ****                 controlLight(2,opponentColor);
 158:GameController.c ****                 CyDelay(50);
 159:GameController.c ****                 controlLight(2,myColor);
 160:GameController.c ****                 
 161:GameController.c ****                 controlLight(0,opponentColor);
 162:GameController.c ****                 controlLight(1,opponentColor);
 163:GameController.c ****                 controlLight(5,opponentColor);
 164:GameController.c ****                 controlLight(4,opponentColor);
 165:GameController.c ****                 CyDelay(50);
 166:GameController.c ****                 controlLight(0,myColor);
 167:GameController.c ****                 controlLight(1,myColor);
 168:GameController.c ****                 controlLight(5,myColor);
 169:GameController.c ****                 controlLight(4,myColor);
 170:GameController.c ****                 
 171:GameController.c ****                 controlLight(3,opponentColor);
 172:GameController.c ****                 CyDelay(50);
 173:GameController.c ****                 controlLight(3,myColor);
 174:GameController.c ****             }else if((status^hitStatus)&(1<<3) && (status&(1<<3)))
 175:GameController.c ****             {
 176:GameController.c ****                 controlLight(3,opponentColor);
 177:GameController.c ****                 CyDelay(50);
 178:GameController.c ****                 controlLight(3,myColor);
 179:GameController.c ****                 
 180:GameController.c ****                 controlLight(1,opponentColor);
 181:GameController.c ****                 controlLight(4,opponentColor);
 182:GameController.c ****                 CyDelay(50);
 183:GameController.c ****                 controlLight(1,myColor);
 184:GameController.c ****                 controlLight(4,myColor);
 185:GameController.c ****                 
 186:GameController.c ****                 controlLight(0,opponentColor);
 187:GameController.c ****                 controlLight(2,opponentColor);
 188:GameController.c ****                 controlLight(5,opponentColor);
 189:GameController.c ****                 CyDelay(50);
 190:GameController.c ****                 controlLight(0,myColor);
 191:GameController.c ****                 controlLight(2,myColor);
 192:GameController.c ****                 controlLight(5,myColor);
 193:GameController.c ****             }else if((status^hitStatus)&(1<<4) && (status&(1<<4)))
 194:GameController.c ****             {
 195:GameController.c ****                 controlLight(4,opponentColor);
 196:GameController.c ****                 CyDelay(50);
 197:GameController.c ****                 controlLight(4,myColor);
 198:GameController.c ****                 
 199:GameController.c ****                 controlLight(1,opponentColor);
 200:GameController.c ****                 controlLight(2,opponentColor);
 201:GameController.c ****                 controlLight(3,opponentColor);
 202:GameController.c ****                 controlLight(5,opponentColor);
ARM GAS  C:\Users\nikol\AppData\Local\Temp\ccALmMj1.s 			page 6


 203:GameController.c ****                 CyDelay(50);
 204:GameController.c ****                 controlLight(1,myColor);
 205:GameController.c ****                 controlLight(2,myColor);
 206:GameController.c ****                 controlLight(3,myColor);
 207:GameController.c ****                 controlLight(5,myColor);
 208:GameController.c ****                 
 209:GameController.c ****                 controlLight(0,opponentColor);
 210:GameController.c ****                 CyDelay(50);
 211:GameController.c ****                 controlLight(0,myColor);
 212:GameController.c ****             }else if((status^hitStatus)&(1<<5) && (status&(1<<5)))
 213:GameController.c ****             {
 214:GameController.c ****                 controlLight(5,opponentColor);
 215:GameController.c ****                 CyDelay(50);
 216:GameController.c ****                 controlLight(5,myColor);
 217:GameController.c ****                 
 218:GameController.c ****                 controlLight(2,opponentColor);
 219:GameController.c ****                 controlLight(4,opponentColor);
 220:GameController.c ****                 CyDelay(50);
 221:GameController.c ****                 controlLight(2,myColor);
 222:GameController.c ****                 controlLight(4,myColor);
 223:GameController.c ****                 
 224:GameController.c ****                 controlLight(0,opponentColor);
 225:GameController.c ****                 controlLight(1,opponentColor);
 226:GameController.c ****                 controlLight(3,opponentColor);
 227:GameController.c ****                 CyDelay(50);
 228:GameController.c ****                 controlLight(0,myColor);
 229:GameController.c ****                 controlLight(1,myColor);
 230:GameController.c ****                 controlLight(3,myColor);
 231:GameController.c ****             }
 232:GameController.c ****         }
 233:GameController.c ****         #endif
 234:GameController.c ****         hitStatus=status;
  83              		.loc 1 234 0
  84 0014 024B     		ldr	r3, .L9+4
  85 0016 5C70     		strb	r4, [r3, #1]
  86              	.L5:
  87 0018 10BD     		pop	{r4, pc}
  88              	.LVL3:
  89              	.L8:
  90              		.cfi_def_cfa_offset 0
  91              		.cfi_restore 4
  92              		.cfi_restore 14
  93 001a 7047     		bx	lr
  94              	.L10:
  95              		.align	2
  96              	.L9:
  97 001c 00000000 		.word	currentState
  98 0020 00000000 		.word	.LANCHOR0
  99              		.cfi_endproc
 100              	.LFE68:
 101              		.size	updateHitStatus, .-updateHitStatus
 102              		.section	.text.ControlLights,"ax",%progbits
 103              		.align	2
 104              		.global	ControlLights
 105              		.thumb
 106              		.thumb_func
 107              		.type	ControlLights, %function
ARM GAS  C:\Users\nikol\AppData\Local\Temp\ccALmMj1.s 			page 7


 108              	ControlLights:
 109              	.LFB69:
 235:GameController.c ****         //UART_PutString("Sending Hitstatus. Updating Hitstatus\n\r"); 
 236:GameController.c ****         
 237:GameController.c ****     }
 238:GameController.c **** }
 239:GameController.c **** 
 240:GameController.c **** void ControlLights()
 241:GameController.c **** {
 110              		.loc 1 241 0
 111              		.cfi_startproc
 112              		@ args = 0, pretend = 0, frame = 0
 113              		@ frame_needed = 0, uses_anonymous_args = 0
 114 0000 10B5     		push	{r4, lr}
 115              		.cfi_def_cfa_offset 8
 116              		.cfi_offset 4, -8
 117              		.cfi_offset 14, -4
 242:GameController.c ****     if(currentState==STARTING){
 118              		.loc 1 242 0
 119 0002 1E4B     		ldr	r3, .L23
 120 0004 1B78     		ldrb	r3, [r3]	@ zero_extendqisi2
 121 0006 012B     		cmp	r3, #1
 122 0008 1AD1     		bne	.L12
 243:GameController.c ****         UART_PutString("Controlling lights\n\r");
 123              		.loc 1 243 0
 124 000a 1D48     		ldr	r0, .L23+4
 125 000c FFF7FEFF 		bl	UART_PutString
 126              	.LVL4:
 127              	.LBB2:
 244:GameController.c ****         for(int i=0;i<6;i++)
 128              		.loc 1 244 0
 129 0010 0024     		movs	r4, #0
 130 0012 12E0     		b	.L13
 131              	.LVL5:
 132              	.L16:
 245:GameController.c ****         {
 246:GameController.c ****             if(((~CupStatus)>>i) & 1)
 133              		.loc 1 246 0
 134 0014 1B4B     		ldr	r3, .L23+8
 135 0016 1B78     		ldrb	r3, [r3]	@ zero_extendqisi2
 136 0018 DB43     		mvns	r3, r3
 137 001a 2341     		asrs	r3, r3, r4
 138 001c 13F0010F 		tst	r3, #1
 139 0020 05D0     		beq	.L14
 247:GameController.c ****                 controlLight(i,missingCupColor);
 140              		.loc 1 247 0
 141 0022 194B     		ldr	r3, .L23+12
 142 0024 1968     		ldr	r1, [r3]
 143 0026 E0B2     		uxtb	r0, r4
 144 0028 FFF7FEFF 		bl	controlLight
 145              	.LVL6:
 146 002c 04E0     		b	.L15
 147              	.L14:
 248:GameController.c ****             else
 249:GameController.c ****                 controlLight(i,placedCupColor);
 148              		.loc 1 249 0
 149 002e 164B     		ldr	r3, .L23+12
ARM GAS  C:\Users\nikol\AppData\Local\Temp\ccALmMj1.s 			page 8


 150 0030 5968     		ldr	r1, [r3, #4]
 151 0032 E0B2     		uxtb	r0, r4
 152 0034 FFF7FEFF 		bl	controlLight
 153              	.LVL7:
 154              	.L15:
 244:GameController.c ****         {
 155              		.loc 1 244 0 discriminator 2
 156 0038 0134     		adds	r4, r4, #1
 157              	.LVL8:
 158              	.L13:
 244:GameController.c ****         {
 159              		.loc 1 244 0 is_stmt 0 discriminator 1
 160 003a 052C     		cmp	r4, #5
 161 003c EADD     		ble	.L16
 162 003e 10BD     		pop	{r4, pc}
 163              	.LVL9:
 164              	.L12:
 165              	.LBE2:
 250:GameController.c ****         }
 251:GameController.c ****     }else if( currentState==PLAYING){
 166              		.loc 1 251 0 is_stmt 1
 167 0040 022B     		cmp	r3, #2
 168 0042 19D1     		bne	.L11
 252:GameController.c ****         UART_PutString("Controlling lights\n\r");
 169              		.loc 1 252 0
 170 0044 0E48     		ldr	r0, .L23+4
 171 0046 FFF7FEFF 		bl	UART_PutString
 172              	.LVL10:
 173              	.LBB3:
 253:GameController.c ****         for(int i=0;i<6;i++)
 174              		.loc 1 253 0
 175 004a 0024     		movs	r4, #0
 176 004c 12E0     		b	.L18
 177              	.LVL11:
 178              	.L21:
 254:GameController.c ****         {
 255:GameController.c ****             if(((~CupStatus)>>i) & 1)
 179              		.loc 1 255 0
 180 004e 0D4B     		ldr	r3, .L23+8
 181 0050 1B78     		ldrb	r3, [r3]	@ zero_extendqisi2
 182 0052 DB43     		mvns	r3, r3
 183 0054 2341     		asrs	r3, r3, r4
 184 0056 13F0010F 		tst	r3, #1
 185 005a 05D0     		beq	.L19
 256:GameController.c ****                 controlLight(i,opponentColor);
 186              		.loc 1 256 0
 187 005c 0B4B     		ldr	r3, .L23+16
 188 005e 1968     		ldr	r1, [r3]
 189 0060 E0B2     		uxtb	r0, r4
 190 0062 FFF7FEFF 		bl	controlLight
 191              	.LVL12:
 192 0066 04E0     		b	.L20
 193              	.L19:
 257:GameController.c ****             else
 258:GameController.c ****                 controlLight(i,myColor);
 194              		.loc 1 258 0
 195 0068 084B     		ldr	r3, .L23+16
ARM GAS  C:\Users\nikol\AppData\Local\Temp\ccALmMj1.s 			page 9


 196 006a 5968     		ldr	r1, [r3, #4]
 197 006c E0B2     		uxtb	r0, r4
 198 006e FFF7FEFF 		bl	controlLight
 199              	.LVL13:
 200              	.L20:
 253:GameController.c ****         {
 201              		.loc 1 253 0 discriminator 2
 202 0072 0134     		adds	r4, r4, #1
 203              	.LVL14:
 204              	.L18:
 253:GameController.c ****         {
 205              		.loc 1 253 0 is_stmt 0 discriminator 1
 206 0074 052C     		cmp	r4, #5
 207 0076 EADD     		ble	.L21
 208              	.LVL15:
 209              	.L11:
 210 0078 10BD     		pop	{r4, pc}
 211              	.L24:
 212 007a 00BF     		.align	2
 213              	.L23:
 214 007c 00000000 		.word	currentState
 215 0080 00000000 		.word	.LC0
 216 0084 00000000 		.word	.LANCHOR0
 217 0088 00000000 		.word	.LANCHOR1
 218 008c 00000000 		.word	.LANCHOR2
 219              	.LBE3:
 220              		.cfi_endproc
 221              	.LFE69:
 222              		.size	ControlLights, .-ControlLights
 223              		.section	.text.setState,"ax",%progbits
 224              		.align	2
 225              		.global	setState
 226              		.thumb
 227              		.thumb_func
 228              		.type	setState, %function
 229              	setState:
 230              	.LFB64:
  32:GameController.c ****    switch(state)
 231              		.loc 1 32 0 is_stmt 1
 232              		.cfi_startproc
 233              		@ args = 0, pretend = 0, frame = 0
 234              		@ frame_needed = 0, uses_anonymous_args = 0
 235              	.LVL16:
 236 0000 10B5     		push	{r4, lr}
 237              		.cfi_def_cfa_offset 8
 238              		.cfi_offset 4, -8
 239              		.cfi_offset 14, -4
  33:GameController.c ****     {
 240              		.loc 1 33 0
 241 0002 0428     		cmp	r0, #4
 242 0004 42D8     		bhi	.L25
 243 0006 DFE800F0 		tbb	[pc, r0]
 244              	.L28:
 245 000a 03       		.byte	(.L27-.L28)/2
 246 000b 0D       		.byte	(.L29-.L28)/2
 247 000c 1C       		.byte	(.L30-.L28)/2
 248 000d 2E       		.byte	(.L31-.L28)/2
ARM GAS  C:\Users\nikol\AppData\Local\Temp\ccALmMj1.s 			page 10


 249 000e 38       		.byte	(.L32-.L28)/2
 250 000f 00       		.p2align 1
 251              	.L27:
  37:GameController.c ****                 UART_PutString("State==IDLE\n\r");
 252              		.loc 1 37 0
 253 0010 1F4B     		ldr	r3, .L34
 254 0012 1870     		strb	r0, [r3]
  38:GameController.c ****                 controlAllLights(turnedOffColor);
 255              		.loc 1 38 0
 256 0014 1F48     		ldr	r0, .L34+4
 257              	.LVL17:
 258 0016 FFF7FEFF 		bl	UART_PutString
 259              	.LVL18:
  39:GameController.c ****         }
 260              		.loc 1 39 0
 261 001a 1F4B     		ldr	r3, .L34+8
 262 001c 9868     		ldr	r0, [r3, #8]
 263 001e FFF7FEFF 		bl	controlAllLights
 264              	.LVL19:
  41:GameController.c ****         case STARTING:
 265              		.loc 1 41 0
 266 0022 10BD     		pop	{r4, pc}
 267              	.LVL20:
 268              	.L29:
  44:GameController.c ****                 #ifdef STUB
 269              		.loc 1 44 0
 270 0024 1A4B     		ldr	r3, .L34
 271 0026 1870     		strb	r0, [r3]
  48:GameController.c ****                 #endif
 272              		.loc 1 48 0
 273 0028 FFF7FEFF 		bl	getStatus
 274              	.LVL21:
 275 002c 1B4C     		ldr	r4, .L34+12
 276 002e 2070     		strb	r0, [r4]
  50:GameController.c ****                 sendCupStatus(CupStatus);
 277              		.loc 1 50 0
 278 0030 FFF7FEFF 		bl	ControlLights
 279              	.LVL22:
  51:GameController.c ****                 UART_PutString("State==STARTING\n\r");
 280              		.loc 1 51 0
 281 0034 2078     		ldrb	r0, [r4]	@ zero_extendqisi2
 282 0036 FFF7FEFF 		bl	sendCupStatus
 283              	.LVL23:
  52:GameController.c ****         }
 284              		.loc 1 52 0
 285 003a 1948     		ldr	r0, .L34+16
 286 003c FFF7FEFF 		bl	UART_PutString
 287              	.LVL24:
  54:GameController.c ****         case PLAYING:
 288              		.loc 1 54 0
 289 0040 10BD     		pop	{r4, pc}
 290              	.LVL25:
 291              	.L30:
  57:GameController.c ****                 CupStatus=getStatus();
 292              		.loc 1 57 0
 293 0042 134B     		ldr	r3, .L34
 294 0044 1870     		strb	r0, [r3]
ARM GAS  C:\Users\nikol\AppData\Local\Temp\ccALmMj1.s 			page 11


  58:GameController.c ****                 #ifdef STUB
 295              		.loc 1 58 0
 296 0046 FFF7FEFF 		bl	getStatus
 297              	.LVL26:
 298 004a 144C     		ldr	r4, .L34+12
 299 004c 2070     		strb	r0, [r4]
  62:GameController.c ****                 #endif
 300              		.loc 1 62 0
 301 004e FFF7FEFF 		bl	getStatus
 302              	.LVL27:
 303 0052 2070     		strb	r0, [r4]
  64:GameController.c ****                 sendCupStatus(CupStatus);
 304              		.loc 1 64 0
 305 0054 FFF7FEFF 		bl	ControlLights
 306              	.LVL28:
  65:GameController.c ****                 UART_PutString("State==PLAYING\n\r");
 307              		.loc 1 65 0
 308 0058 2078     		ldrb	r0, [r4]	@ zero_extendqisi2
 309 005a FFF7FEFF 		bl	sendCupStatus
 310              	.LVL29:
  66:GameController.c ****         }
 311              		.loc 1 66 0
 312 005e 1148     		ldr	r0, .L34+20
 313 0060 FFF7FEFF 		bl	UART_PutString
 314              	.LVL30:
  68:GameController.c ****         case WON:
 315              		.loc 1 68 0
 316 0064 10BD     		pop	{r4, pc}
 317              	.LVL31:
 318              	.L31:
  71:GameController.c ****                 controlAllLights(myColor);
 319              		.loc 1 71 0
 320 0066 0A4B     		ldr	r3, .L34
 321 0068 1870     		strb	r0, [r3]
  72:GameController.c ****                 UART_PutString("state==WON\n\r");
 322              		.loc 1 72 0
 323 006a 0F4B     		ldr	r3, .L34+24
 324 006c 5868     		ldr	r0, [r3, #4]
 325              	.LVL32:
 326 006e FFF7FEFF 		bl	controlAllLights
 327              	.LVL33:
  73:GameController.c ****         }
 328              		.loc 1 73 0
 329 0072 0E48     		ldr	r0, .L34+28
 330 0074 FFF7FEFF 		bl	UART_PutString
 331              	.LVL34:
  75:GameController.c ****         case LOST:
 332              		.loc 1 75 0
 333 0078 10BD     		pop	{r4, pc}
 334              	.LVL35:
 335              	.L32:
  78:GameController.c ****                 controlAllLights(opponentColor);
 336              		.loc 1 78 0
 337 007a 054B     		ldr	r3, .L34
 338 007c 1870     		strb	r0, [r3]
  79:GameController.c ****                 UART_PutString("state==LOST\n\r");
 339              		.loc 1 79 0
ARM GAS  C:\Users\nikol\AppData\Local\Temp\ccALmMj1.s 			page 12


 340 007e 0A4B     		ldr	r3, .L34+24
 341 0080 1868     		ldr	r0, [r3]
 342              	.LVL36:
 343 0082 FFF7FEFF 		bl	controlAllLights
 344              	.LVL37:
  80:GameController.c ****         }  
 345              		.loc 1 80 0
 346 0086 0A48     		ldr	r0, .L34+32
 347 0088 FFF7FEFF 		bl	UART_PutString
 348              	.LVL38:
 349              	.L25:
 350 008c 10BD     		pop	{r4, pc}
 351              	.L35:
 352 008e 00BF     		.align	2
 353              	.L34:
 354 0090 00000000 		.word	currentState
 355 0094 18000000 		.word	.LC1
 356 0098 00000000 		.word	.LANCHOR1
 357 009c 00000000 		.word	.LANCHOR0
 358 00a0 28000000 		.word	.LC2
 359 00a4 3C000000 		.word	.LC3
 360 00a8 00000000 		.word	.LANCHOR2
 361 00ac 50000000 		.word	.LC4
 362 00b0 60000000 		.word	.LC5
 363              		.cfi_endproc
 364              	.LFE64:
 365              		.size	setState, .-setState
 366              		.section	.text.setMyColor,"ax",%progbits
 367              		.align	2
 368              		.global	setMyColor
 369              		.thumb
 370              		.thumb_func
 371              		.type	setMyColor, %function
 372              	setMyColor:
 373              	.LFB65:
  86:GameController.c ****     myColor=c;
 374              		.loc 1 86 0
 375              		.cfi_startproc
 376              		@ args = 0, pretend = 0, frame = 8
 377              		@ frame_needed = 0, uses_anonymous_args = 0
 378 0000 00B5     		push	{lr}
 379              		.cfi_def_cfa_offset 4
 380              		.cfi_offset 14, -4
 381 0002 83B0     		sub	sp, sp, #12
 382              		.cfi_def_cfa_offset 16
  87:GameController.c ****     ControlLights();
 383              		.loc 1 87 0
 384 0004 044B     		ldr	r3, .L38
 385 0006 9880     		strh	r0, [r3, #4]	@ movhi
 386 0008 000C     		lsrs	r0, r0, #16
 387 000a 9871     		strb	r0, [r3, #6]
  88:GameController.c **** }
 388              		.loc 1 88 0
 389 000c FFF7FEFF 		bl	ControlLights
 390              	.LVL39:
  89:GameController.c ****  void setOpponentColor(color_t c)
 391              		.loc 1 89 0
ARM GAS  C:\Users\nikol\AppData\Local\Temp\ccALmMj1.s 			page 13


 392 0010 03B0     		add	sp, sp, #12
 393              		.cfi_def_cfa_offset 4
 394              		@ sp needed
 395 0012 5DF804FB 		ldr	pc, [sp], #4
 396              	.L39:
 397 0016 00BF     		.align	2
 398              	.L38:
 399 0018 00000000 		.word	.LANCHOR2
 400              		.cfi_endproc
 401              	.LFE65:
 402              		.size	setMyColor, .-setMyColor
 403              		.section	.text.setOpponentColor,"ax",%progbits
 404              		.align	2
 405              		.global	setOpponentColor
 406              		.thumb
 407              		.thumb_func
 408              		.type	setOpponentColor, %function
 409              	setOpponentColor:
 410              	.LFB66:
  91:GameController.c ****     opponentColor=c;
 411              		.loc 1 91 0
 412              		.cfi_startproc
 413              		@ args = 0, pretend = 0, frame = 8
 414              		@ frame_needed = 0, uses_anonymous_args = 0
 415 0000 00B5     		push	{lr}
 416              		.cfi_def_cfa_offset 4
 417              		.cfi_offset 14, -4
 418 0002 83B0     		sub	sp, sp, #12
 419              		.cfi_def_cfa_offset 16
  92:GameController.c ****      ControlLights();
 420              		.loc 1 92 0
 421 0004 044B     		ldr	r3, .L42
 422 0006 1880     		strh	r0, [r3]	@ movhi
 423 0008 000C     		lsrs	r0, r0, #16
 424 000a 9870     		strb	r0, [r3, #2]
  93:GameController.c **** }
 425              		.loc 1 93 0
 426 000c FFF7FEFF 		bl	ControlLights
 427              	.LVL40:
  94:GameController.c ****  void updateCupStatus(uint8_t status)
 428              		.loc 1 94 0
 429 0010 03B0     		add	sp, sp, #12
 430              		.cfi_def_cfa_offset 4
 431              		@ sp needed
 432 0012 5DF804FB 		ldr	pc, [sp], #4
 433              	.L43:
 434 0016 00BF     		.align	2
 435              	.L42:
 436 0018 00000000 		.word	.LANCHOR2
 437              		.cfi_endproc
 438              	.LFE66:
 439              		.size	setOpponentColor, .-setOpponentColor
 440              		.section	.text.Controller,"ax",%progbits
 441              		.align	2
 442              		.global	Controller
 443              		.thumb
 444              		.thumb_func
ARM GAS  C:\Users\nikol\AppData\Local\Temp\ccALmMj1.s 			page 14


 445              		.type	Controller, %function
 446              	Controller:
 447              	.LFB70:
 259:GameController.c ****         }
 260:GameController.c ****     }
 261:GameController.c **** }
 262:GameController.c **** 
 263:GameController.c **** void Controller()
 264:GameController.c **** {
 448              		.loc 1 264 0
 449              		.cfi_startproc
 450              		@ args = 0, pretend = 0, frame = 0
 451              		@ frame_needed = 0, uses_anonymous_args = 0
 452 0000 10B5     		push	{r4, lr}
 453              		.cfi_def_cfa_offset 8
 454              		.cfi_offset 4, -8
 455              		.cfi_offset 14, -4
 265:GameController.c ****     RPi_IF_handleData();
 456              		.loc 1 265 0
 457 0002 FFF7FEFF 		bl	RPi_IF_handleData
 458              	.LVL41:
 266:GameController.c ****     //CupStatus = getStatus();
 267:GameController.c ****     if(currentState==STARTING || currentState==PLAYING){
 459              		.loc 1 267 0
 460 0006 244B     		ldr	r3, .L50
 461 0008 1B78     		ldrb	r3, [r3]	@ zero_extendqisi2
 462 000a 013B     		subs	r3, r3, #1
 463 000c DBB2     		uxtb	r3, r3
 464 000e 012B     		cmp	r3, #1
 465 0010 37D8     		bhi	.L45
 268:GameController.c ****         if(CupStatus!=CupStatus_latest){
 466              		.loc 1 268 0
 467 0012 224B     		ldr	r3, .L50+4
 468 0014 1B78     		ldrb	r3, [r3]	@ zero_extendqisi2
 469 0016 224A     		ldr	r2, .L50+8
 470 0018 D279     		ldrb	r2, [r2, #7]	@ zero_extendqisi2
 471 001a 9342     		cmp	r3, r2
 472 001c 0DD0     		beq	.L46
 269:GameController.c ****             CupStatus_latest=CupStatus;
 473              		.loc 1 269 0
 474 001e 204A     		ldr	r2, .L50+8
 475 0020 D371     		strb	r3, [r2, #7]
 270:GameController.c ****             ControlLights();
 476              		.loc 1 270 0
 477 0022 FFF7FEFF 		bl	ControlLights
 478              	.LVL42:
 271:GameController.c ****             sprintf(game_buf,"Cupstatus change:%d\n\r",CupStatus);
 479              		.loc 1 271 0
 480 0026 1D4C     		ldr	r4, .L50+4
 481 0028 14F8042B 		ldrb	r2, [r4], #4	@ zero_extendqisi2
 482 002c 1D49     		ldr	r1, .L50+12
 483 002e 2046     		mov	r0, r4
 484 0030 FFF7FEFF 		bl	sprintf
 485              	.LVL43:
 272:GameController.c ****             UART_PutString(game_buf);
 486              		.loc 1 272 0
 487 0034 2046     		mov	r0, r4
ARM GAS  C:\Users\nikol\AppData\Local\Temp\ccALmMj1.s 			page 15


 488 0036 FFF7FEFF 		bl	UART_PutString
 489              	.LVL44:
 490              	.L46:
 273:GameController.c ****         }
 274:GameController.c ****     if(currentState==PLAYING)
 491              		.loc 1 274 0
 492 003a 174B     		ldr	r3, .L50
 493 003c 1B78     		ldrb	r3, [r3]	@ zero_extendqisi2
 494 003e 022B     		cmp	r3, #2
 495 0040 29D1     		bne	.L44
 275:GameController.c ****     {
 276:GameController.c ****         if(hitStatus && !blinking)
 496              		.loc 1 276 0
 497 0042 164B     		ldr	r3, .L50+4
 498 0044 5B78     		ldrb	r3, [r3, #1]	@ zero_extendqisi2
 499 0046 6BB1     		cbz	r3, .L48
 500              		.loc 1 276 0 is_stmt 0 discriminator 1
 501 0048 144A     		ldr	r2, .L50+4
 502 004a D2F80421 		ldr	r2, [r2, #260]
 503 004e 4AB9     		cbnz	r2, .L48
 277:GameController.c ****         {
 278:GameController.c ****             UART_PutString("Starting timer\n\r");
 504              		.loc 1 278 0 is_stmt 1
 505 0050 1548     		ldr	r0, .L50+16
 506 0052 FFF7FEFF 		bl	UART_PutString
 507              	.LVL45:
 279:GameController.c ****             Timer_Start();
 508              		.loc 1 279 0
 509 0056 FFF7FEFF 		bl	Timer_Start
 510              	.LVL46:
 280:GameController.c ****             blinking=1;
 511              		.loc 1 280 0
 512 005a 0122     		movs	r2, #1
 513 005c 0F4B     		ldr	r3, .L50+4
 514 005e C3F80421 		str	r2, [r3, #260]
 515 0062 10BD     		pop	{r4, pc}
 516              	.L48:
 281:GameController.c ****         }
 282:GameController.c ****         else if(!hitStatus && blinking)
 517              		.loc 1 282 0
 518 0064 BBB9     		cbnz	r3, .L44
 519              		.loc 1 282 0 is_stmt 0 discriminator 1
 520 0066 0D4B     		ldr	r3, .L50+4
 521 0068 D3F80431 		ldr	r3, [r3, #260]
 522 006c 9BB1     		cbz	r3, .L44
 283:GameController.c ****         {
 284:GameController.c ****             UART_PutString("Stopping timer\n\r");
 523              		.loc 1 284 0 is_stmt 1
 524 006e 0F48     		ldr	r0, .L50+20
 525 0070 FFF7FEFF 		bl	UART_PutString
 526              	.LVL47:
 285:GameController.c ****             Timer_Stop(); 
 527              		.loc 1 285 0
 528 0074 FFF7FEFF 		bl	Timer_Stop
 529              	.LVL48:
 286:GameController.c ****             blinking=0;
 530              		.loc 1 286 0
ARM GAS  C:\Users\nikol\AppData\Local\Temp\ccALmMj1.s 			page 16


 531 0078 0022     		movs	r2, #0
 532 007a 084B     		ldr	r3, .L50+4
 533 007c C3F80421 		str	r2, [r3, #260]
 534 0080 10BD     		pop	{r4, pc}
 535              	.L45:
 287:GameController.c ****         }
 288:GameController.c ****     }
 289:GameController.c ****     }
 290:GameController.c ****     else
 291:GameController.c ****     {
 292:GameController.c ****         if(blinking){
 536              		.loc 1 292 0
 537 0082 064B     		ldr	r3, .L50+4
 538 0084 D3F80431 		ldr	r3, [r3, #260]
 539 0088 2BB1     		cbz	r3, .L44
 293:GameController.c ****             Timer_Stop();
 540              		.loc 1 293 0
 541 008a FFF7FEFF 		bl	Timer_Stop
 542              	.LVL49:
 294:GameController.c ****             blinking=0;
 543              		.loc 1 294 0
 544 008e 0022     		movs	r2, #0
 545 0090 024B     		ldr	r3, .L50+4
 546 0092 C3F80421 		str	r2, [r3, #260]
 547              	.L44:
 548 0096 10BD     		pop	{r4, pc}
 549              	.L51:
 550              		.align	2
 551              	.L50:
 552 0098 00000000 		.word	currentState
 553 009c 00000000 		.word	.LANCHOR0
 554 00a0 00000000 		.word	.LANCHOR2
 555 00a4 70000000 		.word	.LC6
 556 00a8 88000000 		.word	.LC7
 557 00ac 9C000000 		.word	.LC8
 558              		.cfi_endproc
 559              	.LFE70:
 560              		.size	Controller, .-Controller
 561              		.section	.text.interruptBlink,"ax",%progbits
 562              		.align	2
 563              		.global	interruptBlink
 564              		.thumb
 565              		.thumb_func
 566              		.type	interruptBlink, %function
 567              	interruptBlink:
 568              	.LFB71:
 295:GameController.c ****         }
 296:GameController.c ****     }
 297:GameController.c **** }
 298:GameController.c **** 
 299:GameController.c **** 
 300:GameController.c **** void interruptBlink()
 301:GameController.c **** { 
 569              		.loc 1 301 0
 570              		.cfi_startproc
 571              		@ args = 0, pretend = 0, frame = 0
 572              		@ frame_needed = 0, uses_anonymous_args = 0
ARM GAS  C:\Users\nikol\AppData\Local\Temp\ccALmMj1.s 			page 17


 573 0000 38B5     		push	{r3, r4, r5, lr}
 574              		.cfi_def_cfa_offset 16
 575              		.cfi_offset 3, -16
 576              		.cfi_offset 4, -12
 577              		.cfi_offset 5, -8
 578              		.cfi_offset 14, -4
 302:GameController.c ****     if(currentState==PLAYING)
 579              		.loc 1 302 0
 580 0002 164B     		ldr	r3, .L60
 581 0004 1B78     		ldrb	r3, [r3]	@ zero_extendqisi2
 582 0006 022B     		cmp	r3, #2
 583 0008 27D1     		bne	.L52
 584 000a 23E0     		b	.L58
 585              	.LVL50:
 586              	.L57:
 587              	.LBB4:
 303:GameController.c ****         for(uint8_t i=0;i<6;i++)
 304:GameController.c ****         {
 305:GameController.c ****             if((hitStatus>>i) & 1){
 588              		.loc 1 305 0
 589 000c 2546     		mov	r5, r4
 590 000e 144B     		ldr	r3, .L60+4
 591 0010 5B78     		ldrb	r3, [r3, #1]	@ zero_extendqisi2
 592 0012 2341     		asrs	r3, r3, r4
 593 0014 13F0010F 		tst	r3, #1
 594 0018 19D0     		beq	.L55
 306:GameController.c ****                 if(LED_states[i]){
 595              		.loc 1 306 0
 596 001a 114B     		ldr	r3, .L60+4
 597 001c 2344     		add	r3, r3, r4
 598 001e 93F80831 		ldrb	r3, [r3, #264]	@ zero_extendqisi2
 599 0022 53B1     		cbz	r3, .L56
 307:GameController.c ****                     controlLight(i,myColor);
 600              		.loc 1 307 0
 601 0024 0F4B     		ldr	r3, .L60+8
 602 0026 5968     		ldr	r1, [r3, #4]
 603 0028 2046     		mov	r0, r4
 604 002a FFF7FEFF 		bl	controlLight
 605              	.LVL51:
 308:GameController.c ****                     LED_states[i]=0;}
 606              		.loc 1 308 0
 607 002e 0C4B     		ldr	r3, .L60+4
 608 0030 1D44     		add	r5, r5, r3
 609 0032 0023     		movs	r3, #0
 610 0034 85F80831 		strb	r3, [r5, #264]
 611 0038 09E0     		b	.L55
 612              	.L56:
 309:GameController.c ****                 else{
 310:GameController.c ****                     controlLight(i,opponentColor);
 613              		.loc 1 310 0
 614 003a 0A4B     		ldr	r3, .L60+8
 615 003c 1968     		ldr	r1, [r3]
 616 003e 2046     		mov	r0, r4
 617 0040 FFF7FEFF 		bl	controlLight
 618              	.LVL52:
 311:GameController.c ****                     LED_states[i]=1;}
 619              		.loc 1 311 0
ARM GAS  C:\Users\nikol\AppData\Local\Temp\ccALmMj1.s 			page 18


 620 0044 064B     		ldr	r3, .L60+4
 621 0046 1D44     		add	r5, r5, r3
 622 0048 0123     		movs	r3, #1
 623 004a 85F80831 		strb	r3, [r5, #264]
 624              	.L55:
 303:GameController.c ****         {
 625              		.loc 1 303 0 discriminator 2
 626 004e 0134     		adds	r4, r4, #1
 627              	.LVL53:
 628 0050 E4B2     		uxtb	r4, r4
 629              	.LVL54:
 630 0052 00E0     		b	.L53
 631              	.LVL55:
 632              	.L58:
 633              	.LBE4:
 634 0054 0024     		movs	r4, #0
 635              	.L53:
 636              	.LVL56:
 637              	.LBB5:
 303:GameController.c ****         {
 638              		.loc 1 303 0 is_stmt 0 discriminator 1
 639 0056 052C     		cmp	r4, #5
 640 0058 D8D9     		bls	.L57
 641              	.LVL57:
 642              	.L52:
 643 005a 38BD     		pop	{r3, r4, r5, pc}
 644              	.L61:
 645              		.align	2
 646              	.L60:
 647 005c 00000000 		.word	currentState
 648 0060 00000000 		.word	.LANCHOR0
 649 0064 00000000 		.word	.LANCHOR2
 650              	.LBE5:
 651              		.cfi_endproc
 652              	.LFE71:
 653              		.size	interruptBlink, .-interruptBlink
 654              		.comm	currentState,1,1
 655              		.section	.rodata
 656              		.align	2
 657              		.set	.LANCHOR1,. + 0
 658              		.type	missingCupColor, %object
 659              		.size	missingCupColor, 3
 660              	missingCupColor:
 661 0000 FF       		.byte	-1
 662 0001 FF       		.byte	-1
 663 0002 00       		.byte	0
 664 0003 00       		.space	1
 665              		.type	placedCupColor, %object
 666              		.size	placedCupColor, 3
 667              	placedCupColor:
 668 0004 00       		.byte	0
 669 0005 00       		.byte	0
 670 0006 FF       		.byte	-1
 671 0007 00       		.space	1
 672              		.type	turnedOffColor, %object
 673              		.size	turnedOffColor, 3
 674              	turnedOffColor:
ARM GAS  C:\Users\nikol\AppData\Local\Temp\ccALmMj1.s 			page 19


 675 0008 000000   		.space	3
 676              		.data
 677              		.align	2
 678              		.set	.LANCHOR2,. + 0
 679              		.type	opponentColor, %object
 680              		.size	opponentColor, 3
 681              	opponentColor:
 682 0000 FF       		.byte	-1
 683 0001 00       		.byte	0
 684 0002 FF       		.byte	-1
 685 0003 00       		.space	1
 686              		.type	myColor, %object
 687              		.size	myColor, 3
 688              	myColor:
 689 0004 00       		.byte	0
 690 0005 FF       		.byte	-1
 691 0006 00       		.byte	0
 692              		.type	CupStatus_latest, %object
 693              		.size	CupStatus_latest, 1
 694              	CupStatus_latest:
 695 0007 C0       		.byte	-64
 696              		.section	.rodata.str1.4,"aMS",%progbits,1
 697              		.align	2
 698              	.LC0:
 699 0000 436F6E74 		.ascii	"Controlling lights\012\015\000"
 699      726F6C6C 
 699      696E6720 
 699      6C696768 
 699      74730A0D 
 700 0015 000000   		.space	3
 701              	.LC1:
 702 0018 53746174 		.ascii	"State==IDLE\012\015\000"
 702      653D3D49 
 702      444C450A 
 702      0D00
 703 0026 0000     		.space	2
 704              	.LC2:
 705 0028 53746174 		.ascii	"State==STARTING\012\015\000"
 705      653D3D53 
 705      54415254 
 705      494E470A 
 705      0D00
 706 003a 0000     		.space	2
 707              	.LC3:
 708 003c 53746174 		.ascii	"State==PLAYING\012\015\000"
 708      653D3D50 
 708      4C415949 
 708      4E470A0D 
 708      00
 709 004d 000000   		.space	3
 710              	.LC4:
 711 0050 73746174 		.ascii	"state==WON\012\015\000"
 711      653D3D57 
 711      4F4E0A0D 
 711      00
 712 005d 000000   		.space	3
 713              	.LC5:
ARM GAS  C:\Users\nikol\AppData\Local\Temp\ccALmMj1.s 			page 20


 714 0060 73746174 		.ascii	"state==LOST\012\015\000"
 714      653D3D4C 
 714      4F53540A 
 714      0D00
 715 006e 0000     		.space	2
 716              	.LC6:
 717 0070 43757073 		.ascii	"Cupstatus change:%d\012\015\000"
 717      74617475 
 717      73206368 
 717      616E6765 
 717      3A25640A 
 718 0086 0000     		.space	2
 719              	.LC7:
 720 0088 53746172 		.ascii	"Starting timer\012\015\000"
 720      74696E67 
 720      2074696D 
 720      65720A0D 
 720      00
 721 0099 000000   		.space	3
 722              	.LC8:
 723 009c 53746F70 		.ascii	"Stopping timer\012\015\000"
 723      70696E67 
 723      2074696D 
 723      65720A0D 
 723      00
 724              		.bss
 725              		.align	2
 726              		.set	.LANCHOR0,. + 0
 727              		.type	CupStatus, %object
 728              		.size	CupStatus, 1
 729              	CupStatus:
 730 0000 00       		.space	1
 731              		.type	hitStatus, %object
 732              		.size	hitStatus, 1
 733              	hitStatus:
 734 0001 00       		.space	1
 735 0002 0000     		.space	2
 736              		.type	game_buf, %object
 737              		.size	game_buf, 256
 738              	game_buf:
 739 0004 00000000 		.space	256
 739      00000000 
 739      00000000 
 739      00000000 
 739      00000000 
 740              		.type	blinking, %object
 741              		.size	blinking, 4
 742              	blinking:
 743 0104 00000000 		.space	4
 744              		.type	LED_states, %object
 745              		.size	LED_states, 8
 746              	LED_states:
 747 0108 00000000 		.space	8
 747      00000000 
 748              		.text
 749              	.Letext0:
 750              		.file 2 "c:\\program files (x86)\\cypress\\psoc creator\\4.2\\psoc creator\\import\\gnu\\arm\\5.4.
ARM GAS  C:\Users\nikol\AppData\Local\Temp\ccALmMj1.s 			page 21


 751              		.file 3 "c:\\program files (x86)\\cypress\\psoc creator\\4.2\\psoc creator\\import\\gnu\\arm\\5.4.
 752              		.file 4 "CupLight_IF.h"
 753              		.file 5 "Generated_Source\\PSoC5/core_cm3.h"
 754              		.file 6 "GameController.h"
 755              		.file 7 "CupSensor_IF.h"
 756              		.file 8 "Generated_Source\\PSoC5/UART.h"
 757              		.file 9 "RPI_IF.h"
 758              		.file 10 "c:\\program files (x86)\\cypress\\psoc creator\\4.2\\psoc creator\\import\\gnu\\arm\\5.4
 759              		.file 11 "Generated_Source\\PSoC5/Timer.h"