ARM GAS  C:\Users\marti\AppData\Local\Temp\ccs1mlZa.s 			page 1


   1              		.syntax unified
   2              		.cpu cortex-m3
   3              		.fpu softvfp
   4              		.eabi_attribute 20, 1
   5              		.eabi_attribute 21, 1
   6              		.eabi_attribute 23, 3
   7              		.eabi_attribute 24, 1
   8              		.eabi_attribute 25, 1
   9              		.eabi_attribute 26, 1
  10              		.eabi_attribute 30, 1
  11              		.eabi_attribute 34, 1
  12              		.eabi_attribute 18, 4
  13              		.thumb
  14              		.syntax unified
  15              		.file	"GameController.c"
  16              		.text
  17              	.Ltext0:
  18              		.cfi_sections	.debug_frame
  19              		.section	.text.setMyColor,"ax",%progbits
  20              		.align	2
  21              		.global	setMyColor
  22              		.thumb
  23              		.thumb_func
  24              		.type	setMyColor, %function
  25              	setMyColor:
  26              	.LFB65:
  27              		.file 1 "..\\..\\..\\playerSide_gamecontroller\\playerSide.cydsn\\GameController.c"
   1:..\..\..\playerSide_gamecontroller\playerSide.cydsn/GameController.c **** /* ========================================
   2:..\..\..\playerSide_gamecontroller\playerSide.cydsn/GameController.c ****  *
   3:..\..\..\playerSide_gamecontroller\playerSide.cydsn/GameController.c ****  * Copyright YOUR COMPANY, THE YEAR
   4:..\..\..\playerSide_gamecontroller\playerSide.cydsn/GameController.c ****  * All Rights Reserved
   5:..\..\..\playerSide_gamecontroller\playerSide.cydsn/GameController.c ****  * UNPUBLISHED, LICENSED SOFTWARE.
   6:..\..\..\playerSide_gamecontroller\playerSide.cydsn/GameController.c ****  *
   7:..\..\..\playerSide_gamecontroller\playerSide.cydsn/GameController.c ****  * CONFIDENTIAL AND PROPRIETARY INFORMATION
   8:..\..\..\playerSide_gamecontroller\playerSide.cydsn/GameController.c ****  * WHICH IS THE PROPERTY OF your company.
   9:..\..\..\playerSide_gamecontroller\playerSide.cydsn/GameController.c ****  *
  10:..\..\..\playerSide_gamecontroller\playerSide.cydsn/GameController.c ****  * ========================================
  11:..\..\..\playerSide_gamecontroller\playerSide.cydsn/GameController.c **** */
  12:..\..\..\playerSide_gamecontroller\playerSide.cydsn/GameController.c **** #include "GameController.h"
  13:..\..\..\playerSide_gamecontroller\playerSide.cydsn/GameController.c **** #include <stdint.h>
  14:..\..\..\playerSide_gamecontroller\playerSide.cydsn/GameController.c **** #include <stdio.h>
  15:..\..\..\playerSide_gamecontroller\playerSide.cydsn/GameController.c **** 
  16:..\..\..\playerSide_gamecontroller\playerSide.cydsn/GameController.c **** static int blinking =0;
  17:..\..\..\playerSide_gamecontroller\playerSide.cydsn/GameController.c **** static uint8_t blink=0;
  18:..\..\..\playerSide_gamecontroller\playerSide.cydsn/GameController.c **** static color_t turnedOffColor={.Red=0,.Green=0,.Blue=0,};
  19:..\..\..\playerSide_gamecontroller\playerSide.cydsn/GameController.c **** static color_t myColor={.Red=0,.Green=255,.Blue=255,};
  20:..\..\..\playerSide_gamecontroller\playerSide.cydsn/GameController.c **** static color_t opponentColor={.Red=255,.Green=0,.Blue=255,};
  21:..\..\..\playerSide_gamecontroller\playerSide.cydsn/GameController.c **** static color_t missingCupColor={.Red=255,.Green=0,.Blue=0,};
  22:..\..\..\playerSide_gamecontroller\playerSide.cydsn/GameController.c **** static color_t placedCupColor={.Red=0,.Green=0,.Blue=255,};
  23:..\..\..\playerSide_gamecontroller\playerSide.cydsn/GameController.c **** static uint8_t CupStatus;
  24:..\..\..\playerSide_gamecontroller\playerSide.cydsn/GameController.c **** static uint8_t hitStatus;
  25:..\..\..\playerSide_gamecontroller\playerSide.cydsn/GameController.c **** static char game_buf[256];
  26:..\..\..\playerSide_gamecontroller\playerSide.cydsn/GameController.c **** static int nn;
  27:..\..\..\playerSide_gamecontroller\playerSide.cydsn/GameController.c **** static uint8_t LED_states[8];
  28:..\..\..\playerSide_gamecontroller\playerSide.cydsn/GameController.c **** static uint8_t CupStatus_latest=0;
  29:..\..\..\playerSide_gamecontroller\playerSide.cydsn/GameController.c **** 
  30:..\..\..\playerSide_gamecontroller\playerSide.cydsn/GameController.c **** void setState(enum GameState state)
ARM GAS  C:\Users\marti\AppData\Local\Temp\ccs1mlZa.s 			page 2


  31:..\..\..\playerSide_gamecontroller\playerSide.cydsn/GameController.c **** {
  32:..\..\..\playerSide_gamecontroller\playerSide.cydsn/GameController.c ****    switch(state)
  33:..\..\..\playerSide_gamecontroller\playerSide.cydsn/GameController.c ****     {
  34:..\..\..\playerSide_gamecontroller\playerSide.cydsn/GameController.c ****         case IDLE:
  35:..\..\..\playerSide_gamecontroller\playerSide.cydsn/GameController.c ****         {
  36:..\..\..\playerSide_gamecontroller\playerSide.cydsn/GameController.c ****                 currentState=state;
  37:..\..\..\playerSide_gamecontroller\playerSide.cydsn/GameController.c ****                 UART_PutString("State==IDLE\n\r");
  38:..\..\..\playerSide_gamecontroller\playerSide.cydsn/GameController.c ****                 ControlAllColor(turnedOffColor);
  39:..\..\..\playerSide_gamecontroller\playerSide.cydsn/GameController.c ****         }
  40:..\..\..\playerSide_gamecontroller\playerSide.cydsn/GameController.c ****         break;
  41:..\..\..\playerSide_gamecontroller\playerSide.cydsn/GameController.c ****         case STARTING:
  42:..\..\..\playerSide_gamecontroller\playerSide.cydsn/GameController.c ****         {
  43:..\..\..\playerSide_gamecontroller\playerSide.cydsn/GameController.c ****                 currentState=state;
  44:..\..\..\playerSide_gamecontroller\playerSide.cydsn/GameController.c ****                 CupStatus=getCupStatus();
  45:..\..\..\playerSide_gamecontroller\playerSide.cydsn/GameController.c ****                 //ControlLights(CupStatus);
  46:..\..\..\playerSide_gamecontroller\playerSide.cydsn/GameController.c ****                 //sendCupStatus(CupStatus);
  47:..\..\..\playerSide_gamecontroller\playerSide.cydsn/GameController.c ****                 UART_PutString("State==STARTING\n\r");
  48:..\..\..\playerSide_gamecontroller\playerSide.cydsn/GameController.c ****             break;
  49:..\..\..\playerSide_gamecontroller\playerSide.cydsn/GameController.c ****         }
  50:..\..\..\playerSide_gamecontroller\playerSide.cydsn/GameController.c ****         case PLAYING:
  51:..\..\..\playerSide_gamecontroller\playerSide.cydsn/GameController.c ****         {
  52:..\..\..\playerSide_gamecontroller\playerSide.cydsn/GameController.c ****                 currentState=state;
  53:..\..\..\playerSide_gamecontroller\playerSide.cydsn/GameController.c ****                 CupStatus=getCupStatus();
  54:..\..\..\playerSide_gamecontroller\playerSide.cydsn/GameController.c ****                 //ControlLights(CupStatus);
  55:..\..\..\playerSide_gamecontroller\playerSide.cydsn/GameController.c ****                 sendCupStatus(0x00);
  56:..\..\..\playerSide_gamecontroller\playerSide.cydsn/GameController.c ****                 UART_PutString("State==PLAYING\n\r");
  57:..\..\..\playerSide_gamecontroller\playerSide.cydsn/GameController.c ****         }
  58:..\..\..\playerSide_gamecontroller\playerSide.cydsn/GameController.c ****         break;
  59:..\..\..\playerSide_gamecontroller\playerSide.cydsn/GameController.c ****         case WON:
  60:..\..\..\playerSide_gamecontroller\playerSide.cydsn/GameController.c ****         {
  61:..\..\..\playerSide_gamecontroller\playerSide.cydsn/GameController.c ****                 currentState=state;
  62:..\..\..\playerSide_gamecontroller\playerSide.cydsn/GameController.c ****                 ControlAllColor(myColor);
  63:..\..\..\playerSide_gamecontroller\playerSide.cydsn/GameController.c ****                 UART_PutString("state==WON\n\r");
  64:..\..\..\playerSide_gamecontroller\playerSide.cydsn/GameController.c ****         }
  65:..\..\..\playerSide_gamecontroller\playerSide.cydsn/GameController.c ****         break;
  66:..\..\..\playerSide_gamecontroller\playerSide.cydsn/GameController.c ****         case LOST:
  67:..\..\..\playerSide_gamecontroller\playerSide.cydsn/GameController.c ****         {
  68:..\..\..\playerSide_gamecontroller\playerSide.cydsn/GameController.c ****                 currentState=state;
  69:..\..\..\playerSide_gamecontroller\playerSide.cydsn/GameController.c ****                 ControlAllColor(opponentColor);
  70:..\..\..\playerSide_gamecontroller\playerSide.cydsn/GameController.c ****                 UART_PutString("state==LOST\n\r");
  71:..\..\..\playerSide_gamecontroller\playerSide.cydsn/GameController.c ****         }  
  72:..\..\..\playerSide_gamecontroller\playerSide.cydsn/GameController.c ****          break;
  73:..\..\..\playerSide_gamecontroller\playerSide.cydsn/GameController.c ****     }
  74:..\..\..\playerSide_gamecontroller\playerSide.cydsn/GameController.c **** }
  75:..\..\..\playerSide_gamecontroller\playerSide.cydsn/GameController.c ****  void setMyColor(color_t c)
  76:..\..\..\playerSide_gamecontroller\playerSide.cydsn/GameController.c **** {
  28              		.loc 1 76 0
  29              		.cfi_startproc
  30              		@ args = 0, pretend = 0, frame = 8
  31              		@ frame_needed = 0, uses_anonymous_args = 0
  32              		@ link register save eliminated.
  33 0000 82B0     		sub	sp, sp, #8
  34              		.cfi_def_cfa_offset 8
  77:..\..\..\playerSide_gamecontroller\playerSide.cydsn/GameController.c ****     myColor=c;
  35              		.loc 1 77 0
  36 0002 034B     		ldr	r3, .L3
  37 0004 1880     		strh	r0, [r3]	@ movhi
ARM GAS  C:\Users\marti\AppData\Local\Temp\ccs1mlZa.s 			page 3


  38 0006 000C     		lsrs	r0, r0, #16
  39 0008 9870     		strb	r0, [r3, #2]
  78:..\..\..\playerSide_gamecontroller\playerSide.cydsn/GameController.c **** }
  40              		.loc 1 78 0
  41 000a 02B0     		add	sp, sp, #8
  42              		.cfi_def_cfa_offset 0
  43              		@ sp needed
  44 000c 7047     		bx	lr
  45              	.L4:
  46 000e 00BF     		.align	2
  47              	.L3:
  48 0010 00000000 		.word	.LANCHOR0
  49              		.cfi_endproc
  50              	.LFE65:
  51              		.size	setMyColor, .-setMyColor
  52              		.section	.text.setOpponentColor,"ax",%progbits
  53              		.align	2
  54              		.global	setOpponentColor
  55              		.thumb
  56              		.thumb_func
  57              		.type	setOpponentColor, %function
  58              	setOpponentColor:
  59              	.LFB66:
  79:..\..\..\playerSide_gamecontroller\playerSide.cydsn/GameController.c ****  void setOpponentColor(color_t c)
  80:..\..\..\playerSide_gamecontroller\playerSide.cydsn/GameController.c **** {
  60              		.loc 1 80 0
  61              		.cfi_startproc
  62              		@ args = 0, pretend = 0, frame = 8
  63              		@ frame_needed = 0, uses_anonymous_args = 0
  64              		@ link register save eliminated.
  65 0000 82B0     		sub	sp, sp, #8
  66              		.cfi_def_cfa_offset 8
  81:..\..\..\playerSide_gamecontroller\playerSide.cydsn/GameController.c ****     opponentColor=c;
  67              		.loc 1 81 0
  68 0002 034B     		ldr	r3, .L7
  69 0004 9880     		strh	r0, [r3, #4]	@ movhi
  70 0006 000C     		lsrs	r0, r0, #16
  71 0008 9871     		strb	r0, [r3, #6]
  82:..\..\..\playerSide_gamecontroller\playerSide.cydsn/GameController.c **** }
  72              		.loc 1 82 0
  73 000a 02B0     		add	sp, sp, #8
  74              		.cfi_def_cfa_offset 0
  75              		@ sp needed
  76 000c 7047     		bx	lr
  77              	.L8:
  78 000e 00BF     		.align	2
  79              	.L7:
  80 0010 00000000 		.word	.LANCHOR0
  81              		.cfi_endproc
  82              	.LFE66:
  83              		.size	setOpponentColor, .-setOpponentColor
  84              		.section	.text.updateCupStatus,"ax",%progbits
  85              		.align	2
  86              		.global	updateCupStatus
  87              		.thumb
  88              		.thumb_func
  89              		.type	updateCupStatus, %function
ARM GAS  C:\Users\marti\AppData\Local\Temp\ccs1mlZa.s 			page 4


  90              	updateCupStatus:
  91              	.LFB67:
  83:..\..\..\playerSide_gamecontroller\playerSide.cydsn/GameController.c ****  void updateCupStatus(uint8_t status)
  84:..\..\..\playerSide_gamecontroller\playerSide.cydsn/GameController.c **** {
  92              		.loc 1 84 0
  93              		.cfi_startproc
  94              		@ args = 0, pretend = 0, frame = 0
  95              		@ frame_needed = 0, uses_anonymous_args = 0
  96              	.LVL0:
  97 0000 38B5     		push	{r3, r4, r5, lr}
  98              		.cfi_def_cfa_offset 16
  99              		.cfi_offset 3, -16
 100              		.cfi_offset 4, -12
 101              		.cfi_offset 5, -8
 102              		.cfi_offset 14, -4
  85:..\..\..\playerSide_gamecontroller\playerSide.cydsn/GameController.c ****     CupStatus=status;
 103              		.loc 1 85 0
 104 0002 0B4B     		ldr	r3, .L12
 105 0004 1870     		strb	r0, [r3]
  86:..\..\..\playerSide_gamecontroller\playerSide.cydsn/GameController.c ****     if(currentState==STARTING || currentState==PLAYING)
 106              		.loc 1 86 0
 107 0006 0B4B     		ldr	r3, .L12+4
 108 0008 1B78     		ldrb	r3, [r3]	@ zero_extendqisi2
 109 000a 013B     		subs	r3, r3, #1
 110 000c DBB2     		uxtb	r3, r3
 111 000e 012B     		cmp	r3, #1
 112 0010 0CD8     		bhi	.L9
 113 0012 0246     		mov	r2, r0
  87:..\..\..\playerSide_gamecontroller\playerSide.cydsn/GameController.c ****     {
  88:..\..\..\playerSide_gamecontroller\playerSide.cydsn/GameController.c ****         CupStatus=status;
  89:..\..\..\playerSide_gamecontroller\playerSide.cydsn/GameController.c ****         sprintf(game_buf,"Sending cupstatus. Updating cupstatus with cupstatus:%x\n\r",CupStatus);
 114              		.loc 1 89 0
 115 0014 064C     		ldr	r4, .L12
 116 0016 251D     		adds	r5, r4, #4
 117 0018 0749     		ldr	r1, .L12+8
 118 001a 2846     		mov	r0, r5
 119              	.LVL1:
 120 001c FFF7FEFF 		bl	sprintf
 121              	.LVL2:
  90:..\..\..\playerSide_gamecontroller\playerSide.cydsn/GameController.c ****         UART_PutString(game_buf);
 122              		.loc 1 90 0
 123 0020 2846     		mov	r0, r5
 124 0022 FFF7FEFF 		bl	UART_PutString
 125              	.LVL3:
  91:..\..\..\playerSide_gamecontroller\playerSide.cydsn/GameController.c ****         sendCupStatus(CupStatus);
 126              		.loc 1 91 0
 127 0026 2078     		ldrb	r0, [r4]	@ zero_extendqisi2
 128 0028 FFF7FEFF 		bl	sendCupStatus
 129              	.LVL4:
 130              	.L9:
 131 002c 38BD     		pop	{r3, r4, r5, pc}
 132              	.L13:
 133 002e 00BF     		.align	2
 134              	.L12:
 135 0030 00000000 		.word	.LANCHOR1
 136 0034 00000000 		.word	currentState
 137 0038 00000000 		.word	.LC0
ARM GAS  C:\Users\marti\AppData\Local\Temp\ccs1mlZa.s 			page 5


 138              		.cfi_endproc
 139              	.LFE67:
 140              		.size	updateCupStatus, .-updateCupStatus
 141              		.section	.text.updateHitStatus,"ax",%progbits
 142              		.align	2
 143              		.global	updateHitStatus
 144              		.thumb
 145              		.thumb_func
 146              		.type	updateHitStatus, %function
 147              	updateHitStatus:
 148              	.LFB68:
  92:..\..\..\playerSide_gamecontroller\playerSide.cydsn/GameController.c ****     }
  93:..\..\..\playerSide_gamecontroller\playerSide.cydsn/GameController.c ****     
  94:..\..\..\playerSide_gamecontroller\playerSide.cydsn/GameController.c **** }
  95:..\..\..\playerSide_gamecontroller\playerSide.cydsn/GameController.c ****  void updateHitStatus(uint8_t status)
  96:..\..\..\playerSide_gamecontroller\playerSide.cydsn/GameController.c **** {
 149              		.loc 1 96 0
 150              		.cfi_startproc
 151              		@ args = 0, pretend = 0, frame = 0
 152              		@ frame_needed = 0, uses_anonymous_args = 0
 153              	.LVL5:
 154 0000 08B5     		push	{r3, lr}
 155              		.cfi_def_cfa_offset 8
 156              		.cfi_offset 3, -8
 157              		.cfi_offset 14, -4
  97:..\..\..\playerSide_gamecontroller\playerSide.cydsn/GameController.c ****     if(currentState==PLAYING)
 158              		.loc 1 97 0
 159 0002 054B     		ldr	r3, .L17
 160 0004 1B78     		ldrb	r3, [r3]	@ zero_extendqisi2
 161 0006 022B     		cmp	r3, #2
 162 0008 05D1     		bne	.L14
  98:..\..\..\playerSide_gamecontroller\playerSide.cydsn/GameController.c ****     {
  99:..\..\..\playerSide_gamecontroller\playerSide.cydsn/GameController.c ****         hitStatus=status;
 163              		.loc 1 99 0
 164 000a 044B     		ldr	r3, .L17+4
 165 000c 83F80401 		strb	r0, [r3, #260]
 100:..\..\..\playerSide_gamecontroller\playerSide.cydsn/GameController.c ****         UART_PutString("Sending Hitstatus. Updating Hitstatus\n\r");
 166              		.loc 1 100 0
 167 0010 0348     		ldr	r0, .L17+8
 168              	.LVL6:
 169 0012 FFF7FEFF 		bl	UART_PutString
 170              	.LVL7:
 171              	.L14:
 172 0016 08BD     		pop	{r3, pc}
 173              	.L18:
 174              		.align	2
 175              	.L17:
 176 0018 00000000 		.word	currentState
 177 001c 00000000 		.word	.LANCHOR1
 178 0020 3C000000 		.word	.LC1
 179              		.cfi_endproc
 180              	.LFE68:
 181              		.size	updateHitStatus, .-updateHitStatus
 182              		.section	.text.ControlAllColor,"ax",%progbits
 183              		.align	2
 184              		.global	ControlAllColor
 185              		.thumb
ARM GAS  C:\Users\marti\AppData\Local\Temp\ccs1mlZa.s 			page 6


 186              		.thumb_func
 187              		.type	ControlAllColor, %function
 188              	ControlAllColor:
 189              	.LFB70:
 101:..\..\..\playerSide_gamecontroller\playerSide.cydsn/GameController.c ****         //sendCupStatus(hitStatus); 
 102:..\..\..\playerSide_gamecontroller\playerSide.cydsn/GameController.c ****     }
 103:..\..\..\playerSide_gamecontroller\playerSide.cydsn/GameController.c **** }
 104:..\..\..\playerSide_gamecontroller\playerSide.cydsn/GameController.c **** 
 105:..\..\..\playerSide_gamecontroller\playerSide.cydsn/GameController.c **** void ControlLights(uint8_t cupstatus)
 106:..\..\..\playerSide_gamecontroller\playerSide.cydsn/GameController.c **** {
 107:..\..\..\playerSide_gamecontroller\playerSide.cydsn/GameController.c ****     if(currentState==STARTING){
 108:..\..\..\playerSide_gamecontroller\playerSide.cydsn/GameController.c ****         UART_PutString("Controlling lights\n\r");
 109:..\..\..\playerSide_gamecontroller\playerSide.cydsn/GameController.c ****         for(int i=0;i<8;i++)
 110:..\..\..\playerSide_gamecontroller\playerSide.cydsn/GameController.c ****         {
 111:..\..\..\playerSide_gamecontroller\playerSide.cydsn/GameController.c ****             if((~cupstatus)>>i & 1)
 112:..\..\..\playerSide_gamecontroller\playerSide.cydsn/GameController.c ****                 controlLight(i,missingCupColor);
 113:..\..\..\playerSide_gamecontroller\playerSide.cydsn/GameController.c ****             else
 114:..\..\..\playerSide_gamecontroller\playerSide.cydsn/GameController.c ****                 controlLight(i,placedCupColor);
 115:..\..\..\playerSide_gamecontroller\playerSide.cydsn/GameController.c ****         }
 116:..\..\..\playerSide_gamecontroller\playerSide.cydsn/GameController.c ****     }else if( currentState==PLAYING){
 117:..\..\..\playerSide_gamecontroller\playerSide.cydsn/GameController.c ****         UART_PutString("Controlling lights\n\r");
 118:..\..\..\playerSide_gamecontroller\playerSide.cydsn/GameController.c ****         for(int i=0;i<8;i++)
 119:..\..\..\playerSide_gamecontroller\playerSide.cydsn/GameController.c ****         {
 120:..\..\..\playerSide_gamecontroller\playerSide.cydsn/GameController.c ****             if((~cupstatus)>>i & 1)
 121:..\..\..\playerSide_gamecontroller\playerSide.cydsn/GameController.c ****                 controlLight(i,opponentColor);
 122:..\..\..\playerSide_gamecontroller\playerSide.cydsn/GameController.c ****             else
 123:..\..\..\playerSide_gamecontroller\playerSide.cydsn/GameController.c ****                 controlLight(i,myColor);
 124:..\..\..\playerSide_gamecontroller\playerSide.cydsn/GameController.c ****         }
 125:..\..\..\playerSide_gamecontroller\playerSide.cydsn/GameController.c ****     }
 126:..\..\..\playerSide_gamecontroller\playerSide.cydsn/GameController.c **** }
 127:..\..\..\playerSide_gamecontroller\playerSide.cydsn/GameController.c **** 
 128:..\..\..\playerSide_gamecontroller\playerSide.cydsn/GameController.c **** void ControlAllColor(color_t color)
 129:..\..\..\playerSide_gamecontroller\playerSide.cydsn/GameController.c **** {
 190              		.loc 1 129 0
 191              		.cfi_startproc
 192              		@ args = 0, pretend = 0, frame = 8
 193              		@ frame_needed = 0, uses_anonymous_args = 0
 194 0000 10B5     		push	{r4, lr}
 195              		.cfi_def_cfa_offset 8
 196              		.cfi_offset 4, -8
 197              		.cfi_offset 14, -4
 198 0002 84B0     		sub	sp, sp, #16
 199              		.cfi_def_cfa_offset 24
 200 0004 0390     		str	r0, [sp, #12]
 130:..\..\..\playerSide_gamecontroller\playerSide.cydsn/GameController.c ****    
 131:..\..\..\playerSide_gamecontroller\playerSide.cydsn/GameController.c ****        if(currentState==IDLE){
 201              		.loc 1 131 0
 202 0006 1C4B     		ldr	r3, .L24
 203 0008 1B78     		ldrb	r3, [r3]	@ zero_extendqisi2
 204 000a 7BB9     		cbnz	r3, .L20
 132:..\..\..\playerSide_gamecontroller\playerSide.cydsn/GameController.c ****                 nn=sprintf(game_buf,"turned off colors: Red:%d Green:%d Blue:%d\n\r",
 133:..\..\..\playerSide_gamecontroller\playerSide.cydsn/GameController.c ****                             color.Red,
 205              		.loc 1 133 0
 206 000c 9DF80C20 		ldrb	r2, [sp, #12]	@ zero_extendqisi2
 134:..\..\..\playerSide_gamecontroller\playerSide.cydsn/GameController.c ****                             color.Green,
 207              		.loc 1 134 0
 208 0010 9DF80D30 		ldrb	r3, [sp, #13]	@ zero_extendqisi2
ARM GAS  C:\Users\marti\AppData\Local\Temp\ccs1mlZa.s 			page 7


 135:..\..\..\playerSide_gamecontroller\playerSide.cydsn/GameController.c ****                             color.Blue);
 209              		.loc 1 135 0
 210 0014 9DF80E10 		ldrb	r1, [sp, #14]	@ zero_extendqisi2
 132:..\..\..\playerSide_gamecontroller\playerSide.cydsn/GameController.c ****                 nn=sprintf(game_buf,"turned off colors: Red:%d Green:%d Blue:%d\n\r",
 211              		.loc 1 132 0
 212 0018 184C     		ldr	r4, .L24+4
 213 001a 0091     		str	r1, [sp]
 214 001c 1849     		ldr	r1, .L24+8
 215 001e 2046     		mov	r0, r4
 216 0020 FFF7FEFF 		bl	sprintf
 217              	.LVL8:
 136:..\..\..\playerSide_gamecontroller\playerSide.cydsn/GameController.c ****                 UART_PutString(game_buf);
 218              		.loc 1 136 0
 219 0024 2046     		mov	r0, r4
 220 0026 FFF7FEFF 		bl	UART_PutString
 221              	.LVL9:
 222 002a 22E0     		b	.L19
 223              	.L20:
 137:..\..\..\playerSide_gamecontroller\playerSide.cydsn/GameController.c ****         }
 138:..\..\..\playerSide_gamecontroller\playerSide.cydsn/GameController.c ****         else if (currentState==WON){
 224              		.loc 1 138 0
 225 002c 032B     		cmp	r3, #3
 226 002e 0FD1     		bne	.L22
 139:..\..\..\playerSide_gamecontroller\playerSide.cydsn/GameController.c ****             nn=sprintf(game_buf,"Winning lights with colors: Red:%d Green:%d Blue:%d\n\r",
 140:..\..\..\playerSide_gamecontroller\playerSide.cydsn/GameController.c ****                             color.Red,
 227              		.loc 1 140 0
 228 0030 9DF80C20 		ldrb	r2, [sp, #12]	@ zero_extendqisi2
 141:..\..\..\playerSide_gamecontroller\playerSide.cydsn/GameController.c ****                             color.Green,
 229              		.loc 1 141 0
 230 0034 9DF80D30 		ldrb	r3, [sp, #13]	@ zero_extendqisi2
 142:..\..\..\playerSide_gamecontroller\playerSide.cydsn/GameController.c ****                             color.Blue);
 231              		.loc 1 142 0
 232 0038 9DF80E10 		ldrb	r1, [sp, #14]	@ zero_extendqisi2
 139:..\..\..\playerSide_gamecontroller\playerSide.cydsn/GameController.c ****             nn=sprintf(game_buf,"Winning lights with colors: Red:%d Green:%d Blue:%d\n\r",
 233              		.loc 1 139 0
 234 003c 0F4C     		ldr	r4, .L24+4
 235 003e 0091     		str	r1, [sp]
 236 0040 1049     		ldr	r1, .L24+12
 237 0042 2046     		mov	r0, r4
 238 0044 FFF7FEFF 		bl	sprintf
 239              	.LVL10:
 143:..\..\..\playerSide_gamecontroller\playerSide.cydsn/GameController.c ****                 UART_PutString(game_buf);
 240              		.loc 1 143 0
 241 0048 2046     		mov	r0, r4
 242 004a FFF7FEFF 		bl	UART_PutString
 243              	.LVL11:
 244 004e 10E0     		b	.L19
 245              	.L22:
 144:..\..\..\playerSide_gamecontroller\playerSide.cydsn/GameController.c ****         }
 145:..\..\..\playerSide_gamecontroller\playerSide.cydsn/GameController.c ****         else if(currentState==LOST){
 246              		.loc 1 145 0
 247 0050 042B     		cmp	r3, #4
 248 0052 0ED1     		bne	.L19
 146:..\..\..\playerSide_gamecontroller\playerSide.cydsn/GameController.c ****             nn=sprintf(game_buf,"Losing lights with colors: Red:%d Green:%d Blue:%d\n\r",
 147:..\..\..\playerSide_gamecontroller\playerSide.cydsn/GameController.c ****                             color.Red,
 249              		.loc 1 147 0
 250 0054 9DF80C20 		ldrb	r2, [sp, #12]	@ zero_extendqisi2
ARM GAS  C:\Users\marti\AppData\Local\Temp\ccs1mlZa.s 			page 8


 148:..\..\..\playerSide_gamecontroller\playerSide.cydsn/GameController.c ****                             color.Green,
 251              		.loc 1 148 0
 252 0058 9DF80D30 		ldrb	r3, [sp, #13]	@ zero_extendqisi2
 149:..\..\..\playerSide_gamecontroller\playerSide.cydsn/GameController.c ****                             color.Blue);
 253              		.loc 1 149 0
 254 005c 9DF80E10 		ldrb	r1, [sp, #14]	@ zero_extendqisi2
 146:..\..\..\playerSide_gamecontroller\playerSide.cydsn/GameController.c ****             nn=sprintf(game_buf,"Losing lights with colors: Red:%d Green:%d Blue:%d\n\r",
 255              		.loc 1 146 0
 256 0060 064C     		ldr	r4, .L24+4
 257 0062 0091     		str	r1, [sp]
 258 0064 0849     		ldr	r1, .L24+16
 259 0066 2046     		mov	r0, r4
 260 0068 FFF7FEFF 		bl	sprintf
 261              	.LVL12:
 150:..\..\..\playerSide_gamecontroller\playerSide.cydsn/GameController.c ****                 UART_PutString(game_buf);
 262              		.loc 1 150 0
 263 006c 2046     		mov	r0, r4
 264 006e FFF7FEFF 		bl	UART_PutString
 265              	.LVL13:
 266              	.L19:
 151:..\..\..\playerSide_gamecontroller\playerSide.cydsn/GameController.c ****         }
 152:..\..\..\playerSide_gamecontroller\playerSide.cydsn/GameController.c **** 
 153:..\..\..\playerSide_gamecontroller\playerSide.cydsn/GameController.c **** }
 267              		.loc 1 153 0
 268 0072 04B0     		add	sp, sp, #16
 269              		.cfi_def_cfa_offset 8
 270              		@ sp needed
 271 0074 10BD     		pop	{r4, pc}
 272              	.L25:
 273 0076 00BF     		.align	2
 274              	.L24:
 275 0078 00000000 		.word	currentState
 276 007c 04000000 		.word	.LANCHOR1+4
 277 0080 64000000 		.word	.LC2
 278 0084 94000000 		.word	.LC3
 279 0088 CC000000 		.word	.LC4
 280              		.cfi_endproc
 281              	.LFE70:
 282              		.size	ControlAllColor, .-ControlAllColor
 283              		.section	.text.controlLight,"ax",%progbits
 284              		.align	2
 285              		.global	controlLight
 286              		.thumb
 287              		.thumb_func
 288              		.type	controlLight, %function
 289              	controlLight:
 290              	.LFB72:
 154:..\..\..\playerSide_gamecontroller\playerSide.cydsn/GameController.c **** void Controller()
 155:..\..\..\playerSide_gamecontroller\playerSide.cydsn/GameController.c **** {
 156:..\..\..\playerSide_gamecontroller\playerSide.cydsn/GameController.c ****     if(currentState==STARTING || currentState==PLAYING){
 157:..\..\..\playerSide_gamecontroller\playerSide.cydsn/GameController.c ****         if(CupStatus!=CupStatus_latest){
 158:..\..\..\playerSide_gamecontroller\playerSide.cydsn/GameController.c ****             CupStatus_latest=CupStatus;
 159:..\..\..\playerSide_gamecontroller\playerSide.cydsn/GameController.c ****             ControlLights(CupStatus);
 160:..\..\..\playerSide_gamecontroller\playerSide.cydsn/GameController.c ****             sprintf(game_buf,"Cupstatus change:%d\n\r",CupStatus);
 161:..\..\..\playerSide_gamecontroller\playerSide.cydsn/GameController.c ****             UART_PutString(game_buf);
 162:..\..\..\playerSide_gamecontroller\playerSide.cydsn/GameController.c ****         }
 163:..\..\..\playerSide_gamecontroller\playerSide.cydsn/GameController.c ****     if(currentState==PLAYING)
ARM GAS  C:\Users\marti\AppData\Local\Temp\ccs1mlZa.s 			page 9


 164:..\..\..\playerSide_gamecontroller\playerSide.cydsn/GameController.c ****     {
 165:..\..\..\playerSide_gamecontroller\playerSide.cydsn/GameController.c ****         if(hitStatus && !blinking)
 166:..\..\..\playerSide_gamecontroller\playerSide.cydsn/GameController.c ****         {
 167:..\..\..\playerSide_gamecontroller\playerSide.cydsn/GameController.c ****             UART_PutString("Starting timer\n\r");
 168:..\..\..\playerSide_gamecontroller\playerSide.cydsn/GameController.c ****             Timer_Start();
 169:..\..\..\playerSide_gamecontroller\playerSide.cydsn/GameController.c ****             blinking=1;
 170:..\..\..\playerSide_gamecontroller\playerSide.cydsn/GameController.c ****         }
 171:..\..\..\playerSide_gamecontroller\playerSide.cydsn/GameController.c ****         else if(!hitStatus && blinking)
 172:..\..\..\playerSide_gamecontroller\playerSide.cydsn/GameController.c ****         {
 173:..\..\..\playerSide_gamecontroller\playerSide.cydsn/GameController.c ****             UART_PutString("Stopping timer\n\r");
 174:..\..\..\playerSide_gamecontroller\playerSide.cydsn/GameController.c ****             Timer_Stop(); 
 175:..\..\..\playerSide_gamecontroller\playerSide.cydsn/GameController.c ****             blinking=0;
 176:..\..\..\playerSide_gamecontroller\playerSide.cydsn/GameController.c ****         }
 177:..\..\..\playerSide_gamecontroller\playerSide.cydsn/GameController.c ****     }
 178:..\..\..\playerSide_gamecontroller\playerSide.cydsn/GameController.c ****     }
 179:..\..\..\playerSide_gamecontroller\playerSide.cydsn/GameController.c ****     else
 180:..\..\..\playerSide_gamecontroller\playerSide.cydsn/GameController.c ****     {
 181:..\..\..\playerSide_gamecontroller\playerSide.cydsn/GameController.c ****         if(blinking){
 182:..\..\..\playerSide_gamecontroller\playerSide.cydsn/GameController.c ****             Timer_Stop();
 183:..\..\..\playerSide_gamecontroller\playerSide.cydsn/GameController.c ****             blinking=0;
 184:..\..\..\playerSide_gamecontroller\playerSide.cydsn/GameController.c ****         }
 185:..\..\..\playerSide_gamecontroller\playerSide.cydsn/GameController.c ****     }
 186:..\..\..\playerSide_gamecontroller\playerSide.cydsn/GameController.c **** }
 187:..\..\..\playerSide_gamecontroller\playerSide.cydsn/GameController.c **** 
 188:..\..\..\playerSide_gamecontroller\playerSide.cydsn/GameController.c **** void controlLight(uint8_t index,color_t color)
 189:..\..\..\playerSide_gamecontroller\playerSide.cydsn/GameController.c **** {
 291              		.loc 1 189 0
 292              		.cfi_startproc
 293              		@ args = 0, pretend = 0, frame = 8
 294              		@ frame_needed = 0, uses_anonymous_args = 0
 295              	.LVL14:
 296 0000 10B5     		push	{r4, lr}
 297              		.cfi_def_cfa_offset 8
 298              		.cfi_offset 4, -8
 299              		.cfi_offset 14, -4
 300 0002 84B0     		sub	sp, sp, #16
 301              		.cfi_def_cfa_offset 24
 190:..\..\..\playerSide_gamecontroller\playerSide.cydsn/GameController.c ****     sprintf(game_buf,"light for index %d with color: Red:%d Green:%d Blue:%d\n\r",index,color.Red,c
 302              		.loc 1 190 0
 303 0004 C1F30723 		ubfx	r3, r1, #8, #8
 304 0008 C1F30742 		ubfx	r2, r1, #16, #8
 305 000c 064C     		ldr	r4, .L28
 306 000e 0192     		str	r2, [sp, #4]
 307 0010 0093     		str	r3, [sp]
 308 0012 CBB2     		uxtb	r3, r1
 309 0014 0246     		mov	r2, r0
 310 0016 0549     		ldr	r1, .L28+4
 311 0018 2046     		mov	r0, r4
 312              	.LVL15:
 313 001a FFF7FEFF 		bl	sprintf
 314              	.LVL16:
 191:..\..\..\playerSide_gamecontroller\playerSide.cydsn/GameController.c ****     UART_PutString(game_buf);
 315              		.loc 1 191 0
 316 001e 2046     		mov	r0, r4
 317 0020 FFF7FEFF 		bl	UART_PutString
 318              	.LVL17:
 192:..\..\..\playerSide_gamecontroller\playerSide.cydsn/GameController.c **** }
ARM GAS  C:\Users\marti\AppData\Local\Temp\ccs1mlZa.s 			page 10


 319              		.loc 1 192 0
 320 0024 04B0     		add	sp, sp, #16
 321              		.cfi_def_cfa_offset 8
 322              		@ sp needed
 323 0026 10BD     		pop	{r4, pc}
 324              	.L29:
 325              		.align	2
 326              	.L28:
 327 0028 04000000 		.word	.LANCHOR1+4
 328 002c 04010000 		.word	.LC5
 329              		.cfi_endproc
 330              	.LFE72:
 331              		.size	controlLight, .-controlLight
 332              		.section	.text.ControlLights,"ax",%progbits
 333              		.align	2
 334              		.global	ControlLights
 335              		.thumb
 336              		.thumb_func
 337              		.type	ControlLights, %function
 338              	ControlLights:
 339              	.LFB69:
 106:..\..\..\playerSide_gamecontroller\playerSide.cydsn/GameController.c ****     if(currentState==STARTING){
 340              		.loc 1 106 0
 341              		.cfi_startproc
 342              		@ args = 0, pretend = 0, frame = 0
 343              		@ frame_needed = 0, uses_anonymous_args = 0
 344              	.LVL18:
 345 0000 38B5     		push	{r3, r4, r5, lr}
 346              		.cfi_def_cfa_offset 16
 347              		.cfi_offset 3, -16
 348              		.cfi_offset 4, -12
 349              		.cfi_offset 5, -8
 350              		.cfi_offset 14, -4
 351 0002 0546     		mov	r5, r0
 107:..\..\..\playerSide_gamecontroller\playerSide.cydsn/GameController.c ****         UART_PutString("Controlling lights\n\r");
 352              		.loc 1 107 0
 353 0004 1B4B     		ldr	r3, .L42
 354 0006 1B78     		ldrb	r3, [r3]	@ zero_extendqisi2
 355 0008 012B     		cmp	r3, #1
 356 000a 18D1     		bne	.L31
 108:..\..\..\playerSide_gamecontroller\playerSide.cydsn/GameController.c ****         for(int i=0;i<8;i++)
 357              		.loc 1 108 0
 358 000c 1A48     		ldr	r0, .L42+4
 359              	.LVL19:
 360 000e FFF7FEFF 		bl	UART_PutString
 361              	.LVL20:
 362              	.LBB2:
 109:..\..\..\playerSide_gamecontroller\playerSide.cydsn/GameController.c ****         {
 363              		.loc 1 109 0
 364 0012 0024     		movs	r4, #0
 365 0014 10E0     		b	.L32
 366              	.LVL21:
 367              	.L35:
 111:..\..\..\playerSide_gamecontroller\playerSide.cydsn/GameController.c ****                 controlLight(i,missingCupColor);
 368              		.loc 1 111 0
 369 0016 EB43     		mvns	r3, r5
 370 0018 2341     		asrs	r3, r3, r4
ARM GAS  C:\Users\marti\AppData\Local\Temp\ccs1mlZa.s 			page 11


 371 001a 13F0010F 		tst	r3, #1
 372 001e 05D0     		beq	.L33
 112:..\..\..\playerSide_gamecontroller\playerSide.cydsn/GameController.c ****             else
 373              		.loc 1 112 0
 374 0020 164B     		ldr	r3, .L42+8
 375 0022 1968     		ldr	r1, [r3]
 376 0024 E0B2     		uxtb	r0, r4
 377 0026 FFF7FEFF 		bl	controlLight
 378              	.LVL22:
 379 002a 04E0     		b	.L34
 380              	.L33:
 114:..\..\..\playerSide_gamecontroller\playerSide.cydsn/GameController.c ****         }
 381              		.loc 1 114 0
 382 002c 134B     		ldr	r3, .L42+8
 383 002e 5968     		ldr	r1, [r3, #4]
 384 0030 E0B2     		uxtb	r0, r4
 385 0032 FFF7FEFF 		bl	controlLight
 386              	.LVL23:
 387              	.L34:
 109:..\..\..\playerSide_gamecontroller\playerSide.cydsn/GameController.c ****         {
 388              		.loc 1 109 0 discriminator 2
 389 0036 0134     		adds	r4, r4, #1
 390              	.LVL24:
 391              	.L32:
 109:..\..\..\playerSide_gamecontroller\playerSide.cydsn/GameController.c ****         {
 392              		.loc 1 109 0 is_stmt 0 discriminator 1
 393 0038 072C     		cmp	r4, #7
 394 003a ECDD     		ble	.L35
 395 003c 38BD     		pop	{r3, r4, r5, pc}
 396              	.LVL25:
 397              	.L31:
 398              	.LBE2:
 116:..\..\..\playerSide_gamecontroller\playerSide.cydsn/GameController.c ****         UART_PutString("Controlling lights\n\r");
 399              		.loc 1 116 0 is_stmt 1
 400 003e 022B     		cmp	r3, #2
 401 0040 17D1     		bne	.L30
 117:..\..\..\playerSide_gamecontroller\playerSide.cydsn/GameController.c ****         for(int i=0;i<8;i++)
 402              		.loc 1 117 0
 403 0042 0D48     		ldr	r0, .L42+4
 404              	.LVL26:
 405 0044 FFF7FEFF 		bl	UART_PutString
 406              	.LVL27:
 407              	.LBB3:
 118:..\..\..\playerSide_gamecontroller\playerSide.cydsn/GameController.c ****         {
 408              		.loc 1 118 0
 409 0048 0024     		movs	r4, #0
 410 004a 10E0     		b	.L37
 411              	.LVL28:
 412              	.L40:
 120:..\..\..\playerSide_gamecontroller\playerSide.cydsn/GameController.c ****                 controlLight(i,opponentColor);
 413              		.loc 1 120 0
 414 004c EB43     		mvns	r3, r5
 415 004e 2341     		asrs	r3, r3, r4
 416 0050 13F0010F 		tst	r3, #1
 417 0054 05D0     		beq	.L38
 121:..\..\..\playerSide_gamecontroller\playerSide.cydsn/GameController.c ****             else
 418              		.loc 1 121 0
ARM GAS  C:\Users\marti\AppData\Local\Temp\ccs1mlZa.s 			page 12


 419 0056 0A4B     		ldr	r3, .L42+12
 420 0058 5968     		ldr	r1, [r3, #4]
 421 005a E0B2     		uxtb	r0, r4
 422 005c FFF7FEFF 		bl	controlLight
 423              	.LVL29:
 424 0060 04E0     		b	.L39
 425              	.L38:
 123:..\..\..\playerSide_gamecontroller\playerSide.cydsn/GameController.c ****         }
 426              		.loc 1 123 0
 427 0062 074B     		ldr	r3, .L42+12
 428 0064 1968     		ldr	r1, [r3]
 429 0066 E0B2     		uxtb	r0, r4
 430 0068 FFF7FEFF 		bl	controlLight
 431              	.LVL30:
 432              	.L39:
 118:..\..\..\playerSide_gamecontroller\playerSide.cydsn/GameController.c ****         {
 433              		.loc 1 118 0 discriminator 2
 434 006c 0134     		adds	r4, r4, #1
 435              	.LVL31:
 436              	.L37:
 118:..\..\..\playerSide_gamecontroller\playerSide.cydsn/GameController.c ****         {
 437              		.loc 1 118 0 is_stmt 0 discriminator 1
 438 006e 072C     		cmp	r4, #7
 439 0070 ECDD     		ble	.L40
 440              	.LVL32:
 441              	.L30:
 442 0072 38BD     		pop	{r3, r4, r5, pc}
 443              	.L43:
 444              		.align	2
 445              	.L42:
 446 0074 00000000 		.word	currentState
 447 0078 40010000 		.word	.LC6
 448 007c 00000000 		.word	.LANCHOR2
 449 0080 00000000 		.word	.LANCHOR0
 450              	.LBE3:
 451              		.cfi_endproc
 452              	.LFE69:
 453              		.size	ControlLights, .-ControlLights
 454              		.section	.text.Controller,"ax",%progbits
 455              		.align	2
 456              		.global	Controller
 457              		.thumb
 458              		.thumb_func
 459              		.type	Controller, %function
 460              	Controller:
 461              	.LFB71:
 155:..\..\..\playerSide_gamecontroller\playerSide.cydsn/GameController.c ****     if(currentState==STARTING || currentState==PLAYING){
 462              		.loc 1 155 0 is_stmt 1
 463              		.cfi_startproc
 464              		@ args = 0, pretend = 0, frame = 0
 465              		@ frame_needed = 0, uses_anonymous_args = 0
 466 0000 10B5     		push	{r4, lr}
 467              		.cfi_def_cfa_offset 8
 468              		.cfi_offset 4, -8
 469              		.cfi_offset 14, -4
 156:..\..\..\playerSide_gamecontroller\playerSide.cydsn/GameController.c ****         if(CupStatus!=CupStatus_latest){
 470              		.loc 1 156 0
ARM GAS  C:\Users\marti\AppData\Local\Temp\ccs1mlZa.s 			page 13


 471 0002 254B     		ldr	r3, .L50
 472 0004 1B78     		ldrb	r3, [r3]	@ zero_extendqisi2
 473 0006 013B     		subs	r3, r3, #1
 474 0008 DBB2     		uxtb	r3, r3
 475 000a 012B     		cmp	r3, #1
 476 000c 38D8     		bhi	.L45
 157:..\..\..\playerSide_gamecontroller\playerSide.cydsn/GameController.c ****             CupStatus_latest=CupStatus;
 477              		.loc 1 157 0
 478 000e 234B     		ldr	r3, .L50+4
 479 0010 1878     		ldrb	r0, [r3]	@ zero_extendqisi2
 480 0012 93F80531 		ldrb	r3, [r3, #261]	@ zero_extendqisi2
 481 0016 9842     		cmp	r0, r3
 482 0018 0DD0     		beq	.L46
 158:..\..\..\playerSide_gamecontroller\playerSide.cydsn/GameController.c ****             ControlLights(CupStatus);
 483              		.loc 1 158 0
 484 001a 204C     		ldr	r4, .L50+4
 485 001c 84F80501 		strb	r0, [r4, #261]
 159:..\..\..\playerSide_gamecontroller\playerSide.cydsn/GameController.c ****             sprintf(game_buf,"Cupstatus change:%d\n\r",CupStatus);
 486              		.loc 1 159 0
 487 0020 FFF7FEFF 		bl	ControlLights
 488              	.LVL33:
 160:..\..\..\playerSide_gamecontroller\playerSide.cydsn/GameController.c ****             UART_PutString(game_buf);
 489              		.loc 1 160 0
 490 0024 14F8042B 		ldrb	r2, [r4], #4	@ zero_extendqisi2
 491 0028 1D49     		ldr	r1, .L50+8
 492 002a 2046     		mov	r0, r4
 493 002c FFF7FEFF 		bl	sprintf
 494              	.LVL34:
 161:..\..\..\playerSide_gamecontroller\playerSide.cydsn/GameController.c ****         }
 495              		.loc 1 161 0
 496 0030 2046     		mov	r0, r4
 497 0032 FFF7FEFF 		bl	UART_PutString
 498              	.LVL35:
 499              	.L46:
 163:..\..\..\playerSide_gamecontroller\playerSide.cydsn/GameController.c ****     {
 500              		.loc 1 163 0
 501 0036 184B     		ldr	r3, .L50
 502 0038 1B78     		ldrb	r3, [r3]	@ zero_extendqisi2
 503 003a 022B     		cmp	r3, #2
 504 003c 2AD1     		bne	.L44
 165:..\..\..\playerSide_gamecontroller\playerSide.cydsn/GameController.c ****         {
 505              		.loc 1 165 0
 506 003e 174B     		ldr	r3, .L50+4
 507 0040 93F80431 		ldrb	r3, [r3, #260]	@ zero_extendqisi2
 508 0044 6BB1     		cbz	r3, .L48
 165:..\..\..\playerSide_gamecontroller\playerSide.cydsn/GameController.c ****         {
 509              		.loc 1 165 0 is_stmt 0 discriminator 1
 510 0046 154A     		ldr	r2, .L50+4
 511 0048 D2F80821 		ldr	r2, [r2, #264]
 512 004c 4AB9     		cbnz	r2, .L48
 167:..\..\..\playerSide_gamecontroller\playerSide.cydsn/GameController.c ****             Timer_Start();
 513              		.loc 1 167 0 is_stmt 1
 514 004e 1548     		ldr	r0, .L50+12
 515 0050 FFF7FEFF 		bl	UART_PutString
 516              	.LVL36:
 168:..\..\..\playerSide_gamecontroller\playerSide.cydsn/GameController.c ****             blinking=1;
 517              		.loc 1 168 0
ARM GAS  C:\Users\marti\AppData\Local\Temp\ccs1mlZa.s 			page 14


 518 0054 FFF7FEFF 		bl	Timer_Start
 519              	.LVL37:
 169:..\..\..\playerSide_gamecontroller\playerSide.cydsn/GameController.c ****         }
 520              		.loc 1 169 0
 521 0058 0122     		movs	r2, #1
 522 005a 104B     		ldr	r3, .L50+4
 523 005c C3F80821 		str	r2, [r3, #264]
 524 0060 10BD     		pop	{r4, pc}
 525              	.L48:
 171:..\..\..\playerSide_gamecontroller\playerSide.cydsn/GameController.c ****         {
 526              		.loc 1 171 0
 527 0062 BBB9     		cbnz	r3, .L44
 171:..\..\..\playerSide_gamecontroller\playerSide.cydsn/GameController.c ****         {
 528              		.loc 1 171 0 is_stmt 0 discriminator 1
 529 0064 0D4B     		ldr	r3, .L50+4
 530 0066 D3F80831 		ldr	r3, [r3, #264]
 531 006a 9BB1     		cbz	r3, .L44
 173:..\..\..\playerSide_gamecontroller\playerSide.cydsn/GameController.c ****             Timer_Stop(); 
 532              		.loc 1 173 0 is_stmt 1
 533 006c 0E48     		ldr	r0, .L50+16
 534 006e FFF7FEFF 		bl	UART_PutString
 535              	.LVL38:
 174:..\..\..\playerSide_gamecontroller\playerSide.cydsn/GameController.c ****             blinking=0;
 536              		.loc 1 174 0
 537 0072 FFF7FEFF 		bl	Timer_Stop
 538              	.LVL39:
 175:..\..\..\playerSide_gamecontroller\playerSide.cydsn/GameController.c ****         }
 539              		.loc 1 175 0
 540 0076 0022     		movs	r2, #0
 541 0078 084B     		ldr	r3, .L50+4
 542 007a C3F80821 		str	r2, [r3, #264]
 543 007e 10BD     		pop	{r4, pc}
 544              	.L45:
 181:..\..\..\playerSide_gamecontroller\playerSide.cydsn/GameController.c ****             Timer_Stop();
 545              		.loc 1 181 0
 546 0080 064B     		ldr	r3, .L50+4
 547 0082 D3F80831 		ldr	r3, [r3, #264]
 548 0086 2BB1     		cbz	r3, .L44
 182:..\..\..\playerSide_gamecontroller\playerSide.cydsn/GameController.c ****             blinking=0;
 549              		.loc 1 182 0
 550 0088 FFF7FEFF 		bl	Timer_Stop
 551              	.LVL40:
 183:..\..\..\playerSide_gamecontroller\playerSide.cydsn/GameController.c ****         }
 552              		.loc 1 183 0
 553 008c 0022     		movs	r2, #0
 554 008e 034B     		ldr	r3, .L50+4
 555 0090 C3F80821 		str	r2, [r3, #264]
 556              	.L44:
 557 0094 10BD     		pop	{r4, pc}
 558              	.L51:
 559 0096 00BF     		.align	2
 560              	.L50:
 561 0098 00000000 		.word	currentState
 562 009c 00000000 		.word	.LANCHOR1
 563 00a0 58010000 		.word	.LC7
 564 00a4 70010000 		.word	.LC8
 565 00a8 84010000 		.word	.LC9
ARM GAS  C:\Users\marti\AppData\Local\Temp\ccs1mlZa.s 			page 15


 566              		.cfi_endproc
 567              	.LFE71:
 568              		.size	Controller, .-Controller
 569              		.section	.text.getCupStatus,"ax",%progbits
 570              		.align	2
 571              		.global	getCupStatus
 572              		.thumb
 573              		.thumb_func
 574              		.type	getCupStatus, %function
 575              	getCupStatus:
 576              	.LFB73:
 193:..\..\..\playerSide_gamecontroller\playerSide.cydsn/GameController.c **** uint8_t getCupStatus(){
 577              		.loc 1 193 0
 578              		.cfi_startproc
 579              		@ args = 0, pretend = 0, frame = 0
 580              		@ frame_needed = 0, uses_anonymous_args = 0
 581 0000 08B5     		push	{r3, lr}
 582              		.cfi_def_cfa_offset 8
 583              		.cfi_offset 3, -8
 584              		.cfi_offset 14, -4
 194:..\..\..\playerSide_gamecontroller\playerSide.cydsn/GameController.c ****     UART_PutString("get cupstatus\n\r");
 585              		.loc 1 194 0
 586 0002 0348     		ldr	r0, .L54
 587 0004 FFF7FEFF 		bl	UART_PutString
 588              	.LVL41:
 195:..\..\..\playerSide_gamecontroller\playerSide.cydsn/GameController.c ****     return CupStatus;
 196:..\..\..\playerSide_gamecontroller\playerSide.cydsn/GameController.c **** }
 589              		.loc 1 196 0
 590 0008 024B     		ldr	r3, .L54+4
 591 000a 1878     		ldrb	r0, [r3]	@ zero_extendqisi2
 592 000c 08BD     		pop	{r3, pc}
 593              	.L55:
 594 000e 00BF     		.align	2
 595              	.L54:
 596 0010 98010000 		.word	.LC10
 597 0014 00000000 		.word	.LANCHOR1
 598              		.cfi_endproc
 599              	.LFE73:
 600              		.size	getCupStatus, .-getCupStatus
 601              		.section	.text.setState,"ax",%progbits
 602              		.align	2
 603              		.global	setState
 604              		.thumb
 605              		.thumb_func
 606              		.type	setState, %function
 607              	setState:
 608              	.LFB64:
  31:..\..\..\playerSide_gamecontroller\playerSide.cydsn/GameController.c ****    switch(state)
 609              		.loc 1 31 0
 610              		.cfi_startproc
 611              		@ args = 0, pretend = 0, frame = 0
 612              		@ frame_needed = 0, uses_anonymous_args = 0
 613              	.LVL42:
 614 0000 08B5     		push	{r3, lr}
 615              		.cfi_def_cfa_offset 8
 616              		.cfi_offset 3, -8
 617              		.cfi_offset 14, -4
ARM GAS  C:\Users\marti\AppData\Local\Temp\ccs1mlZa.s 			page 16


  32:..\..\..\playerSide_gamecontroller\playerSide.cydsn/GameController.c ****     {
 618              		.loc 1 32 0
 619 0002 0428     		cmp	r0, #4
 620 0004 38D8     		bhi	.L56
 621 0006 DFE800F0 		tbb	[pc, r0]
 622              	.L59:
 623 000a 03       		.byte	(.L58-.L59)/2
 624 000b 0D       		.byte	(.L60-.L59)/2
 625 000c 17       		.byte	(.L61-.L59)/2
 626 000d 24       		.byte	(.L62-.L59)/2
 627 000e 2E       		.byte	(.L63-.L59)/2
 628 000f 00       		.p2align 1
 629              	.L58:
  36:..\..\..\playerSide_gamecontroller\playerSide.cydsn/GameController.c ****                 UART_PutString("State==IDLE\n\r");
 630              		.loc 1 36 0
 631 0010 1A4B     		ldr	r3, .L65
 632 0012 1870     		strb	r0, [r3]
  37:..\..\..\playerSide_gamecontroller\playerSide.cydsn/GameController.c ****                 ControlAllColor(turnedOffColor);
 633              		.loc 1 37 0
 634 0014 1A48     		ldr	r0, .L65+4
 635              	.LVL43:
 636 0016 FFF7FEFF 		bl	UART_PutString
 637              	.LVL44:
  38:..\..\..\playerSide_gamecontroller\playerSide.cydsn/GameController.c ****         }
 638              		.loc 1 38 0
 639 001a 1A4B     		ldr	r3, .L65+8
 640 001c 9868     		ldr	r0, [r3, #8]
 641 001e FFF7FEFF 		bl	ControlAllColor
 642              	.LVL45:
  40:..\..\..\playerSide_gamecontroller\playerSide.cydsn/GameController.c ****         case STARTING:
 643              		.loc 1 40 0
 644 0022 08BD     		pop	{r3, pc}
 645              	.LVL46:
 646              	.L60:
  43:..\..\..\playerSide_gamecontroller\playerSide.cydsn/GameController.c ****                 CupStatus=getCupStatus();
 647              		.loc 1 43 0
 648 0024 154B     		ldr	r3, .L65
 649 0026 1870     		strb	r0, [r3]
  44:..\..\..\playerSide_gamecontroller\playerSide.cydsn/GameController.c ****                 //ControlLights(CupStatus);
 650              		.loc 1 44 0
 651 0028 FFF7FEFF 		bl	getCupStatus
 652              	.LVL47:
 653 002c 164B     		ldr	r3, .L65+12
 654 002e 1870     		strb	r0, [r3]
  47:..\..\..\playerSide_gamecontroller\playerSide.cydsn/GameController.c ****             break;
 655              		.loc 1 47 0
 656 0030 1648     		ldr	r0, .L65+16
 657 0032 FFF7FEFF 		bl	UART_PutString
 658              	.LVL48:
  48:..\..\..\playerSide_gamecontroller\playerSide.cydsn/GameController.c ****         }
 659              		.loc 1 48 0
 660 0036 08BD     		pop	{r3, pc}
 661              	.LVL49:
 662              	.L61:
  52:..\..\..\playerSide_gamecontroller\playerSide.cydsn/GameController.c ****                 CupStatus=getCupStatus();
 663              		.loc 1 52 0
 664 0038 104B     		ldr	r3, .L65
ARM GAS  C:\Users\marti\AppData\Local\Temp\ccs1mlZa.s 			page 17


 665 003a 1870     		strb	r0, [r3]
  53:..\..\..\playerSide_gamecontroller\playerSide.cydsn/GameController.c ****                 //ControlLights(CupStatus);
 666              		.loc 1 53 0
 667 003c FFF7FEFF 		bl	getCupStatus
 668              	.LVL50:
 669 0040 114B     		ldr	r3, .L65+12
 670 0042 1870     		strb	r0, [r3]
  55:..\..\..\playerSide_gamecontroller\playerSide.cydsn/GameController.c ****                 UART_PutString("State==PLAYING\n\r");
 671              		.loc 1 55 0
 672 0044 0020     		movs	r0, #0
 673 0046 FFF7FEFF 		bl	sendCupStatus
 674              	.LVL51:
  56:..\..\..\playerSide_gamecontroller\playerSide.cydsn/GameController.c ****         }
 675              		.loc 1 56 0
 676 004a 1148     		ldr	r0, .L65+20
 677 004c FFF7FEFF 		bl	UART_PutString
 678              	.LVL52:
  58:..\..\..\playerSide_gamecontroller\playerSide.cydsn/GameController.c ****         case WON:
 679              		.loc 1 58 0
 680 0050 08BD     		pop	{r3, pc}
 681              	.LVL53:
 682              	.L62:
  61:..\..\..\playerSide_gamecontroller\playerSide.cydsn/GameController.c ****                 ControlAllColor(myColor);
 683              		.loc 1 61 0
 684 0052 0A4B     		ldr	r3, .L65
 685 0054 1870     		strb	r0, [r3]
  62:..\..\..\playerSide_gamecontroller\playerSide.cydsn/GameController.c ****                 UART_PutString("state==WON\n\r");
 686              		.loc 1 62 0
 687 0056 0F4B     		ldr	r3, .L65+24
 688 0058 1868     		ldr	r0, [r3]
 689              	.LVL54:
 690 005a FFF7FEFF 		bl	ControlAllColor
 691              	.LVL55:
  63:..\..\..\playerSide_gamecontroller\playerSide.cydsn/GameController.c ****         }
 692              		.loc 1 63 0
 693 005e 0E48     		ldr	r0, .L65+28
 694 0060 FFF7FEFF 		bl	UART_PutString
 695              	.LVL56:
  65:..\..\..\playerSide_gamecontroller\playerSide.cydsn/GameController.c ****         case LOST:
 696              		.loc 1 65 0
 697 0064 08BD     		pop	{r3, pc}
 698              	.LVL57:
 699              	.L63:
  68:..\..\..\playerSide_gamecontroller\playerSide.cydsn/GameController.c ****                 ControlAllColor(opponentColor);
 700              		.loc 1 68 0
 701 0066 054B     		ldr	r3, .L65
 702 0068 1870     		strb	r0, [r3]
  69:..\..\..\playerSide_gamecontroller\playerSide.cydsn/GameController.c ****                 UART_PutString("state==LOST\n\r");
 703              		.loc 1 69 0
 704 006a 0A4B     		ldr	r3, .L65+24
 705 006c 5868     		ldr	r0, [r3, #4]
 706              	.LVL58:
 707 006e FFF7FEFF 		bl	ControlAllColor
 708              	.LVL59:
  70:..\..\..\playerSide_gamecontroller\playerSide.cydsn/GameController.c ****         }  
 709              		.loc 1 70 0
 710 0072 0A48     		ldr	r0, .L65+32
ARM GAS  C:\Users\marti\AppData\Local\Temp\ccs1mlZa.s 			page 18


 711 0074 FFF7FEFF 		bl	UART_PutString
 712              	.LVL60:
 713              	.L56:
 714 0078 08BD     		pop	{r3, pc}
 715              	.L66:
 716 007a 00BF     		.align	2
 717              	.L65:
 718 007c 00000000 		.word	currentState
 719 0080 A8010000 		.word	.LC11
 720 0084 00000000 		.word	.LANCHOR2
 721 0088 00000000 		.word	.LANCHOR1
 722 008c B8010000 		.word	.LC12
 723 0090 CC010000 		.word	.LC13
 724 0094 00000000 		.word	.LANCHOR0
 725 0098 E0010000 		.word	.LC14
 726 009c F0010000 		.word	.LC15
 727              		.cfi_endproc
 728              	.LFE64:
 729              		.size	setState, .-setState
 730              		.section	.text.Interrupt_LED,"ax",%progbits
 731              		.align	2
 732              		.global	Interrupt_LED
 733              		.thumb
 734              		.thumb_func
 735              		.type	Interrupt_LED, %function
 736              	Interrupt_LED:
 737              	.LFB74:
 197:..\..\..\playerSide_gamecontroller\playerSide.cydsn/GameController.c **** 
 198:..\..\..\playerSide_gamecontroller\playerSide.cydsn/GameController.c **** void Interrupt_LED()
 199:..\..\..\playerSide_gamecontroller\playerSide.cydsn/GameController.c **** { 
 738              		.loc 1 199 0
 739              		.cfi_startproc
 740              		@ args = 0, pretend = 0, frame = 0
 741              		@ frame_needed = 0, uses_anonymous_args = 0
 742 0000 38B5     		push	{r3, r4, r5, lr}
 743              		.cfi_def_cfa_offset 16
 744              		.cfi_offset 3, -16
 745              		.cfi_offset 4, -12
 746              		.cfi_offset 5, -8
 747              		.cfi_offset 14, -4
 200:..\..\..\playerSide_gamecontroller\playerSide.cydsn/GameController.c ****     if(currentState==PLAYING)
 748              		.loc 1 200 0
 749 0002 174B     		ldr	r3, .L75
 750 0004 1B78     		ldrb	r3, [r3]	@ zero_extendqisi2
 751 0006 022B     		cmp	r3, #2
 752 0008 28D1     		bne	.L67
 753 000a 24E0     		b	.L73
 754              	.LVL61:
 755              	.L72:
 756              	.LBB4:
 201:..\..\..\playerSide_gamecontroller\playerSide.cydsn/GameController.c ****         for(uint8_t i=0;i<8;i++)
 202:..\..\..\playerSide_gamecontroller\playerSide.cydsn/GameController.c ****         {
 203:..\..\..\playerSide_gamecontroller\playerSide.cydsn/GameController.c ****             if((hitStatus>>i) & 1){
 757              		.loc 1 203 0
 758 000c 2546     		mov	r5, r4
 759 000e 154B     		ldr	r3, .L75+4
 760 0010 93F80431 		ldrb	r3, [r3, #260]	@ zero_extendqisi2
ARM GAS  C:\Users\marti\AppData\Local\Temp\ccs1mlZa.s 			page 19


 761 0014 2341     		asrs	r3, r3, r4
 762 0016 13F0010F 		tst	r3, #1
 763 001a 19D0     		beq	.L70
 204:..\..\..\playerSide_gamecontroller\playerSide.cydsn/GameController.c ****                 if(LED_states[i]){
 764              		.loc 1 204 0
 765 001c 114B     		ldr	r3, .L75+4
 766 001e 2344     		add	r3, r3, r4
 767 0020 93F80C31 		ldrb	r3, [r3, #268]	@ zero_extendqisi2
 768 0024 53B1     		cbz	r3, .L71
 205:..\..\..\playerSide_gamecontroller\playerSide.cydsn/GameController.c ****                     controlLight(i,myColor);
 769              		.loc 1 205 0
 770 0026 104B     		ldr	r3, .L75+8
 771 0028 1968     		ldr	r1, [r3]
 772 002a 2046     		mov	r0, r4
 773 002c FFF7FEFF 		bl	controlLight
 774              	.LVL62:
 206:..\..\..\playerSide_gamecontroller\playerSide.cydsn/GameController.c ****                     LED_states[i]=0;}
 775              		.loc 1 206 0
 776 0030 0C4B     		ldr	r3, .L75+4
 777 0032 1D44     		add	r5, r5, r3
 778 0034 0023     		movs	r3, #0
 779 0036 85F80C31 		strb	r3, [r5, #268]
 780 003a 09E0     		b	.L70
 781              	.L71:
 207:..\..\..\playerSide_gamecontroller\playerSide.cydsn/GameController.c ****                 else{
 208:..\..\..\playerSide_gamecontroller\playerSide.cydsn/GameController.c ****                     controlLight(i,opponentColor);
 782              		.loc 1 208 0
 783 003c 0A4B     		ldr	r3, .L75+8
 784 003e 5968     		ldr	r1, [r3, #4]
 785 0040 2046     		mov	r0, r4
 786 0042 FFF7FEFF 		bl	controlLight
 787              	.LVL63:
 209:..\..\..\playerSide_gamecontroller\playerSide.cydsn/GameController.c ****                     LED_states[i]=1;}
 788              		.loc 1 209 0
 789 0046 074B     		ldr	r3, .L75+4
 790 0048 1D44     		add	r5, r5, r3
 791 004a 0123     		movs	r3, #1
 792 004c 85F80C31 		strb	r3, [r5, #268]
 793              	.L70:
 201:..\..\..\playerSide_gamecontroller\playerSide.cydsn/GameController.c ****         {
 794              		.loc 1 201 0 discriminator 2
 795 0050 0134     		adds	r4, r4, #1
 796              	.LVL64:
 797 0052 E4B2     		uxtb	r4, r4
 798              	.LVL65:
 799 0054 00E0     		b	.L68
 800              	.LVL66:
 801              	.L73:
 802              	.LBE4:
 803 0056 0024     		movs	r4, #0
 804              	.L68:
 805              	.LVL67:
 806              	.LBB5:
 201:..\..\..\playerSide_gamecontroller\playerSide.cydsn/GameController.c ****         {
 807              		.loc 1 201 0 is_stmt 0 discriminator 1
 808 0058 072C     		cmp	r4, #7
 809 005a D7D9     		bls	.L72
ARM GAS  C:\Users\marti\AppData\Local\Temp\ccs1mlZa.s 			page 20


 810              	.LVL68:
 811              	.L67:
 812 005c 38BD     		pop	{r3, r4, r5, pc}
 813              	.L76:
 814 005e 00BF     		.align	2
 815              	.L75:
 816 0060 00000000 		.word	currentState
 817 0064 00000000 		.word	.LANCHOR1
 818 0068 00000000 		.word	.LANCHOR0
 819              	.LBE5:
 820              		.cfi_endproc
 821              	.LFE74:
 822              		.size	Interrupt_LED, .-Interrupt_LED
 823              		.comm	currentState,1,1
 824              		.section	.rodata
 825              		.align	2
 826              		.set	.LANCHOR2,. + 0
 827              		.type	missingCupColor, %object
 828              		.size	missingCupColor, 3
 829              	missingCupColor:
 830 0000 FF       		.byte	-1
 831 0001 00       		.byte	0
 832 0002 00       		.byte	0
 833 0003 00       		.space	1
 834              		.type	placedCupColor, %object
 835              		.size	placedCupColor, 3
 836              	placedCupColor:
 837 0004 00       		.byte	0
 838 0005 00       		.byte	0
 839 0006 FF       		.byte	-1
 840 0007 00       		.space	1
 841              		.type	turnedOffColor, %object
 842              		.size	turnedOffColor, 3
 843              	turnedOffColor:
 844 0008 000000   		.space	3
 845              		.data
 846              		.align	2
 847              		.set	.LANCHOR0,. + 0
 848              		.type	myColor, %object
 849              		.size	myColor, 3
 850              	myColor:
 851 0000 00       		.byte	0
 852 0001 FF       		.byte	-1
 853 0002 FF       		.byte	-1
 854 0003 00       		.space	1
 855              		.type	opponentColor, %object
 856              		.size	opponentColor, 3
 857              	opponentColor:
 858 0004 FF       		.byte	-1
 859 0005 00       		.byte	0
 860 0006 FF       		.byte	-1
 861              		.section	.rodata.str1.4,"aMS",%progbits,1
 862              		.align	2
 863              	.LC0:
 864 0000 53656E64 		.ascii	"Sending cupstatus. Updating cupstatus with cupstatu"
 864      696E6720 
 864      63757073 
ARM GAS  C:\Users\marti\AppData\Local\Temp\ccs1mlZa.s 			page 21


 864      74617475 
 864      732E2055 
 865 0033 733A2578 		.ascii	"s:%x\012\015\000"
 865      0A0D00
 866 003a 0000     		.space	2
 867              	.LC1:
 868 003c 53656E64 		.ascii	"Sending Hitstatus. Updating Hitstatus\012\015\000"
 868      696E6720 
 868      48697473 
 868      74617475 
 868      732E2055 
 869              	.LC2:
 870 0064 7475726E 		.ascii	"turned off colors: Red:%d Green:%d Blue:%d\012\015\000"
 870      6564206F 
 870      66662063 
 870      6F6C6F72 
 870      733A2052 
 871 0091 000000   		.space	3
 872              	.LC3:
 873 0094 57696E6E 		.ascii	"Winning lights with colors: Red:%d Green:%d Blue:%d"
 873      696E6720 
 873      6C696768 
 873      74732077 
 873      69746820 
 874 00c7 0A0D00   		.ascii	"\012\015\000"
 875 00ca 0000     		.space	2
 876              	.LC4:
 877 00cc 4C6F7369 		.ascii	"Losing lights with colors: Red:%d Green:%d Blue:%d\012"
 877      6E67206C 
 877      69676874 
 877      73207769 
 877      74682063 
 878 00ff 0D00     		.ascii	"\015\000"
 879 0101 000000   		.space	3
 880              	.LC5:
 881 0104 6C696768 		.ascii	"light for index %d with color: Red:%d Green:%d Blue"
 881      7420666F 
 881      7220696E 
 881      64657820 
 881      25642077 
 882 0137 3A25640A 		.ascii	":%d\012\015\000"
 882      0D00
 883 013d 000000   		.space	3
 884              	.LC6:
 885 0140 436F6E74 		.ascii	"Controlling lights\012\015\000"
 885      726F6C6C 
 885      696E6720 
 885      6C696768 
 885      74730A0D 
 886 0155 000000   		.space	3
 887              	.LC7:
 888 0158 43757073 		.ascii	"Cupstatus change:%d\012\015\000"
 888      74617475 
 888      73206368 
 888      616E6765 
 888      3A25640A 
 889 016e 0000     		.space	2
ARM GAS  C:\Users\marti\AppData\Local\Temp\ccs1mlZa.s 			page 22


 890              	.LC8:
 891 0170 53746172 		.ascii	"Starting timer\012\015\000"
 891      74696E67 
 891      2074696D 
 891      65720A0D 
 891      00
 892 0181 000000   		.space	3
 893              	.LC9:
 894 0184 53746F70 		.ascii	"Stopping timer\012\015\000"
 894      70696E67 
 894      2074696D 
 894      65720A0D 
 894      00
 895 0195 000000   		.space	3
 896              	.LC10:
 897 0198 67657420 		.ascii	"get cupstatus\012\015\000"
 897      63757073 
 897      74617475 
 897      730A0D00 
 898              	.LC11:
 899 01a8 53746174 		.ascii	"State==IDLE\012\015\000"
 899      653D3D49 
 899      444C450A 
 899      0D00
 900 01b6 0000     		.space	2
 901              	.LC12:
 902 01b8 53746174 		.ascii	"State==STARTING\012\015\000"
 902      653D3D53 
 902      54415254 
 902      494E470A 
 902      0D00
 903 01ca 0000     		.space	2
 904              	.LC13:
 905 01cc 53746174 		.ascii	"State==PLAYING\012\015\000"
 905      653D3D50 
 905      4C415949 
 905      4E470A0D 
 905      00
 906 01dd 000000   		.space	3
 907              	.LC14:
 908 01e0 73746174 		.ascii	"state==WON\012\015\000"
 908      653D3D57 
 908      4F4E0A0D 
 908      00
 909 01ed 000000   		.space	3
 910              	.LC15:
 911 01f0 73746174 		.ascii	"state==LOST\012\015\000"
 911      653D3D4C 
 911      4F53540A 
 911      0D00
 912              		.bss
 913              		.align	2
 914              		.set	.LANCHOR1,. + 0
 915              		.type	CupStatus, %object
 916              		.size	CupStatus, 1
 917              	CupStatus:
 918 0000 00       		.space	1
ARM GAS  C:\Users\marti\AppData\Local\Temp\ccs1mlZa.s 			page 23


 919 0001 000000   		.space	3
 920              		.type	game_buf, %object
 921              		.size	game_buf, 256
 922              	game_buf:
 923 0004 00000000 		.space	256
 923      00000000 
 923      00000000 
 923      00000000 
 923      00000000 
 924              		.type	hitStatus, %object
 925              		.size	hitStatus, 1
 926              	hitStatus:
 927 0104 00       		.space	1
 928              		.type	CupStatus_latest, %object
 929              		.size	CupStatus_latest, 1
 930              	CupStatus_latest:
 931 0105 00       		.space	1
 932 0106 0000     		.space	2
 933              		.type	blinking, %object
 934              		.size	blinking, 4
 935              	blinking:
 936 0108 00000000 		.space	4
 937              		.type	LED_states, %object
 938              		.size	LED_states, 8
 939              	LED_states:
 940 010c 00000000 		.space	8
 940      00000000 
 941              		.text
 942              	.Letext0:
 943              		.file 2 "c:\\program files (x86)\\cypress\\psoc creator\\4.2\\psoc creator\\import\\gnu\\arm\\5.4.
 944              		.file 3 "c:\\program files (x86)\\cypress\\psoc creator\\4.2\\psoc creator\\import\\gnu\\arm\\5.4.
 945              		.file 4 "./GameController.h"
 946              		.file 5 "Generated_Source\\PSoC5/core_cm3.h"
 947              		.file 6 "c:\\program files (x86)\\cypress\\psoc creator\\4.2\\psoc creator\\import\\gnu\\arm\\5.4.
 948              		.file 7 "Generated_Source\\PSoC5/UART.h"
 949              		.file 8 "./RPI_IF.h"
 950              		.file 9 "Generated_Source\\PSoC5/Timer.h"