ARM GAS  C:\Users\marti\AppData\Local\Temp\ccZX9io2.s 			page 1


   1              		.syntax unified
   2              		.cpu cortex-m3
   3              		.fpu softvfp
   4              		.eabi_attribute 20, 1
   5              		.eabi_attribute 21, 1
   6              		.eabi_attribute 23, 3
   7              		.eabi_attribute 24, 1
   8              		.eabi_attribute 25, 1
   9              		.eabi_attribute 26, 1
  10              		.eabi_attribute 30, 1
  11              		.eabi_attribute 34, 1
  12              		.eabi_attribute 18, 4
  13              		.thumb
  14              		.syntax unified
  15              		.file	"main.c"
  16              		.text
  17              	.Ltext0:
  18              		.cfi_sections	.debug_frame
  19              		.section	.text.blinking_LED,"ax",%progbits
  20              		.align	2
  21              		.global	blinking_LED
  22              		.thumb
  23              		.thumb_func
  24              		.type	blinking_LED, %function
  25              	blinking_LED:
  26              	.LFB63:
  27              		.file 1 "main.c"
   1:main.c        **** /* ========================================
   2:main.c        ****  *
   3:main.c        ****  * Copyright YOUR COMPANY, THE YEAR
   4:main.c        ****  * All Rights Reserved
   5:main.c        ****  * UNPUBLISHED, LICENSED SOFTWARE.
   6:main.c        ****  *
   7:main.c        ****  * CONFIDENTIAL AND PROPRIETARY INFORMATION
   8:main.c        ****  * WHICH IS THE PROPERTY OF your company.
   9:main.c        ****  *
  10:main.c        ****  * ========================================
  11:main.c        **** */
  12:main.c        **** //#include "cyapicallbacks.h"
  13:main.c        **** #include "project.h"
  14:main.c        **** #include "RPI_IF.h"
  15:main.c        **** #include "string.h"
  16:main.c        **** #include "GameController.h"
  17:main.c        **** 
  18:main.c        **** void handleByteReceived(uint8_t byteReceived);
  19:main.c        **** 
  20:main.c        **** CY_ISR(blinking_LED)
  21:main.c        **** {
  28              		.loc 1 21 0
  29              		.cfi_startproc
  30              		@ args = 0, pretend = 0, frame = 0
  31              		@ frame_needed = 0, uses_anonymous_args = 0
  32 0000 08B5     		push	{r3, lr}
  33              		.cfi_def_cfa_offset 8
  34              		.cfi_offset 3, -8
  35              		.cfi_offset 14, -4
  22:main.c        ****     Timer_ReadStatusRegister();
ARM GAS  C:\Users\marti\AppData\Local\Temp\ccZX9io2.s 			page 2


  36              		.loc 1 22 0
  37 0002 FFF7FEFF 		bl	Timer_ReadStatusRegister
  38              	.LVL0:
  23:main.c        ****     Interrupt_LED();
  39              		.loc 1 23 0
  40 0006 FFF7FEFF 		bl	Interrupt_LED
  41              	.LVL1:
  42 000a 08BD     		pop	{r3, pc}
  43              		.cfi_endproc
  44              	.LFE63:
  45              		.size	blinking_LED, .-blinking_LED
  46              		.section	.text.main,"ax",%progbits
  47              		.align	2
  48              		.global	main
  49              		.thumb
  50              		.thumb_func
  51              		.type	main, %function
  52              	main:
  53              	.LFB65:
  24:main.c        **** }
  25:main.c        **** CY_ISR(ISR_UART_rx_handler)
  26:main.c        **** {
  27:main.c        ****     uint8_t bytesToRead = UART_GetRxBufferSize();
  28:main.c        ****     while (bytesToRead > 0)
  29:main.c        ****     {
  30:main.c        ****         uint8_t byteReceived = UART_ReadRxData();
  31:main.c        ****         UART_WriteTxData(byteReceived); // echo back
  32:main.c        ****         
  33:main.c        ****         handleByteReceived(byteReceived);
  34:main.c        ****         
  35:main.c        ****         bytesToRead--;
  36:main.c        ****     }
  37:main.c        **** }
  38:main.c        **** int main(void)
  39:main.c        **** {
  54              		.loc 1 39 0
  55              		.cfi_startproc
  56              		@ Volatile: function does not return.
  57              		@ args = 0, pretend = 0, frame = 0
  58              		@ frame_needed = 0, uses_anonymous_args = 0
  59 0000 08B5     		push	{r3, lr}
  60              		.cfi_def_cfa_offset 8
  61              		.cfi_offset 3, -8
  62              		.cfi_offset 14, -4
  40:main.c        ****     CyGlobalIntEnable; /* Enable global interrupts. */
  63              		.loc 1 40 0
  64              		.syntax unified
  65              	@ 40 "main.c" 1
  66 0002 62B6     		CPSIE   i
  67              	@ 0 "" 2
  41:main.c        ****     UART_Start();
  68              		.loc 1 41 0
  69              		.thumb
  70              		.syntax unified
  71 0004 FFF7FEFF 		bl	UART_Start
  72              	.LVL2:
  42:main.c        ****     UART_PutString("Program started\n\r");
ARM GAS  C:\Users\marti\AppData\Local\Temp\ccZX9io2.s 			page 3


  73              		.loc 1 42 0
  74 0008 0D48     		ldr	r0, .L6
  75 000a FFF7FEFF 		bl	UART_PutString
  76              	.LVL3:
  43:main.c        ****     /* Place your initialization/startup code here (e.g. MyInst_Start()) */
  44:main.c        ****     isr_1_StartEx(ISR_UART_rx_handler);
  77              		.loc 1 44 0
  78 000e 0D48     		ldr	r0, .L6+4
  79 0010 FFF7FEFF 		bl	isr_1_StartEx
  80              	.LVL4:
  45:main.c        ****     RPI_IF_init();
  81              		.loc 1 45 0
  82 0014 FFF7FEFF 		bl	RPI_IF_init
  83              	.LVL5:
  46:main.c        ****     CyDelay(2000);
  84              		.loc 1 46 0
  85 0018 4FF4FA60 		mov	r0, #2000
  86 001c FFF7FEFF 		bl	CyDelay
  87              	.LVL6:
  47:main.c        ****     isr_StartEx(blinking_LED);
  88              		.loc 1 47 0
  89 0020 0948     		ldr	r0, .L6+8
  90 0022 FFF7FEFF 		bl	isr_StartEx
  91              	.LVL7:
  92              	.L4:
  48:main.c        ****     //sendCupStatus(0x42);
  49:main.c        ****     for(;;)
  50:main.c        ****     {
  51:main.c        ****         sendCupStatus(0x3F);
  93              		.loc 1 51 0 discriminator 1
  94 0026 3F20     		movs	r0, #63
  95 0028 FFF7FEFF 		bl	sendCupStatus
  96              	.LVL8:
  52:main.c        ****        RPi_IF_handleData();
  97              		.loc 1 52 0 discriminator 1
  98 002c FFF7FEFF 		bl	RPi_IF_handleData
  99              	.LVL9:
  53:main.c        ****        CyDelay(1000);
 100              		.loc 1 53 0 discriminator 1
 101 0030 4FF47A70 		mov	r0, #1000
 102 0034 FFF7FEFF 		bl	CyDelay
 103              	.LVL10:
  54:main.c        ****        Controller();
 104              		.loc 1 54 0 discriminator 1
 105 0038 FFF7FEFF 		bl	Controller
 106              	.LVL11:
 107 003c F3E7     		b	.L4
 108              	.L7:
 109 003e 00BF     		.align	2
 110              	.L6:
 111 0040 00000000 		.word	.LC0
 112 0044 00000000 		.word	ISR_UART_rx_handler
 113 0048 00000000 		.word	blinking_LED
 114              		.cfi_endproc
 115              	.LFE65:
 116              		.size	main, .-main
 117              		.section	.text.handleByteReceived,"ax",%progbits
ARM GAS  C:\Users\marti\AppData\Local\Temp\ccZX9io2.s 			page 4


 118              		.align	2
 119              		.global	handleByteReceived
 120              		.thumb
 121              		.thumb_func
 122              		.type	handleByteReceived, %function
 123              	handleByteReceived:
 124              	.LFB66:
  55:main.c        ****        
  56:main.c        ****     }
  57:main.c        **** }
  58:main.c        **** 
  59:main.c        **** 
  60:main.c        **** void handleByteReceived(uint8_t byteReceived)
  61:main.c        **** {
 125              		.loc 1 61 0
 126              		.cfi_startproc
 127              		@ args = 0, pretend = 0, frame = 0
 128              		@ frame_needed = 0, uses_anonymous_args = 0
 129              	.LVL12:
 130 0000 08B5     		push	{r3, lr}
 131              		.cfi_def_cfa_offset 8
 132              		.cfi_offset 3, -8
 133              		.cfi_offset 14, -4
  62:main.c        ****     switch(byteReceived)
 134              		.loc 1 62 0
 135 0002 7128     		cmp	r0, #113
 136 0004 04D0     		beq	.L10
 137 0006 7728     		cmp	r0, #119
 138 0008 09D0     		beq	.L11
 139 000a 6528     		cmp	r0, #101
 140 000c 14D1     		bne	.L8
 141 000e 0DE0     		b	.L12
 142              	.L10:
  63:main.c        ****     {
  64:main.c        ****         case 'q' :
  65:main.c        ****         {
  66:main.c        ****             updateCupStatus(0b00000011);
 143              		.loc 1 66 0
 144 0010 0320     		movs	r0, #3
 145              	.LVL13:
 146 0012 FFF7FEFF 		bl	updateCupStatus
 147              	.LVL14:
  67:main.c        ****             updateHitStatus(0b00000000);
 148              		.loc 1 67 0
 149 0016 0020     		movs	r0, #0
 150 0018 FFF7FEFF 		bl	updateHitStatus
 151              	.LVL15:
  68:main.c        ****         }
  69:main.c        ****         break;
 152              		.loc 1 69 0
 153 001c 08BD     		pop	{r3, pc}
 154              	.LVL16:
 155              	.L11:
  70:main.c        ****         case 'w' :
  71:main.c        ****         {
  72:main.c        ****             updateCupStatus(0b00000011);
 156              		.loc 1 72 0
ARM GAS  C:\Users\marti\AppData\Local\Temp\ccZX9io2.s 			page 5


 157 001e 0320     		movs	r0, #3
 158              	.LVL17:
 159 0020 FFF7FEFF 		bl	updateCupStatus
 160              	.LVL18:
  73:main.c        ****             updateHitStatus(0b00001111);
 161              		.loc 1 73 0
 162 0024 0F20     		movs	r0, #15
 163 0026 FFF7FEFF 		bl	updateHitStatus
 164              	.LVL19:
  74:main.c        ****         }
  75:main.c        ****         break;
 165              		.loc 1 75 0
 166 002a 08BD     		pop	{r3, pc}
 167              	.LVL20:
 168              	.L12:
  76:main.c        ****         case 'e':
  77:main.c        ****         {
  78:main.c        ****             updateCupStatus(0b00001111);
 169              		.loc 1 78 0
 170 002c 0F20     		movs	r0, #15
 171              	.LVL21:
 172 002e FFF7FEFF 		bl	updateCupStatus
 173              	.LVL22:
  79:main.c        ****             updateHitStatus(0b00001111);
 174              		.loc 1 79 0
 175 0032 0F20     		movs	r0, #15
 176 0034 FFF7FEFF 		bl	updateHitStatus
 177              	.LVL23:
 178              	.L8:
 179 0038 08BD     		pop	{r3, pc}
 180              		.cfi_endproc
 181              	.LFE66:
 182              		.size	handleByteReceived, .-handleByteReceived
 183 003a 00BF     		.section	.text.ISR_UART_rx_handler,"ax",%progbits
 184              		.align	2
 185              		.global	ISR_UART_rx_handler
 186              		.thumb
 187              		.thumb_func
 188              		.type	ISR_UART_rx_handler, %function
 189              	ISR_UART_rx_handler:
 190              	.LFB64:
  26:main.c        ****     uint8_t bytesToRead = UART_GetRxBufferSize();
 191              		.loc 1 26 0
 192              		.cfi_startproc
 193              		@ args = 0, pretend = 0, frame = 0
 194              		@ frame_needed = 0, uses_anonymous_args = 0
 195 0000 38B5     		push	{r3, r4, r5, lr}
 196              		.cfi_def_cfa_offset 16
 197              		.cfi_offset 3, -16
 198              		.cfi_offset 4, -12
 199              		.cfi_offset 5, -8
 200              		.cfi_offset 14, -4
  27:main.c        ****     while (bytesToRead > 0)
 201              		.loc 1 27 0
 202 0002 FFF7FEFF 		bl	UART_GetRxBufferSize
 203              	.LVL24:
 204 0006 0446     		mov	r4, r0
ARM GAS  C:\Users\marti\AppData\Local\Temp\ccZX9io2.s 			page 6


 205              	.LVL25:
  28:main.c        ****     {
 206              		.loc 1 28 0
 207 0008 09E0     		b	.L15
 208              	.L16:
 209              	.LBB2:
  30:main.c        ****         UART_WriteTxData(byteReceived); // echo back
 210              		.loc 1 30 0
 211 000a FFF7FEFF 		bl	UART_ReadRxData
 212              	.LVL26:
 213 000e 0546     		mov	r5, r0
 214              	.LVL27:
  31:main.c        ****         
 215              		.loc 1 31 0
 216 0010 FFF7FEFF 		bl	UART_WriteTxData
 217              	.LVL28:
  33:main.c        ****         
 218              		.loc 1 33 0
 219 0014 2846     		mov	r0, r5
 220 0016 FFF7FEFF 		bl	handleByteReceived
 221              	.LVL29:
  35:main.c        ****     }
 222              		.loc 1 35 0
 223 001a 013C     		subs	r4, r4, #1
 224              	.LVL30:
 225 001c E4B2     		uxtb	r4, r4
 226              	.LVL31:
 227              	.L15:
 228              	.LBE2:
  28:main.c        ****     {
 229              		.loc 1 28 0
 230 001e 002C     		cmp	r4, #0
 231 0020 F3D1     		bne	.L16
  37:main.c        **** int main(void)
 232              		.loc 1 37 0
 233 0022 38BD     		pop	{r3, r4, r5, pc}
 234              		.cfi_endproc
 235              	.LFE64:
 236              		.size	ISR_UART_rx_handler, .-ISR_UART_rx_handler
 237              		.comm	currentState,1,1
 238              		.section	.rodata.str1.4,"aMS",%progbits,1
 239              		.align	2
 240              	.LC0:
 241 0000 50726F67 		.ascii	"Program started\012\015\000"
 241      72616D20 
 241      73746172 
 241      7465640A 
 241      0D00
 242              		.text
 243              	.Letext0:
 244              		.file 2 "c:\\program files (x86)\\cypress\\psoc creator\\4.2\\psoc creator\\import\\gnu\\arm\\5.4.
 245              		.file 3 "c:\\program files (x86)\\cypress\\psoc creator\\4.2\\psoc creator\\import\\gnu\\arm\\5.4.
 246              		.file 4 "Generated_Source\\PSoC5/core_cm3.h"
 247              		.file 5 "GameController.h"
 248              		.file 6 "Generated_Source\\PSoC5/Timer.h"
 249              		.file 7 "Generated_Source\\PSoC5/UART.h"
 250              		.file 8 "Generated_Source\\PSoC5/isr_1.h"
ARM GAS  C:\Users\marti\AppData\Local\Temp\ccZX9io2.s 			page 7


 251              		.file 9 "RPI_IF.h"
 252              		.file 10 "Generated_Source\\PSoC5/CyLib.h"
 253              		.file 11 "Generated_Source\\PSoC5/isr.h"