ARM GAS  C:\Users\marti\AppData\Local\Temp\cc2NXWCS.s 			page 1


   1              		.syntax unified
   2              		.cpu cortex-m3
   3              		.fpu softvfp
   4              		.eabi_attribute 20, 1
   5              		.eabi_attribute 21, 1
   6              		.eabi_attribute 23, 3
   7              		.eabi_attribute 24, 1
   8              		.eabi_attribute 25, 1
   9              		.eabi_attribute 26, 1
  10              		.eabi_attribute 30, 1
  11              		.eabi_attribute 34, 1
  12              		.eabi_attribute 18, 4
  13              		.thumb
  14              		.syntax unified
  15              		.file	"RPI_IF.c"
  16              		.text
  17              	.Ltext0:
  18              		.cfi_sections	.debug_frame
  19              		.section	.text.resetReadBuffer,"ax",%progbits
  20              		.align	2
  21              		.global	resetReadBuffer
  22              		.thumb
  23              		.thumb_func
  24              		.type	resetReadBuffer, %function
  25              	resetReadBuffer:
  26              	.LFB65:
  27              		.file 1 "RPI_IF.c"
   1:RPI_IF.c      **** /* ========================================
   2:RPI_IF.c      ****  *
   3:RPI_IF.c      ****  * Copyright YOUR COMPANY, THE YEAR
   4:RPI_IF.c      ****  * All Rights Reserved
   5:RPI_IF.c      ****  * UNPUBLISHED, LICENSED SOFTWARE.
   6:RPI_IF.c      ****  *
   7:RPI_IF.c      ****  * CONFIDENTIAL AND PROPRIETARY INFORMATION
   8:RPI_IF.c      ****  * WHICH IS THE PROPERTY OF your company.
   9:RPI_IF.c      ****  *
  10:RPI_IF.c      ****  * ========================================
  11:RPI_IF.c      **** */
  12:RPI_IF.c      **** 
  13:RPI_IF.c      **** #include "RPI_IF.h"
  14:RPI_IF.c      **** #include <string.h>
  15:RPI_IF.c      **** #include <stdio.h>
  16:RPI_IF.c      **** 
  17:RPI_IF.c      **** 
  18:RPI_IF.c      **** #define IDLE_DATA 0x0A
  19:RPI_IF.c      **** #define STARTING_DATA 0x0B
  20:RPI_IF.c      **** #define PLAYING_DATA 0x0C
  21:RPI_IF.c      **** #define LOST_DATA 0x0D
  22:RPI_IF.c      **** #define WON_DATA 0x0E
  23:RPI_IF.c      **** #define COLOR_MSG 0x21
  24:RPI_IF.c      **** #define OPPONENT_COLOR 0x02
  25:RPI_IF.c      **** #define OWN_COLOR 0x01
  26:RPI_IF.c      **** 
  27:RPI_IF.c      **** 
  28:RPI_IF.c      **** void resetReadBuffer();
  29:RPI_IF.c      **** void resetWriteBuffer();
  30:RPI_IF.c      **** 
ARM GAS  C:\Users\marti\AppData\Local\Temp\cc2NXWCS.s 			page 2


  31:RPI_IF.c      **** static char buf[50];
  32:RPI_IF.c      **** int n;
  33:RPI_IF.c      **** volatile int timer_run_out=0;
  34:RPI_IF.c      **** 
  35:RPI_IF.c      **** uint8_t readBuffer[256];
  36:RPI_IF.c      **** uint8_t writeBuffer[256];
  37:RPI_IF.c      **** 
  38:RPI_IF.c      **** 
  39:RPI_IF.c      **** void RPI_IF_init()
  40:RPI_IF.c      **** {
  41:RPI_IF.c      ****     I2C_Start();
  42:RPI_IF.c      ****     I2C_EnableInt();
  43:RPI_IF.c      ****     
  44:RPI_IF.c      ****     
  45:RPI_IF.c      ****     I2C_SlaveInitReadBuf((uint8_t*)readBuffer,255);
  46:RPI_IF.c      ****     I2C_SlaveInitWriteBuf((uint8_t*)writeBuffer,255);
  47:RPI_IF.c      ****     
  48:RPI_IF.c      ****     resetReadBuffer();
  49:RPI_IF.c      **** 
  50:RPI_IF.c      **** }
  51:RPI_IF.c      **** 
  52:RPI_IF.c      **** void resetReadBuffer()
  53:RPI_IF.c      **** {
  28              		.loc 1 53 0
  29              		.cfi_startproc
  30              		@ args = 0, pretend = 0, frame = 0
  31              		@ frame_needed = 0, uses_anonymous_args = 0
  32              		@ link register save eliminated.
  33              	.LVL0:
  34              	.LBB2:
  54:RPI_IF.c      ****     for(int i = 0; i < 255; i++)
  35              		.loc 1 54 0
  36 0000 0023     		movs	r3, #0
  37 0002 03E0     		b	.L2
  38              	.LVL1:
  39              	.L3:
  55:RPI_IF.c      ****     {
  56:RPI_IF.c      ****         readBuffer[i] = 0xFF;
  40              		.loc 1 56 0 discriminator 3
  41 0004 FF21     		movs	r1, #255
  42 0006 034A     		ldr	r2, .L4
  43 0008 D154     		strb	r1, [r2, r3]
  54:RPI_IF.c      ****     for(int i = 0; i < 255; i++)
  44              		.loc 1 54 0 discriminator 3
  45 000a 0133     		adds	r3, r3, #1
  46              	.LVL2:
  47              	.L2:
  54:RPI_IF.c      ****     for(int i = 0; i < 255; i++)
  48              		.loc 1 54 0 is_stmt 0 discriminator 1
  49 000c FE2B     		cmp	r3, #254
  50 000e F9DD     		ble	.L3
  51              	.LBE2:
  57:RPI_IF.c      ****     }
  58:RPI_IF.c      ****  
  59:RPI_IF.c      **** }
  52              		.loc 1 59 0 is_stmt 1
  53 0010 7047     		bx	lr
ARM GAS  C:\Users\marti\AppData\Local\Temp\cc2NXWCS.s 			page 3


  54              	.L5:
  55 0012 00BF     		.align	2
  56              	.L4:
  57 0014 00000000 		.word	readBuffer
  58              		.cfi_endproc
  59              	.LFE65:
  60              		.size	resetReadBuffer, .-resetReadBuffer
  61              		.section	.text.RPI_IF_init,"ax",%progbits
  62              		.align	2
  63              		.global	RPI_IF_init
  64              		.thumb
  65              		.thumb_func
  66              		.type	RPI_IF_init, %function
  67              	RPI_IF_init:
  68              	.LFB64:
  40:RPI_IF.c      ****     I2C_Start();
  69              		.loc 1 40 0
  70              		.cfi_startproc
  71              		@ args = 0, pretend = 0, frame = 0
  72              		@ frame_needed = 0, uses_anonymous_args = 0
  73 0000 08B5     		push	{r3, lr}
  74              		.cfi_def_cfa_offset 8
  75              		.cfi_offset 3, -8
  76              		.cfi_offset 14, -4
  41:RPI_IF.c      ****     I2C_EnableInt();
  77              		.loc 1 41 0
  78 0002 FFF7FEFF 		bl	I2C_Start
  79              	.LVL3:
  42:RPI_IF.c      ****     
  80              		.loc 1 42 0
  81 0006 0122     		movs	r2, #1
  82 0008 064B     		ldr	r3, .L8
  83 000a 1A60     		str	r2, [r3]
  45:RPI_IF.c      ****     I2C_SlaveInitWriteBuf((uint8_t*)writeBuffer,255);
  84              		.loc 1 45 0
  85 000c FF21     		movs	r1, #255
  86 000e 0648     		ldr	r0, .L8+4
  87 0010 FFF7FEFF 		bl	I2C_SlaveInitReadBuf
  88              	.LVL4:
  46:RPI_IF.c      ****     
  89              		.loc 1 46 0
  90 0014 FF21     		movs	r1, #255
  91 0016 0548     		ldr	r0, .L8+8
  92 0018 FFF7FEFF 		bl	I2C_SlaveInitWriteBuf
  93              	.LVL5:
  48:RPI_IF.c      **** 
  94              		.loc 1 48 0
  95 001c FFF7FEFF 		bl	resetReadBuffer
  96              	.LVL6:
  97 0020 08BD     		pop	{r3, pc}
  98              	.L9:
  99 0022 00BF     		.align	2
 100              	.L8:
 101 0024 00E100E0 		.word	-536813312
 102 0028 00000000 		.word	readBuffer
 103 002c 00000000 		.word	writeBuffer
 104              		.cfi_endproc
ARM GAS  C:\Users\marti\AppData\Local\Temp\cc2NXWCS.s 			page 4


 105              	.LFE64:
 106              		.size	RPI_IF_init, .-RPI_IF_init
 107              		.section	.text.sendCupStatus,"ax",%progbits
 108              		.align	2
 109              		.global	sendCupStatus
 110              		.thumb
 111              		.thumb_func
 112              		.type	sendCupStatus, %function
 113              	sendCupStatus:
 114              	.LFB66:
  60:RPI_IF.c      **** 
  61:RPI_IF.c      **** 
  62:RPI_IF.c      **** void sendCupStatus(uint8_t status)
  63:RPI_IF.c      **** {
 115              		.loc 1 63 0
 116              		.cfi_startproc
 117              		@ args = 0, pretend = 0, frame = 0
 118              		@ frame_needed = 0, uses_anonymous_args = 0
 119              	.LVL7:
 120 0000 10B5     		push	{r4, lr}
 121              		.cfi_def_cfa_offset 8
 122              		.cfi_offset 4, -8
 123              		.cfi_offset 14, -4
 124 0002 0446     		mov	r4, r0
  64:RPI_IF.c      ****     resetReadBuffer();
 125              		.loc 1 64 0
 126 0004 FFF7FEFF 		bl	resetReadBuffer
 127              	.LVL8:
  65:RPI_IF.c      ****     readBuffer[0] = status;
 128              		.loc 1 65 0
 129 0008 084B     		ldr	r3, .L12
 130 000a 1C70     		strb	r4, [r3]
  66:RPI_IF.c      ****     I2C_SlaveClearReadBuf();
 131              		.loc 1 66 0
 132 000c FFF7FEFF 		bl	I2C_SlaveClearReadBuf
 133              	.LVL9:
  67:RPI_IF.c      ****     CyDelay(100);
 134              		.loc 1 67 0
 135 0010 6420     		movs	r0, #100
 136 0012 FFF7FEFF 		bl	CyDelay
 137              	.LVL10:
  68:RPI_IF.c      ****     Interrupt_Write(0);
 138              		.loc 1 68 0
 139 0016 0020     		movs	r0, #0
 140 0018 FFF7FEFF 		bl	Interrupt_Write
 141              	.LVL11:
  69:RPI_IF.c      ****     CyDelay(1);
 142              		.loc 1 69 0
 143 001c 0120     		movs	r0, #1
 144 001e FFF7FEFF 		bl	CyDelay
 145              	.LVL12:
  70:RPI_IF.c      ****     Interrupt_Write(1);
 146              		.loc 1 70 0
 147 0022 0120     		movs	r0, #1
 148 0024 FFF7FEFF 		bl	Interrupt_Write
 149              	.LVL13:
 150 0028 10BD     		pop	{r4, pc}
ARM GAS  C:\Users\marti\AppData\Local\Temp\cc2NXWCS.s 			page 5


 151              	.L13:
 152 002a 00BF     		.align	2
 153              	.L12:
 154 002c 00000000 		.word	readBuffer
 155              		.cfi_endproc
 156              	.LFE66:
 157              		.size	sendCupStatus, .-sendCupStatus
 158              		.section	.text.RPi_IF_handleData,"ax",%progbits
 159              		.align	2
 160              		.global	RPi_IF_handleData
 161              		.thumb
 162              		.thumb_func
 163              		.type	RPi_IF_handleData, %function
 164              	RPi_IF_handleData:
 165              	.LFB67:
  71:RPI_IF.c      **** }
  72:RPI_IF.c      **** 
  73:RPI_IF.c      **** void RPi_IF_handleData()
  74:RPI_IF.c      **** {
 166              		.loc 1 74 0
 167              		.cfi_startproc
 168              		@ args = 0, pretend = 0, frame = 8
 169              		@ frame_needed = 0, uses_anonymous_args = 0
 170 0000 70B5     		push	{r4, r5, r6, lr}
 171              		.cfi_def_cfa_offset 16
 172              		.cfi_offset 4, -16
 173              		.cfi_offset 5, -12
 174              		.cfi_offset 6, -8
 175              		.cfi_offset 14, -4
 176 0002 84B0     		sub	sp, sp, #16
 177              		.cfi_def_cfa_offset 32
  75:RPI_IF.c      ****     if(I2C_SlaveClearWriteStatus() & I2C_SSTAT_WR_CMPLT)
 178              		.loc 1 75 0
 179 0004 FFF7FEFF 		bl	I2C_SlaveClearWriteStatus
 180              	.LVL14:
 181 0008 10F0100F 		tst	r0, #16
 182 000c 6FD0     		beq	.L14
 183              	.LBB3:
  76:RPI_IF.c      ****     {
  77:RPI_IF.c      ****         
  78:RPI_IF.c      ****         int writeSize = I2C_SlaveGetWriteBufSize();
 184              		.loc 1 78 0
 185 000e FFF7FEFF 		bl	I2C_SlaveGetWriteBufSize
 186              	.LVL15:
 187 0012 0546     		mov	r5, r0
 188              	.LVL16:
 189              	.LBB4:
  79:RPI_IF.c      ****         for(int i = 0; i < writeSize; i++)
 190              		.loc 1 79 0
 191 0014 0024     		movs	r4, #0
 192 0016 66E0     		b	.L16
 193              	.LVL17:
 194              	.L27:
  80:RPI_IF.c      ****         {
  81:RPI_IF.c      ****             switch (writeBuffer[i])
 195              		.loc 1 81 0
 196 0018 364B     		ldr	r3, .L29
ARM GAS  C:\Users\marti\AppData\Local\Temp\cc2NXWCS.s 			page 6


 197 001a 1B5D     		ldrb	r3, [r3, r4]	@ zero_extendqisi2
 198 001c 0A3B     		subs	r3, r3, #10
 199 001e 172B     		cmp	r3, #23
 200 0020 60D8     		bhi	.L17
 201 0022 DFE803F0 		tbb	[pc, r3]
 202              	.L19:
 203 0026 0C       		.byte	(.L18-.L19)/2
 204 0027 10       		.byte	(.L20-.L19)/2
 205 0028 14       		.byte	(.L21-.L19)/2
 206 0029 18       		.byte	(.L22-.L19)/2
 207 002a 1C       		.byte	(.L23-.L19)/2
 208 002b 5F       		.byte	(.L17-.L19)/2
 209 002c 5F       		.byte	(.L17-.L19)/2
 210 002d 5F       		.byte	(.L17-.L19)/2
 211 002e 5F       		.byte	(.L17-.L19)/2
 212 002f 5F       		.byte	(.L17-.L19)/2
 213 0030 5F       		.byte	(.L17-.L19)/2
 214 0031 5F       		.byte	(.L17-.L19)/2
 215 0032 5F       		.byte	(.L17-.L19)/2
 216 0033 5F       		.byte	(.L17-.L19)/2
 217 0034 5F       		.byte	(.L17-.L19)/2
 218 0035 5F       		.byte	(.L17-.L19)/2
 219 0036 5F       		.byte	(.L17-.L19)/2
 220 0037 5F       		.byte	(.L17-.L19)/2
 221 0038 5F       		.byte	(.L17-.L19)/2
 222 0039 5F       		.byte	(.L17-.L19)/2
 223 003a 5F       		.byte	(.L17-.L19)/2
 224 003b 5F       		.byte	(.L17-.L19)/2
 225 003c 5F       		.byte	(.L17-.L19)/2
 226 003d 20       		.byte	(.L24-.L19)/2
 227              		.p2align 1
 228              	.L18:
  82:RPI_IF.c      ****             {
  83:RPI_IF.c      ****                 case IDLE_DATA:{
  84:RPI_IF.c      ****                     setState(IDLE);
 229              		.loc 1 84 0
 230 003e 0020     		movs	r0, #0
 231 0040 FFF7FEFF 		bl	setState
 232              	.LVL18:
  85:RPI_IF.c      ****                     break;}
 233              		.loc 1 85 0
 234 0044 4EE0     		b	.L17
 235              	.L20:
  86:RPI_IF.c      ****                 case STARTING_DATA:{
  87:RPI_IF.c      ****                     setState(STARTING);
 236              		.loc 1 87 0
 237 0046 0120     		movs	r0, #1
 238 0048 FFF7FEFF 		bl	setState
 239              	.LVL19:
  88:RPI_IF.c      ****                     break;}
 240              		.loc 1 88 0
 241 004c 4AE0     		b	.L17
 242              	.L21:
  89:RPI_IF.c      ****                 case PLAYING_DATA:{
  90:RPI_IF.c      ****                     setState(PLAYING);
 243              		.loc 1 90 0
 244 004e 0220     		movs	r0, #2
ARM GAS  C:\Users\marti\AppData\Local\Temp\cc2NXWCS.s 			page 7


 245 0050 FFF7FEFF 		bl	setState
 246              	.LVL20:
  91:RPI_IF.c      ****                     break;} 
 247              		.loc 1 91 0
 248 0054 46E0     		b	.L17
 249              	.L22:
  92:RPI_IF.c      ****                 case LOST_DATA:{
  93:RPI_IF.c      ****                     setState(LOST);
 250              		.loc 1 93 0
 251 0056 0420     		movs	r0, #4
 252 0058 FFF7FEFF 		bl	setState
 253              	.LVL21:
  94:RPI_IF.c      ****                     break;} 
 254              		.loc 1 94 0
 255 005c 42E0     		b	.L17
 256              	.L23:
  95:RPI_IF.c      ****                 case WON_DATA:{
  96:RPI_IF.c      ****                     setState(WON);
 257              		.loc 1 96 0
 258 005e 0320     		movs	r0, #3
 259 0060 FFF7FEFF 		bl	setState
 260              	.LVL22:
  97:RPI_IF.c      ****                     break;}
 261              		.loc 1 97 0
 262 0064 3EE0     		b	.L17
 263              	.L24:
 264              	.LBB5:
  98:RPI_IF.c      ****                 case COLOR_MSG:
  99:RPI_IF.c      ****                 {
 100:RPI_IF.c      ****                     ++i;
 265              		.loc 1 100 0
 266 0066 661C     		adds	r6, r4, #1
 267              	.LVL23:
 101:RPI_IF.c      ****                     color_t color;
 102:RPI_IF.c      ****                     if(writeBuffer[i]==OWN_COLOR)
 268              		.loc 1 102 0
 269 0068 224B     		ldr	r3, .L29
 270 006a 9B5D     		ldrb	r3, [r3, r6]	@ zero_extendqisi2
 271 006c 012B     		cmp	r3, #1
 272 006e 1BD1     		bne	.L25
 103:RPI_IF.c      ****                     {
 104:RPI_IF.c      ****                         color.Red = writeBuffer[++i];
 273              		.loc 1 104 0
 274 0070 A31C     		adds	r3, r4, #2
 275              	.LVL24:
 276 0072 2049     		ldr	r1, .L29
 277 0074 CA5C     		ldrb	r2, [r1, r3]	@ zero_extendqisi2
 278 0076 8DF80C20 		strb	r2, [sp, #12]
 105:RPI_IF.c      ****                         color.Green = writeBuffer[++i];
 279              		.loc 1 105 0
 280 007a E31C     		adds	r3, r4, #3
 281              	.LVL25:
 282 007c CB5C     		ldrb	r3, [r1, r3]	@ zero_extendqisi2
 283              	.LVL26:
 284 007e 8DF80D30 		strb	r3, [sp, #13]
 106:RPI_IF.c      ****                         color.Blue = writeBuffer[++i];
 285              		.loc 1 106 0
ARM GAS  C:\Users\marti\AppData\Local\Temp\cc2NXWCS.s 			page 8


 286 0082 261D     		adds	r6, r4, #4
 287              	.LVL27:
 288 0084 895D     		ldrb	r1, [r1, r6]	@ zero_extendqisi2
 289 0086 8DF80E10 		strb	r1, [sp, #14]
 107:RPI_IF.c      ****                         n=sprintf(buf,"Egen farve: %d%d%d\n\r",
 290              		.loc 1 107 0
 291 008a 1B4C     		ldr	r4, .L29+4
 292 008c 0091     		str	r1, [sp]
 293 008e 1B49     		ldr	r1, .L29+8
 294 0090 2046     		mov	r0, r4
 295 0092 FFF7FEFF 		bl	sprintf
 296              	.LVL28:
 297 0096 1A4B     		ldr	r3, .L29+12
 298 0098 1860     		str	r0, [r3]
 108:RPI_IF.c      ****                         color.Red,color.Green,color.Blue);
 109:RPI_IF.c      ****                         setMyColor(color);
 299              		.loc 1 109 0
 300 009a 0398     		ldr	r0, [sp, #12]
 301 009c FFF7FEFF 		bl	setMyColor
 302              	.LVL29:
 110:RPI_IF.c      ****                         UART_PutString(buf);
 303              		.loc 1 110 0
 304 00a0 2046     		mov	r0, r4
 305 00a2 FFF7FEFF 		bl	UART_PutString
 306              	.LVL30:
 307 00a6 1CE0     		b	.L26
 308              	.L25:
 111:RPI_IF.c      ****                         
 112:RPI_IF.c      ****                     }
 113:RPI_IF.c      ****                     else if(writeBuffer[i]==OPPONENT_COLOR)
 309              		.loc 1 113 0
 310 00a8 022B     		cmp	r3, #2
 311 00aa 1AD1     		bne	.L26
 114:RPI_IF.c      ****                     {
 115:RPI_IF.c      ****                         color.Red = writeBuffer[++i];
 312              		.loc 1 115 0
 313 00ac A31C     		adds	r3, r4, #2
 314              	.LVL31:
 315 00ae 1149     		ldr	r1, .L29
 316 00b0 CA5C     		ldrb	r2, [r1, r3]	@ zero_extendqisi2
 317 00b2 8DF80C20 		strb	r2, [sp, #12]
 116:RPI_IF.c      ****                         color.Green = writeBuffer[++i];
 318              		.loc 1 116 0
 319 00b6 E31C     		adds	r3, r4, #3
 320              	.LVL32:
 321 00b8 CB5C     		ldrb	r3, [r1, r3]	@ zero_extendqisi2
 322              	.LVL33:
 323 00ba 8DF80D30 		strb	r3, [sp, #13]
 117:RPI_IF.c      ****                         color.Blue = writeBuffer[++i];
 324              		.loc 1 117 0
 325 00be 261D     		adds	r6, r4, #4
 326              	.LVL34:
 327 00c0 895D     		ldrb	r1, [r1, r6]	@ zero_extendqisi2
 328 00c2 8DF80E10 		strb	r1, [sp, #14]
 118:RPI_IF.c      ****                         n=sprintf(buf,"Modstanders farver: %d%d%d\n\r",
 329              		.loc 1 118 0
 330 00c6 0C4C     		ldr	r4, .L29+4
ARM GAS  C:\Users\marti\AppData\Local\Temp\cc2NXWCS.s 			page 9


 331 00c8 0091     		str	r1, [sp]
 332 00ca 0E49     		ldr	r1, .L29+16
 333 00cc 2046     		mov	r0, r4
 334 00ce FFF7FEFF 		bl	sprintf
 335              	.LVL35:
 336 00d2 0B4B     		ldr	r3, .L29+12
 337 00d4 1860     		str	r0, [r3]
 119:RPI_IF.c      ****                             color.Red,
 120:RPI_IF.c      ****                             color.Green,
 121:RPI_IF.c      ****                             color.Blue);
 122:RPI_IF.c      ****                         setOpponentColor(color);
 338              		.loc 1 122 0
 339 00d6 0398     		ldr	r0, [sp, #12]
 340 00d8 FFF7FEFF 		bl	setOpponentColor
 341              	.LVL36:
 123:RPI_IF.c      ****                         UART_PutString(buf);
 342              		.loc 1 123 0
 343 00dc 2046     		mov	r0, r4
 344 00de FFF7FEFF 		bl	UART_PutString
 345              	.LVL37:
 346              	.L26:
 347 00e2 3446     		mov	r4, r6
 348              	.LVL38:
 349              	.L17:
 350              	.LBE5:
  79:RPI_IF.c      ****         {
 351              		.loc 1 79 0 discriminator 2
 352 00e4 0134     		adds	r4, r4, #1
 353              	.LVL39:
 354              	.L16:
  79:RPI_IF.c      ****         {
 355              		.loc 1 79 0 is_stmt 0 discriminator 1
 356 00e6 AC42     		cmp	r4, r5
 357 00e8 96DB     		blt	.L27
 358              	.LBE4:
 124:RPI_IF.c      ****                     }
 125:RPI_IF.c      ****                     break;
 126:RPI_IF.c      ****                 }   
 127:RPI_IF.c      ****             }
 128:RPI_IF.c      ****         }
 129:RPI_IF.c      ****         I2C_SlaveClearWriteBuf();
 359              		.loc 1 129 0 is_stmt 1
 360 00ea FFF7FEFF 		bl	I2C_SlaveClearWriteBuf
 361              	.LVL40:
 362              	.L14:
 363              	.LBE3:
 130:RPI_IF.c      ****     }
 131:RPI_IF.c      **** }
 364              		.loc 1 131 0
 365 00ee 04B0     		add	sp, sp, #16
 366              		.cfi_def_cfa_offset 16
 367              		@ sp needed
 368 00f0 70BD     		pop	{r4, r5, r6, pc}
 369              	.L30:
 370 00f2 00BF     		.align	2
 371              	.L29:
 372 00f4 00000000 		.word	writeBuffer
ARM GAS  C:\Users\marti\AppData\Local\Temp\cc2NXWCS.s 			page 10


 373 00f8 00000000 		.word	.LANCHOR0
 374 00fc 00000000 		.word	.LC0
 375 0100 00000000 		.word	n
 376 0104 18000000 		.word	.LC1
 377              		.cfi_endproc
 378              	.LFE67:
 379              		.size	RPi_IF_handleData, .-RPi_IF_handleData
 380              		.comm	writeBuffer,256,4
 381              		.comm	readBuffer,256,4
 382              		.global	timer_run_out
 383              		.comm	n,4,4
 384              		.comm	currentState,1,1
 385              		.section	.rodata.str1.4,"aMS",%progbits,1
 386              		.align	2
 387              	.LC0:
 388 0000 4567656E 		.ascii	"Egen farve: %d%d%d\012\015\000"
 388      20666172 
 388      76653A20 
 388      25642564 
 388      25640A0D 
 389 0015 000000   		.space	3
 390              	.LC1:
 391 0018 4D6F6473 		.ascii	"Modstanders farver: %d%d%d\012\015\000"
 391      74616E64 
 391      65727320 
 391      66617276 
 391      65723A20 
 392              		.bss
 393              		.align	2
 394              		.set	.LANCHOR0,. + 0
 395              		.type	buf, %object
 396              		.size	buf, 50
 397              	buf:
 398 0000 00000000 		.space	50
 398      00000000 
 398      00000000 
 398      00000000 
 398      00000000 
 399 0032 0000     		.space	2
 400              		.type	timer_run_out, %object
 401              		.size	timer_run_out, 4
 402              	timer_run_out:
 403 0034 00000000 		.space	4
 404              		.text
 405              	.Letext0:
 406              		.file 2 "c:\\program files (x86)\\cypress\\psoc creator\\4.2\\psoc creator\\import\\gnu\\arm\\5.4.
 407              		.file 3 "c:\\program files (x86)\\cypress\\psoc creator\\4.2\\psoc creator\\import\\gnu\\arm\\5.4.
 408              		.file 4 "Generated_Source\\PSoC5/cytypes.h"
 409              		.file 5 "GameController.h"
 410              		.file 6 "Generated_Source\\PSoC5/core_cm3.h"
 411              		.file 7 "Generated_Source\\PSoC5/I2C.h"
 412              		.file 8 "Generated_Source\\PSoC5/CyLib.h"
 413              		.file 9 "Generated_Source\\PSoC5/Interrupt.h"
 414              		.file 10 "c:\\program files (x86)\\cypress\\psoc creator\\4.2\\psoc creator\\import\\gnu\\arm\\5.4
 415              		.file 11 "Generated_Source\\PSoC5/UART.h"