ARM GAS  C:\Users\marti\AppData\Local\Temp\ccm0JS1r.s 			page 1


   1              		.syntax unified
   2              		.cpu cortex-m3
   3              		.fpu softvfp
   4              		.eabi_attribute 20, 1
   5              		.eabi_attribute 21, 1
   6              		.eabi_attribute 23, 3
   7              		.eabi_attribute 24, 1
   8              		.eabi_attribute 25, 1
   9              		.eabi_attribute 26, 1
  10              		.eabi_attribute 30, 1
  11              		.eabi_attribute 34, 1
  12              		.eabi_attribute 18, 4
  13              		.thumb
  14              		.syntax unified
  15              		.file	"GameController.c"
  16              		.text
  17              	.Ltext0:
  18              		.cfi_sections	.debug_frame
  19              		.section	.text.setState,"ax",%progbits
  20              		.align	2
  21              		.global	setState
  22              		.thumb
  23              		.thumb_func
  24              		.type	setState, %function
  25              	setState:
  26              	.LFB63:
  27              		.file 1 "GameController.c"
   1:GameController.c **** /* ========================================
   2:GameController.c ****  *
   3:GameController.c ****  * Copyright YOUR COMPANY, THE YEAR
   4:GameController.c ****  * All Rights Reserved
   5:GameController.c ****  * UNPUBLISHED, LICENSED SOFTWARE.
   6:GameController.c ****  *
   7:GameController.c ****  * CONFIDENTIAL AND PROPRIETARY INFORMATION
   8:GameController.c ****  * WHICH IS THE PROPERTY OF your company.
   9:GameController.c ****  *
  10:GameController.c ****  * ========================================
  11:GameController.c **** */
  12:GameController.c **** 
  13:GameController.c **** #include "GameController.h"
  14:GameController.c **** #include <stdint.h>
  15:GameController.c **** 
  16:GameController.c **** /*typedef struct color
  17:GameController.c **** {
  18:GameController.c ****     uint8_t Red;
  19:GameController.c ****     uint8_t Green;
  20:GameController.c ****     uint8_t Blue;
  21:GameController.c **** }color_t;*/
  22:GameController.c **** 
  23:GameController.c **** enum GameState{IDLE,STARTING,PLAYING,WON,LOST}currentState;
  24:GameController.c **** static color_t turnedOffColor;
  25:GameController.c **** static color_t missingCupColor;
  26:GameController.c **** static color_t placedCupColor;
  27:GameController.c **** static color_t myColor;
  28:GameController.c **** static color_t opponentColor;
  29:GameController.c **** static uint8_t CupStatus;
  30:GameController.c **** static uint8_t hitStatus;
ARM GAS  C:\Users\marti\AppData\Local\Temp\ccm0JS1r.s 			page 2


  31:GameController.c **** 
  32:GameController.c ****  void setState(enum GameState state)
  33:GameController.c **** {
  28              		.loc 1 33 0
  29              		.cfi_startproc
  30              		@ args = 0, pretend = 0, frame = 0
  31              		@ frame_needed = 0, uses_anonymous_args = 0
  32              		@ link register save eliminated.
  33              	.LVL0:
  34:GameController.c ****    currentState=state;
  34              		.loc 1 34 0
  35 0000 014B     		ldr	r3, .L2
  36 0002 1870     		strb	r0, [r3]
  37 0004 7047     		bx	lr
  38              	.L3:
  39 0006 00BF     		.align	2
  40              	.L2:
  41 0008 00000000 		.word	currentState
  42              		.cfi_endproc
  43              	.LFE63:
  44              		.size	setState, .-setState
  45              		.section	.text.setMyColor,"ax",%progbits
  46              		.align	2
  47              		.global	setMyColor
  48              		.thumb
  49              		.thumb_func
  50              		.type	setMyColor, %function
  51              	setMyColor:
  52              	.LFB64:
  35:GameController.c **** }
  36:GameController.c ****  void setMyColor(color_t c)
  37:GameController.c **** {
  53              		.loc 1 37 0
  54              		.cfi_startproc
  55              		@ args = 0, pretend = 0, frame = 8
  56              		@ frame_needed = 0, uses_anonymous_args = 0
  57              		@ link register save eliminated.
  58 0000 82B0     		sub	sp, sp, #8
  59              		.cfi_def_cfa_offset 8
  38:GameController.c ****     myColor=c;
  39:GameController.c **** }
  60              		.loc 1 39 0
  61 0002 02B0     		add	sp, sp, #8
  62              		.cfi_def_cfa_offset 0
  63              		@ sp needed
  64 0004 7047     		bx	lr
  65              		.cfi_endproc
  66              	.LFE64:
  67              		.size	setMyColor, .-setMyColor
  68 0006 00BF     		.section	.text.setOpponentClor,"ax",%progbits
  69              		.align	2
  70              		.global	setOpponentClor
  71              		.thumb
  72              		.thumb_func
  73              		.type	setOpponentClor, %function
  74              	setOpponentClor:
  75              	.LFB65:
ARM GAS  C:\Users\marti\AppData\Local\Temp\ccm0JS1r.s 			page 3


  40:GameController.c ****  void setOpponentClor(color_t c)
  41:GameController.c **** {
  76              		.loc 1 41 0
  77              		.cfi_startproc
  78              		@ args = 0, pretend = 0, frame = 8
  79              		@ frame_needed = 0, uses_anonymous_args = 0
  80              		@ link register save eliminated.
  81 0000 82B0     		sub	sp, sp, #8
  82              		.cfi_def_cfa_offset 8
  42:GameController.c ****     opponentColor=c;
  43:GameController.c **** }
  83              		.loc 1 43 0
  84 0002 02B0     		add	sp, sp, #8
  85              		.cfi_def_cfa_offset 0
  86              		@ sp needed
  87 0004 7047     		bx	lr
  88              		.cfi_endproc
  89              	.LFE65:
  90              		.size	setOpponentClor, .-setOpponentClor
  91 0006 00BF     		.section	.text.updateCupStatus,"ax",%progbits
  92              		.align	2
  93              		.global	updateCupStatus
  94              		.thumb
  95              		.thumb_func
  96              		.type	updateCupStatus, %function
  97              	updateCupStatus:
  98              	.LFB66:
  44:GameController.c ****  void updateCupStatus(uint8_t status)
  45:GameController.c **** {
  99              		.loc 1 45 0
 100              		.cfi_startproc
 101              		@ args = 0, pretend = 0, frame = 0
 102              		@ frame_needed = 0, uses_anonymous_args = 0
 103              		@ link register save eliminated.
 104              	.LVL1:
 105 0000 7047     		bx	lr
 106              		.cfi_endproc
 107              	.LFE66:
 108              		.size	updateCupStatus, .-updateCupStatus
 109              		.comm	currentState,1,1
 110 0002 00BF     		.text
 111              	.Letext0:
 112              		.file 2 "c:\\program files (x86)\\cypress\\psoc creator\\4.2\\psoc creator\\import\\gnu\\arm\\5.4.
 113              		.file 3 "c:\\program files (x86)\\cypress\\psoc creator\\4.2\\psoc creator\\import\\gnu\\arm\\5.4.
 114              		.file 4 "..\\..\\rpi_Boundary\\PlayerSide_slave\\Design01.cydsn/color.h"
 115              		.file 5 "Generated_Source\\PSoC5/core_cm3.h"