ARM GAS  C:\Users\nikol\AppData\Local\Temp\ccNH4kRy.s 			page 1


   1              		.syntax unified
   2              		.cpu cortex-m3
   3              		.fpu softvfp
   4              		.eabi_attribute 20, 1
   5              		.eabi_attribute 21, 1
   6              		.eabi_attribute 23, 3
   7              		.eabi_attribute 24, 1
   8              		.eabi_attribute 25, 1
   9              		.eabi_attribute 26, 1
  10              		.eabi_attribute 30, 6
  11              		.eabi_attribute 34, 1
  12              		.eabi_attribute 18, 4
  13              		.thumb
  14              		.syntax unified
  15              		.file	"CapSense_CSD_MBX.c"
  16              		.text
  17              	.Ltext0:
  18              		.cfi_sections	.debug_frame
  19              		.section	.text.CapSense_CSD_InitParams,"ax",%progbits
  20              		.align	2
  21              		.thumb
  22              		.thumb_func
  23              		.type	CapSense_CSD_InitParams, %function
  24              	CapSense_CSD_InitParams:
  25              	.LFB0:
  26              		.file 1 "Generated_Source\\PSoC5\\CapSense_CSD_MBX.c"
   1:Generated_Source\PSoC5/CapSense_CSD_MBX.c **** /*******************************************************************************
   2:Generated_Source\PSoC5/CapSense_CSD_MBX.c **** * File Name: CapSense_CSD_MBX.c
   3:Generated_Source\PSoC5/CapSense_CSD_MBX.c **** * Version 3.50
   4:Generated_Source\PSoC5/CapSense_CSD_MBX.c **** *
   5:Generated_Source\PSoC5/CapSense_CSD_MBX.c **** * Description:
   6:Generated_Source\PSoC5/CapSense_CSD_MBX.c **** *  This file provides the source code of Tuner communication APIs for the 
   7:Generated_Source\PSoC5/CapSense_CSD_MBX.c **** *  CapSense CSD component.
   8:Generated_Source\PSoC5/CapSense_CSD_MBX.c **** *
   9:Generated_Source\PSoC5/CapSense_CSD_MBX.c **** * Note:
  10:Generated_Source\PSoC5/CapSense_CSD_MBX.c **** *
  11:Generated_Source\PSoC5/CapSense_CSD_MBX.c **** ********************************************************************************
  12:Generated_Source\PSoC5/CapSense_CSD_MBX.c **** * Copyright 2008-2013, Cypress Semiconductor Corporation.  All rights reserved.
  13:Generated_Source\PSoC5/CapSense_CSD_MBX.c **** * You may use this file only in accordance with the license, terms, conditions,
  14:Generated_Source\PSoC5/CapSense_CSD_MBX.c **** * disclaimers, and limitations in the end user license agreement accompanying
  15:Generated_Source\PSoC5/CapSense_CSD_MBX.c **** * the software package with which this file was provided.
  16:Generated_Source\PSoC5/CapSense_CSD_MBX.c **** *******************************************************************************/
  17:Generated_Source\PSoC5/CapSense_CSD_MBX.c **** 
  18:Generated_Source\PSoC5/CapSense_CSD_MBX.c **** #include "CapSense_CSD_MBX.h"
  19:Generated_Source\PSoC5/CapSense_CSD_MBX.c **** 
  20:Generated_Source\PSoC5/CapSense_CSD_MBX.c **** #if (CapSense_CSD_TUNING_METHOD == CapSense_CSD_MANUAL_TUNING)
  21:Generated_Source\PSoC5/CapSense_CSD_MBX.c ****     
  22:Generated_Source\PSoC5/CapSense_CSD_MBX.c **** CapSense_CSD_NO_STRICT_VOLATILE static void CapSense_CSD_InitParams(volatile const CapSense_CSD_INB
  23:Generated_Source\PSoC5/CapSense_CSD_MBX.c ****                                         ;
  24:Generated_Source\PSoC5/CapSense_CSD_MBX.c ****     
  25:Generated_Source\PSoC5/CapSense_CSD_MBX.c ****                                         
  26:Generated_Source\PSoC5/CapSense_CSD_MBX.c ****     /*******************************************************************************
  27:Generated_Source\PSoC5/CapSense_CSD_MBX.c ****     * Function Name: CapSense_CSD_InitParams
  28:Generated_Source\PSoC5/CapSense_CSD_MBX.c ****     ********************************************************************************
  29:Generated_Source\PSoC5/CapSense_CSD_MBX.c ****     *
  30:Generated_Source\PSoC5/CapSense_CSD_MBX.c ****     * Summary:
  31:Generated_Source\PSoC5/CapSense_CSD_MBX.c ****     *  Configures component parameters to match the parameters in the inbox.
ARM GAS  C:\Users\nikol\AppData\Local\Temp\ccNH4kRy.s 			page 2


  32:Generated_Source\PSoC5/CapSense_CSD_MBX.c ****     *  Used only in manual tuning mode to apply new scanning parameters from Tuner 
  33:Generated_Source\PSoC5/CapSense_CSD_MBX.c ****     *  GUI.
  34:Generated_Source\PSoC5/CapSense_CSD_MBX.c ****     *
  35:Generated_Source\PSoC5/CapSense_CSD_MBX.c ****     * Parameters:
  36:Generated_Source\PSoC5/CapSense_CSD_MBX.c ****     *  inbox:  Pointer to Inbox structure in RAM.
  37:Generated_Source\PSoC5/CapSense_CSD_MBX.c ****     *
  38:Generated_Source\PSoC5/CapSense_CSD_MBX.c ****     * Return:
  39:Generated_Source\PSoC5/CapSense_CSD_MBX.c ****     *  None. Contents of the structure are not modified.
  40:Generated_Source\PSoC5/CapSense_CSD_MBX.c ****     * 
  41:Generated_Source\PSoC5/CapSense_CSD_MBX.c ****     * Side Effects: 
  42:Generated_Source\PSoC5/CapSense_CSD_MBX.c ****     *  Resets baseline values.
  43:Generated_Source\PSoC5/CapSense_CSD_MBX.c ****     *
  44:Generated_Source\PSoC5/CapSense_CSD_MBX.c ****     * Global Variables:
  45:Generated_Source\PSoC5/CapSense_CSD_MBX.c ****     *  CapSense_CSD_idacSettings[] - used to store idac value for all sensors.
  46:Generated_Source\PSoC5/CapSense_CSD_MBX.c ****     *  CapSense_CSD_fingerThreshold[] - used to store finger threshold for all 
  47:Generated_Source\PSoC5/CapSense_CSD_MBX.c ****     *  widgets.
  48:Generated_Source\PSoC5/CapSense_CSD_MBX.c ****     *  CapSense_CSD_noiseThreshold[] - used to sotre noise threshold for all 
  49:Generated_Source\PSoC5/CapSense_CSD_MBX.c ****     *  widgets.
  50:Generated_Source\PSoC5/CapSense_CSD_MBX.c ****     *  CapSense_CSD_hysteresis[] - used to store finger threshold for all 
  51:Generated_Source\PSoC5/CapSense_CSD_MBX.c ****     *  widgets.
  52:Generated_Source\PSoC5/CapSense_CSD_MBX.c ****     *  CapSense_CSD_debounce[] - used to store finger threshold for all 
  53:Generated_Source\PSoC5/CapSense_CSD_MBX.c ****     *  widgets.
  54:Generated_Source\PSoC5/CapSense_CSD_MBX.c ****     *  CapSense_CSD_INBOX inbox - structure which is used as input buffer
  55:Generated_Source\PSoC5/CapSense_CSD_MBX.c ****     *  for parameters from Tuner GUI. Only used in manual tuning mode.
  56:Generated_Source\PSoC5/CapSense_CSD_MBX.c ****     *
  57:Generated_Source\PSoC5/CapSense_CSD_MBX.c ****     * Reentrant:
  58:Generated_Source\PSoC5/CapSense_CSD_MBX.c ****     *  No
  59:Generated_Source\PSoC5/CapSense_CSD_MBX.c ****     *
  60:Generated_Source\PSoC5/CapSense_CSD_MBX.c ****     *******************************************************************************/
  61:Generated_Source\PSoC5/CapSense_CSD_MBX.c ****     static void CapSense_CSD_InitParams(volatile const CapSense_CSD_INBOX *inbox)
  62:Generated_Source\PSoC5/CapSense_CSD_MBX.c **** 	                                        
  63:Generated_Source\PSoC5/CapSense_CSD_MBX.c ****     {
  27              		.loc 1 63 0
  28              		.cfi_startproc
  29              		@ args = 0, pretend = 0, frame = 16
  30              		@ frame_needed = 1, uses_anonymous_args = 0
  31 0000 80B5     		push	{r7, lr}
  32              		.cfi_def_cfa_offset 8
  33              		.cfi_offset 7, -8
  34              		.cfi_offset 14, -4
  35 0002 84B0     		sub	sp, sp, #16
  36              		.cfi_def_cfa_offset 24
  37 0004 00AF     		add	r7, sp, #0
  38              		.cfi_def_cfa_register 7
  39 0006 7860     		str	r0, [r7, #4]
  64:Generated_Source\PSoC5/CapSense_CSD_MBX.c ****         /* Define widget sensor belongs to */
  65:Generated_Source\PSoC5/CapSense_CSD_MBX.c ****         uint8 sensor = inbox->sensorIndex;
  40              		.loc 1 65 0
  41 0008 7B68     		ldr	r3, [r7, #4]
  42 000a 1B78     		ldrb	r3, [r3]
  43 000c FB73     		strb	r3, [r7, #15]
  66:Generated_Source\PSoC5/CapSense_CSD_MBX.c ****         uint8 widget = CapSense_CSD_widgetNumber[sensor];
  44              		.loc 1 66 0
  45 000e FB7B     		ldrb	r3, [r7, #15]	@ zero_extendqisi2
  46 0010 264A     		ldr	r2, .L2
  47 0012 D35C     		ldrb	r3, [r2, r3]
  48 0014 BB73     		strb	r3, [r7, #14]
ARM GAS  C:\Users\nikol\AppData\Local\Temp\ccNH4kRy.s 			page 3


  67:Generated_Source\PSoC5/CapSense_CSD_MBX.c ****         uint8 tmpValue;
  68:Generated_Source\PSoC5/CapSense_CSD_MBX.c ****         
  69:Generated_Source\PSoC5/CapSense_CSD_MBX.c ****         /* Scanning parameters */
  70:Generated_Source\PSoC5/CapSense_CSD_MBX.c ****         #if (CapSense_CSD_CURRENT_SOURCE)
  71:Generated_Source\PSoC5/CapSense_CSD_MBX.c ****             CapSense_CSD_idacSettings[sensor] = inbox->idacSettings;
  49              		.loc 1 71 0
  50 0016 FB7B     		ldrb	r3, [r7, #15]	@ zero_extendqisi2
  51 0018 7A68     		ldr	r2, [r7, #4]
  52 001a 5278     		ldrb	r2, [r2, #1]
  53 001c D1B2     		uxtb	r1, r2
  54 001e 244A     		ldr	r2, .L2+4
  55 0020 D154     		strb	r1, [r2, r3]
  72:Generated_Source\PSoC5/CapSense_CSD_MBX.c ****         #endif /* CapSense_CSD_CURRENT_SOURCE */   
  73:Generated_Source\PSoC5/CapSense_CSD_MBX.c ****         CapSense_CSD_widgetResolution[widget] = inbox->resolution;
  56              		.loc 1 73 0
  57 0022 BB7B     		ldrb	r3, [r7, #14]	@ zero_extendqisi2
  58 0024 7A68     		ldr	r2, [r7, #4]
  59 0026 9278     		ldrb	r2, [r2, #2]
  60 0028 D1B2     		uxtb	r1, r2
  61 002a 224A     		ldr	r2, .L2+8
  62 002c D154     		strb	r1, [r2, r3]
  74:Generated_Source\PSoC5/CapSense_CSD_MBX.c ****     
  75:Generated_Source\PSoC5/CapSense_CSD_MBX.c ****         #if (CapSense_CSD_TOTAL_GENERICS_COUNT)
  76:Generated_Source\PSoC5/CapSense_CSD_MBX.c ****             /* Exclude generic wiget */
  77:Generated_Source\PSoC5/CapSense_CSD_MBX.c ****             if(widget < CapSense_CSD_END_OF_WIDGETS_INDEX)
  78:Generated_Source\PSoC5/CapSense_CSD_MBX.c ****             {
  79:Generated_Source\PSoC5/CapSense_CSD_MBX.c ****         #endif  /* CapSense_CSD_TOTAL_GENERICS_COUNT */
  80:Generated_Source\PSoC5/CapSense_CSD_MBX.c ****         
  81:Generated_Source\PSoC5/CapSense_CSD_MBX.c ****             /* High level parameters */
  82:Generated_Source\PSoC5/CapSense_CSD_MBX.c ****             tmpValue = inbox->fingerThreshold;
  63              		.loc 1 82 0
  64 002e 7B68     		ldr	r3, [r7, #4]
  65 0030 DB78     		ldrb	r3, [r3, #3]
  66 0032 7B73     		strb	r3, [r7, #13]
  83:Generated_Source\PSoC5/CapSense_CSD_MBX.c ****             CapSense_CSD_fingerThreshold[widget] = CapSense_CSD_SWAP_ENDIAN16(tmpValue);
  67              		.loc 1 83 0
  68 0034 BB7B     		ldrb	r3, [r7, #14]	@ zero_extendqisi2
  69 0036 7A7B     		ldrb	r2, [r7, #13]	@ zero_extendqisi2
  70 0038 1202     		lsls	r2, r2, #8
  71 003a 51B2     		sxtb	r1, r2
  72 003c 7A7B     		ldrb	r2, [r7, #13]	@ zero_extendqisi2
  73 003e 1212     		asrs	r2, r2, #8
  74 0040 52B2     		sxtb	r2, r2
  75 0042 0A43     		orrs	r2, r2, r1
  76 0044 52B2     		sxtb	r2, r2
  77 0046 D1B2     		uxtb	r1, r2
  78 0048 1B4A     		ldr	r2, .L2+12
  79 004a D154     		strb	r1, [r2, r3]
  84:Generated_Source\PSoC5/CapSense_CSD_MBX.c ****             tmpValue = inbox->noiseThreshold;
  80              		.loc 1 84 0
  81 004c 7B68     		ldr	r3, [r7, #4]
  82 004e 1B79     		ldrb	r3, [r3, #4]
  83 0050 7B73     		strb	r3, [r7, #13]
  85:Generated_Source\PSoC5/CapSense_CSD_MBX.c ****             CapSense_CSD_noiseThreshold[widget]  = CapSense_CSD_SWAP_ENDIAN16(tmpValue);
  84              		.loc 1 85 0
  85 0052 BB7B     		ldrb	r3, [r7, #14]	@ zero_extendqisi2
  86 0054 7A7B     		ldrb	r2, [r7, #13]	@ zero_extendqisi2
ARM GAS  C:\Users\nikol\AppData\Local\Temp\ccNH4kRy.s 			page 4


  87 0056 1202     		lsls	r2, r2, #8
  88 0058 51B2     		sxtb	r1, r2
  89 005a 7A7B     		ldrb	r2, [r7, #13]	@ zero_extendqisi2
  90 005c 1212     		asrs	r2, r2, #8
  91 005e 52B2     		sxtb	r2, r2
  92 0060 0A43     		orrs	r2, r2, r1
  93 0062 52B2     		sxtb	r2, r2
  94 0064 D1B2     		uxtb	r1, r2
  95 0066 154A     		ldr	r2, .L2+16
  96 0068 D154     		strb	r1, [r2, r3]
  86:Generated_Source\PSoC5/CapSense_CSD_MBX.c ****             
  87:Generated_Source\PSoC5/CapSense_CSD_MBX.c ****             tmpValue = inbox->hysteresis;
  97              		.loc 1 87 0
  98 006a 7B68     		ldr	r3, [r7, #4]
  99 006c 5B79     		ldrb	r3, [r3, #5]
 100 006e 7B73     		strb	r3, [r7, #13]
  88:Generated_Source\PSoC5/CapSense_CSD_MBX.c ****             CapSense_CSD_hysteresis[widget] = CapSense_CSD_SWAP_ENDIAN16(tmpValue);
 101              		.loc 1 88 0
 102 0070 BB7B     		ldrb	r3, [r7, #14]	@ zero_extendqisi2
 103 0072 7A7B     		ldrb	r2, [r7, #13]	@ zero_extendqisi2
 104 0074 1202     		lsls	r2, r2, #8
 105 0076 51B2     		sxtb	r1, r2
 106 0078 7A7B     		ldrb	r2, [r7, #13]	@ zero_extendqisi2
 107 007a 1212     		asrs	r2, r2, #8
 108 007c 52B2     		sxtb	r2, r2
 109 007e 0A43     		orrs	r2, r2, r1
 110 0080 52B2     		sxtb	r2, r2
 111 0082 D1B2     		uxtb	r1, r2
 112 0084 0E4A     		ldr	r2, .L2+20
 113 0086 D154     		strb	r1, [r2, r3]
  89:Generated_Source\PSoC5/CapSense_CSD_MBX.c ****             CapSense_CSD_debounce[widget]   = inbox->debounce;
 114              		.loc 1 89 0
 115 0088 BB7B     		ldrb	r3, [r7, #14]	@ zero_extendqisi2
 116 008a 7A68     		ldr	r2, [r7, #4]
 117 008c 9279     		ldrb	r2, [r2, #6]
 118 008e D1B2     		uxtb	r1, r2
 119 0090 0C4A     		ldr	r2, .L2+24
 120 0092 D154     		strb	r1, [r2, r3]
  90:Generated_Source\PSoC5/CapSense_CSD_MBX.c ****         
  91:Generated_Source\PSoC5/CapSense_CSD_MBX.c ****         #if (CapSense_CSD_TOTAL_GENERICS_COUNT)
  92:Generated_Source\PSoC5/CapSense_CSD_MBX.c ****             /* Exclude generic wiget */
  93:Generated_Source\PSoC5/CapSense_CSD_MBX.c ****             }
  94:Generated_Source\PSoC5/CapSense_CSD_MBX.c ****         #endif  /* CapSense_CSD_TOTAL_GENERICS_COUNT */
  95:Generated_Source\PSoC5/CapSense_CSD_MBX.c **** 
  96:Generated_Source\PSoC5/CapSense_CSD_MBX.c ****         #if ( CapSense_CSD_MULTIPLE_PRESCALER_ENABLED )
  97:Generated_Source\PSoC5/CapSense_CSD_MBX.c ****             #if (CapSense_CSD_DESIGN_TYPE == CapSense_CSD_TWO_CHANNELS_DESIGN)
  98:Generated_Source\PSoC5/CapSense_CSD_MBX.c ****                 if( sensor > CapSense_CSD_TOTAL_SENSOR_COUNT__CH0 && \
  99:Generated_Source\PSoC5/CapSense_CSD_MBX.c ****                     sensor < CapSense_CSD_TOTAL_SENSOR_COUNT__CH1 )
 100:Generated_Source\PSoC5/CapSense_CSD_MBX.c ****                 {
 101:Generated_Source\PSoC5/CapSense_CSD_MBX.c ****                     sensor = sensor - CapSense_CSD_TOTAL_SENSOR_COUNT__CH0;
 102:Generated_Source\PSoC5/CapSense_CSD_MBX.c ****                 }
 103:Generated_Source\PSoC5/CapSense_CSD_MBX.c ****             #endif /* (CapSense_CSD_DESIGN_TYPE == CapSense_CSD_TWO_CHANNELS_DESIGN) */
 104:Generated_Source\PSoC5/CapSense_CSD_MBX.c ****             CapSense_CSD_analogSwitchDivider[sensor] = inbox->analogSwitchDivider;
 121              		.loc 1 104 0
 122 0094 FB7B     		ldrb	r3, [r7, #15]	@ zero_extendqisi2
 123 0096 7A68     		ldr	r2, [r7, #4]
 124 0098 D279     		ldrb	r2, [r2, #7]
ARM GAS  C:\Users\nikol\AppData\Local\Temp\ccNH4kRy.s 			page 5


 125 009a D1B2     		uxtb	r1, r2
 126 009c 0A4A     		ldr	r2, .L2+28
 127 009e D154     		strb	r1, [r2, r3]
 105:Generated_Source\PSoC5/CapSense_CSD_MBX.c ****         #else
 106:Generated_Source\PSoC5/CapSense_CSD_MBX.c ****             CapSense_CSD_analogSwitchDivider = inbox->analogSwitchDivider;
 107:Generated_Source\PSoC5/CapSense_CSD_MBX.c ****         #endif /* ( CapSense_CSD_MULTIPLE_PRESCALER_ENABLED ) */
 108:Generated_Source\PSoC5/CapSense_CSD_MBX.c **** 
 109:Generated_Source\PSoC5/CapSense_CSD_MBX.c ****         /* Re-Init baselines */
 110:Generated_Source\PSoC5/CapSense_CSD_MBX.c ****         CapSense_CSD_InitializeAllBaselines();
 128              		.loc 1 110 0
 129 00a0 FFF7FEFF 		bl	CapSense_CSD_InitializeAllBaselines
 111:Generated_Source\PSoC5/CapSense_CSD_MBX.c ****     }
 130              		.loc 1 111 0
 131 00a4 00BF     		nop
 132 00a6 1037     		adds	r7, r7, #16
 133              		.cfi_def_cfa_offset 8
 134 00a8 BD46     		mov	sp, r7
 135              		.cfi_def_cfa_register 13
 136              		@ sp needed
 137 00aa 80BD     		pop	{r7, pc}
 138              	.L3:
 139              		.align	2
 140              	.L2:
 141 00ac 00000000 		.word	CapSense_CSD_widgetNumber
 142 00b0 00000000 		.word	CapSense_CSD_idacSettings
 143 00b4 00000000 		.word	CapSense_CSD_widgetResolution
 144 00b8 00000000 		.word	CapSense_CSD_fingerThreshold
 145 00bc 00000000 		.word	CapSense_CSD_noiseThreshold
 146 00c0 00000000 		.word	CapSense_CSD_hysteresis
 147 00c4 00000000 		.word	CapSense_CSD_debounce
 148 00c8 00000000 		.word	CapSense_CSD_analogSwitchDivider
 149              		.cfi_endproc
 150              	.LFE0:
 151              		.size	CapSense_CSD_InitParams, .-CapSense_CSD_InitParams
 152              		.section	.text.CapSense_CSD_InitMailbox,"ax",%progbits
 153              		.align	2
 154              		.global	CapSense_CSD_InitMailbox
 155              		.thumb
 156              		.thumb_func
 157              		.type	CapSense_CSD_InitMailbox, %function
 158              	CapSense_CSD_InitMailbox:
 159              	.LFB1:
 112:Generated_Source\PSoC5/CapSense_CSD_MBX.c **** #endif  /* (CapSense_CSD_TUNING_METHOD == CapSense_CSD_MANUAL_TUNING) */
 113:Generated_Source\PSoC5/CapSense_CSD_MBX.c **** 
 114:Generated_Source\PSoC5/CapSense_CSD_MBX.c **** 
 115:Generated_Source\PSoC5/CapSense_CSD_MBX.c **** /*******************************************************************************
 116:Generated_Source\PSoC5/CapSense_CSD_MBX.c **** * Function Name: CapSense_CSD_InitMailbox
 117:Generated_Source\PSoC5/CapSense_CSD_MBX.c **** ********************************************************************************
 118:Generated_Source\PSoC5/CapSense_CSD_MBX.c **** *
 119:Generated_Source\PSoC5/CapSense_CSD_MBX.c **** * Summary:
 120:Generated_Source\PSoC5/CapSense_CSD_MBX.c **** *  Initialize parameters  of mailbox structure.
 121:Generated_Source\PSoC5/CapSense_CSD_MBX.c **** *  Sets type and size of mailbox structure. 
 122:Generated_Source\PSoC5/CapSense_CSD_MBX.c **** *  Sets check sum to check by Tuner GUI and noReadMsg flag to indicate that this 
 123:Generated_Source\PSoC5/CapSense_CSD_MBX.c **** *  is the first communication packet.
 124:Generated_Source\PSoC5/CapSense_CSD_MBX.c **** *
 125:Generated_Source\PSoC5/CapSense_CSD_MBX.c **** * Parameters:
 126:Generated_Source\PSoC5/CapSense_CSD_MBX.c **** *  mbx:  Pointer to Mailbox structure in RAM.
ARM GAS  C:\Users\nikol\AppData\Local\Temp\ccNH4kRy.s 			page 6


 127:Generated_Source\PSoC5/CapSense_CSD_MBX.c **** *
 128:Generated_Source\PSoC5/CapSense_CSD_MBX.c **** * Return:
 129:Generated_Source\PSoC5/CapSense_CSD_MBX.c **** *  None. Modifies the contents of mbx and mbx->outbox.
 130:Generated_Source\PSoC5/CapSense_CSD_MBX.c **** *
 131:Generated_Source\PSoC5/CapSense_CSD_MBX.c **** * Global Variables:
 132:Generated_Source\PSoC5/CapSense_CSD_MBX.c **** *  CapSense_CSD_MAILBOXES - structure which incorporates two fields: 
 133:Generated_Source\PSoC5/CapSense_CSD_MBX.c **** *    - numMailBoxes (number of mailboxes);
 134:Generated_Source\PSoC5/CapSense_CSD_MBX.c **** *    - CapSense_CSD_MAILBOX csdMailbox;
 135:Generated_Source\PSoC5/CapSense_CSD_MBX.c **** *  CapSense_CSD_MAILBOX - structure which incorporates status output and
 136:Generated_Source\PSoC5/CapSense_CSD_MBX.c **** *  input buffer fields and CapSense_CSD_OUTBOX and CapSense_CSD_INBOX.
 137:Generated_Source\PSoC5/CapSense_CSD_MBX.c **** *    - type (used as outbox read status of Tuner GUI);
 138:Generated_Source\PSoC5/CapSense_CSD_MBX.c **** *    - size (used as inbox apply status of component);
 139:Generated_Source\PSoC5/CapSense_CSD_MBX.c **** *    - CapSense_CSD_OUTBOX outbox - structure which is used as ouput 
 140:Generated_Source\PSoC5/CapSense_CSD_MBX.c **** *      buffer for report data to Tuner GUI.
 141:Generated_Source\PSoC5/CapSense_CSD_MBX.c **** *    - CapSense_CSD_INBOX inbox - structure which is used as input buffer
 142:Generated_Source\PSoC5/CapSense_CSD_MBX.c **** *      for paramters from Tuner GUI. Only used in manual tuning mode.
 143:Generated_Source\PSoC5/CapSense_CSD_MBX.c **** *
 144:Generated_Source\PSoC5/CapSense_CSD_MBX.c **** * Reentrant:
 145:Generated_Source\PSoC5/CapSense_CSD_MBX.c **** *  No
 146:Generated_Source\PSoC5/CapSense_CSD_MBX.c **** *
 147:Generated_Source\PSoC5/CapSense_CSD_MBX.c **** *******************************************************************************/
 148:Generated_Source\PSoC5/CapSense_CSD_MBX.c **** void CapSense_CSD_InitMailbox(volatile CapSense_CSD_MAILBOX *mbx)
 149:Generated_Source\PSoC5/CapSense_CSD_MBX.c ****                                   
 150:Generated_Source\PSoC5/CapSense_CSD_MBX.c **** {
 160              		.loc 1 150 0
 161              		.cfi_startproc
 162              		@ args = 0, pretend = 0, frame = 8
 163              		@ frame_needed = 1, uses_anonymous_args = 0
 164              		@ link register save eliminated.
 165 0000 80B4     		push	{r7}
 166              		.cfi_def_cfa_offset 4
 167              		.cfi_offset 7, -4
 168 0002 83B0     		sub	sp, sp, #12
 169              		.cfi_def_cfa_offset 16
 170 0004 00AF     		add	r7, sp, #0
 171              		.cfi_def_cfa_register 7
 172 0006 7860     		str	r0, [r7, #4]
 151:Generated_Source\PSoC5/CapSense_CSD_MBX.c ****     /* Restore TYPE_ID (clear busy flag) to indicate "action complete" */
 152:Generated_Source\PSoC5/CapSense_CSD_MBX.c ****     mbx->type = CapSense_CSD_TYPE_ID;
 173              		.loc 1 152 0
 174 0008 7B68     		ldr	r3, [r7, #4]
 175 000a 0422     		movs	r2, #4
 176 000c 1A70     		strb	r2, [r3]
 153:Generated_Source\PSoC5/CapSense_CSD_MBX.c ****     /* Restore default value - clear "have_msg" */
 154:Generated_Source\PSoC5/CapSense_CSD_MBX.c ****     mbx->size = CapSense_CSD_SWAP_ENDIAN16(sizeof(CapSense_CSD_MAILBOX));
 177              		.loc 1 154 0
 178 000e 7B68     		ldr	r3, [r7, #4]
 179 0010 5A78     		ldrb	r2, [r3, #1]
 180 0012 0022     		movs	r2, #0
 181 0014 5A70     		strb	r2, [r3, #1]
 182 0016 9A78     		ldrb	r2, [r3, #2]
 183 0018 0022     		movs	r2, #0
 184 001a 42F01402 		orr	r2, r2, #20
 185 001e 9A70     		strb	r2, [r3, #2]
 155:Generated_Source\PSoC5/CapSense_CSD_MBX.c ****     
 156:Generated_Source\PSoC5/CapSense_CSD_MBX.c ****     /* Addtional fields for async and reset handling */
 157:Generated_Source\PSoC5/CapSense_CSD_MBX.c ****     #if(CapSense_CSD_TUNING_METHOD == CapSense_CSD_MANUAL_TUNING)
ARM GAS  C:\Users\nikol\AppData\Local\Temp\ccNH4kRy.s 			page 7


 158:Generated_Source\PSoC5/CapSense_CSD_MBX.c ****         mbx->outbox.noReadMsg = 1u;
 186              		.loc 1 158 0
 187 0020 7B68     		ldr	r3, [r7, #4]
 188 0022 0122     		movs	r2, #1
 189 0024 5A72     		strb	r2, [r3, #9]
 159:Generated_Source\PSoC5/CapSense_CSD_MBX.c ****     #endif  /* (CapSense_CSD_TUNING_METHOD == CapSense_CSD_MANUAL_TUNING) */
 160:Generated_Source\PSoC5/CapSense_CSD_MBX.c ****     
 161:Generated_Source\PSoC5/CapSense_CSD_MBX.c ****     mbx->outbox.checkSum = CapSense_CSD_SWAP_ENDIAN16(CapSense_CSD_CHECK_SUM);
 190              		.loc 1 161 0
 191 0026 7B68     		ldr	r3, [r7, #4]
 192 0028 9A7A     		ldrb	r2, [r3, #10]
 193 002a 0022     		movs	r2, #0
 194 002c 9A72     		strb	r2, [r3, #10]
 195 002e DA7A     		ldrb	r2, [r3, #11]
 196 0030 0022     		movs	r2, #0
 197 0032 42F00902 		orr	r2, r2, #9
 198 0036 DA72     		strb	r2, [r3, #11]
 162:Generated_Source\PSoC5/CapSense_CSD_MBX.c **** }
 199              		.loc 1 162 0
 200 0038 00BF     		nop
 201 003a 0C37     		adds	r7, r7, #12
 202              		.cfi_def_cfa_offset 4
 203 003c BD46     		mov	sp, r7
 204              		.cfi_def_cfa_register 13
 205              		@ sp needed
 206 003e 80BC     		pop	{r7}
 207              		.cfi_restore 7
 208              		.cfi_def_cfa_offset 0
 209 0040 7047     		bx	lr
 210              		.cfi_endproc
 211              	.LFE1:
 212              		.size	CapSense_CSD_InitMailbox, .-CapSense_CSD_InitMailbox
 213 0042 00BF     		.section	.text.CapSense_CSD_PostMessage,"ax",%progbits
 214              		.align	2
 215              		.global	CapSense_CSD_PostMessage
 216              		.thumb
 217              		.thumb_func
 218              		.type	CapSense_CSD_PostMessage, %function
 219              	CapSense_CSD_PostMessage:
 220              	.LFB2:
 163:Generated_Source\PSoC5/CapSense_CSD_MBX.c **** 
 164:Generated_Source\PSoC5/CapSense_CSD_MBX.c **** 
 165:Generated_Source\PSoC5/CapSense_CSD_MBX.c **** /*******************************************************************************
 166:Generated_Source\PSoC5/CapSense_CSD_MBX.c **** * Function Name:  CapSense_CSD_PostMessage
 167:Generated_Source\PSoC5/CapSense_CSD_MBX.c **** ********************************************************************************
 168:Generated_Source\PSoC5/CapSense_CSD_MBX.c **** *
 169:Generated_Source\PSoC5/CapSense_CSD_MBX.c **** * Summary:
 170:Generated_Source\PSoC5/CapSense_CSD_MBX.c **** *  This blocking function waits while Tuner GUI reports that content of mailbox 
 171:Generated_Source\PSoC5/CapSense_CSD_MBX.c **** *  could be modified (clears CapSense_CSD_BUSY_FLAG). Then loads the report 
 172:Generated_Source\PSoC5/CapSense_CSD_MBX.c **** *  data to outbox and sets the busy flag.
 173:Generated_Source\PSoC5/CapSense_CSD_MBX.c **** *  In manual tuning mode the report data:
 174:Generated_Source\PSoC5/CapSense_CSD_MBX.c **** *    - raw data, baseline, signal;
 175:Generated_Source\PSoC5/CapSense_CSD_MBX.c **** *  In auto tuning mode to report added data:
 176:Generated_Source\PSoC5/CapSense_CSD_MBX.c **** *    - fingerThreshold;
 177:Generated_Source\PSoC5/CapSense_CSD_MBX.c **** *    - noiseThreshold;
 178:Generated_Source\PSoC5/CapSense_CSD_MBX.c **** *    - scanResolution;
 179:Generated_Source\PSoC5/CapSense_CSD_MBX.c **** *    - idacValue;
ARM GAS  C:\Users\nikol\AppData\Local\Temp\ccNH4kRy.s 			page 8


 180:Generated_Source\PSoC5/CapSense_CSD_MBX.c **** *    - prescaler.
 181:Generated_Source\PSoC5/CapSense_CSD_MBX.c **** *
 182:Generated_Source\PSoC5/CapSense_CSD_MBX.c **** * Parameters:
 183:Generated_Source\PSoC5/CapSense_CSD_MBX.c **** *  mbx:  Pointer to Mailbox structure in RAM.
 184:Generated_Source\PSoC5/CapSense_CSD_MBX.c **** *
 185:Generated_Source\PSoC5/CapSense_CSD_MBX.c **** * Return:
 186:Generated_Source\PSoC5/CapSense_CSD_MBX.c **** *  None. Modifies the contents of mbx->outbox.
 187:Generated_Source\PSoC5/CapSense_CSD_MBX.c **** *
 188:Generated_Source\PSoC5/CapSense_CSD_MBX.c **** * Global Variables:
 189:Generated_Source\PSoC5/CapSense_CSD_MBX.c **** *  CapSense_CSD_MAILBOXES - structure which incorporates two fields: 
 190:Generated_Source\PSoC5/CapSense_CSD_MBX.c **** *    - numMailBoxes (number of mailboxes);
 191:Generated_Source\PSoC5/CapSense_CSD_MBX.c **** *    - CapSense_CSD_MAILBOX csdMailbox;
 192:Generated_Source\PSoC5/CapSense_CSD_MBX.c **** *  CapSense_CSD_MAILBOX - structure which incorporates status output and
 193:Generated_Source\PSoC5/CapSense_CSD_MBX.c **** *  input buffer fields and CapSense_CSD_OUTBOX and CapSense_CSD_INBOX.
 194:Generated_Source\PSoC5/CapSense_CSD_MBX.c **** *    - type (used as outbox read status of Tuner GUI);
 195:Generated_Source\PSoC5/CapSense_CSD_MBX.c **** *    - size (used as inbox apply status of component);
 196:Generated_Source\PSoC5/CapSense_CSD_MBX.c **** *    - CapSense_CSD_OUTBOX outbox - structure which is used as ouput 
 197:Generated_Source\PSoC5/CapSense_CSD_MBX.c **** *      buffer for report data to Tuner GUI.
 198:Generated_Source\PSoC5/CapSense_CSD_MBX.c **** *    - CapSense_CSD_INBOX inbox - structure which is used as input buffer
 199:Generated_Source\PSoC5/CapSense_CSD_MBX.c **** *      for parameters from Tuner GUI. Only used in manual tuning mode.
 200:Generated_Source\PSoC5/CapSense_CSD_MBX.c **** *  CapSense_CSD_lowLevelTuningDone - used to notify the Tuner GUI that 
 201:Generated_Source\PSoC5/CapSense_CSD_MBX.c **** *  tuning of scanning parameters are done. The scanning parameters in mailbox
 202:Generated_Source\PSoC5/CapSense_CSD_MBX.c **** *  will not be updated after clear it.
 203:Generated_Source\PSoC5/CapSense_CSD_MBX.c **** *
 204:Generated_Source\PSoC5/CapSense_CSD_MBX.c **** * Reentrant:
 205:Generated_Source\PSoC5/CapSense_CSD_MBX.c **** *  No
 206:Generated_Source\PSoC5/CapSense_CSD_MBX.c **** *
 207:Generated_Source\PSoC5/CapSense_CSD_MBX.c **** *******************************************************************************/
 208:Generated_Source\PSoC5/CapSense_CSD_MBX.c **** void CapSense_CSD_PostMessage(volatile CapSense_CSD_MAILBOX *mbx)
 209:Generated_Source\PSoC5/CapSense_CSD_MBX.c ****                                   
 210:Generated_Source\PSoC5/CapSense_CSD_MBX.c **** {
 221              		.loc 1 210 0
 222              		.cfi_startproc
 223              		@ args = 0, pretend = 0, frame = 16
 224              		@ frame_needed = 1, uses_anonymous_args = 0
 225              		@ link register save eliminated.
 226 0000 80B4     		push	{r7}
 227              		.cfi_def_cfa_offset 4
 228              		.cfi_offset 7, -4
 229 0002 85B0     		sub	sp, sp, #20
 230              		.cfi_def_cfa_offset 24
 231 0004 00AF     		add	r7, sp, #0
 232              		.cfi_def_cfa_register 7
 233 0006 7860     		str	r0, [r7, #4]
 211:Generated_Source\PSoC5/CapSense_CSD_MBX.c ****     uint8 i;
 212:Generated_Source\PSoC5/CapSense_CSD_MBX.c **** 
 213:Generated_Source\PSoC5/CapSense_CSD_MBX.c ****     /* Check busy flag */
 214:Generated_Source\PSoC5/CapSense_CSD_MBX.c ****     while (mbx->type != CapSense_CSD_TYPE_ID)
 234              		.loc 1 214 0
 235 0008 00BF     		nop
 236              	.L6:
 237              		.loc 1 214 0 is_stmt 0 discriminator 1
 238 000a 7B68     		ldr	r3, [r7, #4]
 239 000c 1B78     		ldrb	r3, [r3]
 240 000e DBB2     		uxtb	r3, r3
 241 0010 042B     		cmp	r3, #4
 242 0012 FAD1     		bne	.L6
ARM GAS  C:\Users\nikol\AppData\Local\Temp\ccNH4kRy.s 			page 9


 215:Generated_Source\PSoC5/CapSense_CSD_MBX.c ****     {
 216:Generated_Source\PSoC5/CapSense_CSD_MBX.c ****         /* Wait while busy flag is set */
 217:Generated_Source\PSoC5/CapSense_CSD_MBX.c ****     }
 218:Generated_Source\PSoC5/CapSense_CSD_MBX.c ****     
 219:Generated_Source\PSoC5/CapSense_CSD_MBX.c ****     /* Copy all data - Raw, Base, Signal, OnMask */
 220:Generated_Source\PSoC5/CapSense_CSD_MBX.c ****     for(i = 0u; i < CapSense_CSD_TOTAL_SENSOR_COUNT; i++)
 243              		.loc 1 220 0 is_stmt 1
 244 0014 0023     		movs	r3, #0
 245 0016 FB73     		strb	r3, [r7, #15]
 246 0018 38E0     		b	.L7
 247              	.L8:
 221:Generated_Source\PSoC5/CapSense_CSD_MBX.c ****     {
 222:Generated_Source\PSoC5/CapSense_CSD_MBX.c ****         mbx->outbox.rawData[i]  = CapSense_CSD_SWAP_ENDIAN16(CapSense_CSD_sensorRaw[i]);
 248              		.loc 1 222 0 discriminator 3
 249 001a FB7B     		ldrb	r3, [r7, #15]	@ zero_extendqisi2
 250 001c FA7B     		ldrb	r2, [r7, #15]	@ zero_extendqisi2
 251 001e 2149     		ldr	r1, .L9
 252 0020 31F81220 		ldrh	r2, [r1, r2, lsl #1]
 253 0024 1202     		lsls	r2, r2, #8
 254 0026 11B2     		sxth	r1, r2
 255 0028 FA7B     		ldrb	r2, [r7, #15]	@ zero_extendqisi2
 256 002a 1E48     		ldr	r0, .L9
 257 002c 30F81220 		ldrh	r2, [r0, r2, lsl #1]
 258 0030 120A     		lsrs	r2, r2, #8
 259 0032 92B2     		uxth	r2, r2
 260 0034 12B2     		sxth	r2, r2
 261 0036 0A43     		orrs	r2, r2, r1
 262 0038 12B2     		sxth	r2, r2
 263 003a 91B2     		uxth	r1, r2
 264 003c 7A68     		ldr	r2, [r7, #4]
 265 003e 5B00     		lsls	r3, r3, #1
 266 0040 1344     		add	r3, r3, r2
 267 0042 0A46     		mov	r2, r1	@ movhi
 268 0044 A3F80320 		strh	r2, [r3, #3]	@ unaligned
 223:Generated_Source\PSoC5/CapSense_CSD_MBX.c ****         mbx->outbox.baseLine[i] = CapSense_CSD_SWAP_ENDIAN16(CapSense_CSD_sensorBaseline[i]);
 269              		.loc 1 223 0 discriminator 3
 270 0048 FB7B     		ldrb	r3, [r7, #15]	@ zero_extendqisi2
 271 004a FA7B     		ldrb	r2, [r7, #15]	@ zero_extendqisi2
 272 004c 1649     		ldr	r1, .L9+4
 273 004e 31F81220 		ldrh	r2, [r1, r2, lsl #1]
 274 0052 1202     		lsls	r2, r2, #8
 275 0054 11B2     		sxth	r1, r2
 276 0056 FA7B     		ldrb	r2, [r7, #15]	@ zero_extendqisi2
 277 0058 1348     		ldr	r0, .L9+4
 278 005a 30F81220 		ldrh	r2, [r0, r2, lsl #1]
 279 005e 120A     		lsrs	r2, r2, #8
 280 0060 92B2     		uxth	r2, r2
 281 0062 12B2     		sxth	r2, r2
 282 0064 0A43     		orrs	r2, r2, r1
 283 0066 12B2     		sxth	r2, r2
 284 0068 91B2     		uxth	r1, r2
 285 006a 7A68     		ldr	r2, [r7, #4]
 286 006c 5B00     		lsls	r3, r3, #1
 287 006e 1344     		add	r3, r3, r2
 288 0070 0A46     		mov	r2, r1	@ movhi
 289 0072 A3F80520 		strh	r2, [r3, #5]	@ unaligned
 224:Generated_Source\PSoC5/CapSense_CSD_MBX.c ****         #if (CapSense_CSD_SIGNAL_SIZE == CapSense_CSD_SIGNAL_SIZE_UINT8)
ARM GAS  C:\Users\nikol\AppData\Local\Temp\ccNH4kRy.s 			page 10


 225:Generated_Source\PSoC5/CapSense_CSD_MBX.c ****             mbx->outbox.signal[i]   = CapSense_CSD_sensorSignal[i];
 290              		.loc 1 225 0 discriminator 3
 291 0076 FB7B     		ldrb	r3, [r7, #15]	@ zero_extendqisi2
 292 0078 FA7B     		ldrb	r2, [r7, #15]	@ zero_extendqisi2
 293 007a 0C49     		ldr	r1, .L9+8
 294 007c 895C     		ldrb	r1, [r1, r2]	@ zero_extendqisi2
 295 007e 7A68     		ldr	r2, [r7, #4]
 296 0080 1344     		add	r3, r3, r2
 297 0082 0A46     		mov	r2, r1
 298 0084 DA71     		strb	r2, [r3, #7]
 220:Generated_Source\PSoC5/CapSense_CSD_MBX.c ****     {
 299              		.loc 1 220 0 discriminator 3
 300 0086 FB7B     		ldrb	r3, [r7, #15]	@ zero_extendqisi2
 301 0088 0133     		adds	r3, r3, #1
 302 008a FB73     		strb	r3, [r7, #15]
 303              	.L7:
 220:Generated_Source\PSoC5/CapSense_CSD_MBX.c ****     {
 304              		.loc 1 220 0 is_stmt 0 discriminator 1
 305 008c FB7B     		ldrb	r3, [r7, #15]	@ zero_extendqisi2
 306 008e 002B     		cmp	r3, #0
 307 0090 C3D0     		beq	.L8
 226:Generated_Source\PSoC5/CapSense_CSD_MBX.c ****         #else
 227:Generated_Source\PSoC5/CapSense_CSD_MBX.c ****             mbx->outbox.signal[i]   = CapSense_CSD_SWAP_ENDIAN16(CapSense_CSD_sensorSignal[i]);
 228:Generated_Source\PSoC5/CapSense_CSD_MBX.c ****         #endif  /* (CapSense_CSD_SIGNAL_SIZE == CapSense_CSD_SIGNAL_SIZE_UINT8) */
 229:Generated_Source\PSoC5/CapSense_CSD_MBX.c ****     }
 230:Generated_Source\PSoC5/CapSense_CSD_MBX.c ****         
 231:Generated_Source\PSoC5/CapSense_CSD_MBX.c ****     /* AutoTuning - need to copy all High Level parameters */
 232:Generated_Source\PSoC5/CapSense_CSD_MBX.c ****     #if (CapSense_CSD_TUNING_METHOD == CapSense_CSD_AUTO_TUNING)
 233:Generated_Source\PSoC5/CapSense_CSD_MBX.c ****         
 234:Generated_Source\PSoC5/CapSense_CSD_MBX.c ****         /* Parameters are changed in run time */
 235:Generated_Source\PSoC5/CapSense_CSD_MBX.c ****         for(i = 0u; i < CapSense_CSD_WIDGET_CSHL_PARAMETERS_COUNT; i++)
 236:Generated_Source\PSoC5/CapSense_CSD_MBX.c ****         {
 237:Generated_Source\PSoC5/CapSense_CSD_MBX.c ****             #if (CapSense_CSD_SIGNAL_SIZE == CapSense_CSD_SIGNAL_SIZE_UINT8)
 238:Generated_Source\PSoC5/CapSense_CSD_MBX.c ****                 mbx->outbox.fingerThreshold[i] = CapSense_CSD_fingerThreshold[i];
 239:Generated_Source\PSoC5/CapSense_CSD_MBX.c ****                 mbx->outbox.noiseThreshold[i]  = CapSense_CSD_noiseThreshold[i];
 240:Generated_Source\PSoC5/CapSense_CSD_MBX.c ****             #else
 241:Generated_Source\PSoC5/CapSense_CSD_MBX.c ****                 mbx->outbox.fingerThreshold[i] = $INSTANCE_NAME`_SWAP_ENDIAN16(CapSense_CSD_fingerT
 242:Generated_Source\PSoC5/CapSense_CSD_MBX.c ****                 mbx->outbox.noiseThreshold[i]  = $INSTANCE_NAME`_SWAP_ENDIAN16(CapSense_CSD_noiseTh
 243:Generated_Source\PSoC5/CapSense_CSD_MBX.c ****             #endif /* (CapSense_CSD_SIGNAL_SIZE == CapSense_CSD_SIGNAL_SIZE_UINT8) */
 244:Generated_Source\PSoC5/CapSense_CSD_MBX.c ****         }
 245:Generated_Source\PSoC5/CapSense_CSD_MBX.c ****         
 246:Generated_Source\PSoC5/CapSense_CSD_MBX.c ****         /* Widget resolution, take to account TP and MB */
 247:Generated_Source\PSoC5/CapSense_CSD_MBX.c ****         for(i=0u; i < CapSense_CSD_WIDGET_RESOLUTION_PARAMETERS_COUNT; i++)
 248:Generated_Source\PSoC5/CapSense_CSD_MBX.c ****         {
 249:Generated_Source\PSoC5/CapSense_CSD_MBX.c ****             mbx->outbox.scanResolution[i]  = CapSense_CSD_widgetResolution[i];
 250:Generated_Source\PSoC5/CapSense_CSD_MBX.c ****         }
 251:Generated_Source\PSoC5/CapSense_CSD_MBX.c **** 
 252:Generated_Source\PSoC5/CapSense_CSD_MBX.c ****         /* Copy tuned idac values */
 253:Generated_Source\PSoC5/CapSense_CSD_MBX.c ****         for(i=0u; i < CapSense_CSD_TOTAL_SENSOR_COUNT; i++)
 254:Generated_Source\PSoC5/CapSense_CSD_MBX.c ****         {
 255:Generated_Source\PSoC5/CapSense_CSD_MBX.c ****             mbx->outbox.idacValue[i] = CapSense_CSD_idacSettings[i];
 256:Generated_Source\PSoC5/CapSense_CSD_MBX.c ****         }
 257:Generated_Source\PSoC5/CapSense_CSD_MBX.c ****             
 258:Generated_Source\PSoC5/CapSense_CSD_MBX.c ****         /* Pass parameters only once */
 259:Generated_Source\PSoC5/CapSense_CSD_MBX.c ****         CapSense_CSD_lowLevelTuningDone = 0u;
 260:Generated_Source\PSoC5/CapSense_CSD_MBX.c ****     #endif  /* (CapSense_CSD_TUNING_METHOD == CapSense_CSD_MANUAL_TUNING) */
 261:Generated_Source\PSoC5/CapSense_CSD_MBX.c **** 
ARM GAS  C:\Users\nikol\AppData\Local\Temp\ccNH4kRy.s 			page 11


 262:Generated_Source\PSoC5/CapSense_CSD_MBX.c ****     /* Copy scan parameters */
 263:Generated_Source\PSoC5/CapSense_CSD_MBX.c ****     #if ( CapSense_CSD_TUNING_METHOD == CapSense_CSD_AUTO_TUNING )
 264:Generated_Source\PSoC5/CapSense_CSD_MBX.c ****         for(i = 0u; i < CapSense_CSD_TOTAL_SCANSLOT_COUNT; i++)
 265:Generated_Source\PSoC5/CapSense_CSD_MBX.c ****         {
 266:Generated_Source\PSoC5/CapSense_CSD_MBX.c ****             mbx->outbox.analogSwitchDivider[i] = CapSense_CSD_analogSwitchDivider[i];
 267:Generated_Source\PSoC5/CapSense_CSD_MBX.c ****         }
 268:Generated_Source\PSoC5/CapSense_CSD_MBX.c ****     #endif /* (CapSense_CSD_TUNING_METHOD == CapSense_CSD_AUTO_TUNING) */
 269:Generated_Source\PSoC5/CapSense_CSD_MBX.c **** 
 270:Generated_Source\PSoC5/CapSense_CSD_MBX.c ****     /* Set busy flag */
 271:Generated_Source\PSoC5/CapSense_CSD_MBX.c ****     mbx->type = CapSense_CSD_BUSY_FLAG;
 308              		.loc 1 271 0 is_stmt 1
 309 0092 7B68     		ldr	r3, [r7, #4]
 310 0094 8422     		movs	r2, #132
 311 0096 1A70     		strb	r2, [r3]
 272:Generated_Source\PSoC5/CapSense_CSD_MBX.c **** }
 312              		.loc 1 272 0
 313 0098 00BF     		nop
 314 009a 1437     		adds	r7, r7, #20
 315              		.cfi_def_cfa_offset 4
 316 009c BD46     		mov	sp, r7
 317              		.cfi_def_cfa_register 13
 318              		@ sp needed
 319 009e 80BC     		pop	{r7}
 320              		.cfi_restore 7
 321              		.cfi_def_cfa_offset 0
 322 00a0 7047     		bx	lr
 323              	.L10:
 324 00a2 00BF     		.align	2
 325              	.L9:
 326 00a4 00000000 		.word	CapSense_CSD_sensorRaw
 327 00a8 00000000 		.word	CapSense_CSD_sensorBaseline
 328 00ac 00000000 		.word	CapSense_CSD_sensorSignal
 329              		.cfi_endproc
 330              	.LFE2:
 331              		.size	CapSense_CSD_PostMessage, .-CapSense_CSD_PostMessage
 332              		.section	.text.CapSense_CSD_ReadMessage,"ax",%progbits
 333              		.align	2
 334              		.global	CapSense_CSD_ReadMessage
 335              		.thumb
 336              		.thumb_func
 337              		.type	CapSense_CSD_ReadMessage, %function
 338              	CapSense_CSD_ReadMessage:
 339              	.LFB3:
 273:Generated_Source\PSoC5/CapSense_CSD_MBX.c **** 
 274:Generated_Source\PSoC5/CapSense_CSD_MBX.c **** 
 275:Generated_Source\PSoC5/CapSense_CSD_MBX.c **** #if (CapSense_CSD_TUNING_METHOD == CapSense_CSD_MANUAL_TUNING)
 276:Generated_Source\PSoC5/CapSense_CSD_MBX.c ****     /*******************************************************************************
 277:Generated_Source\PSoC5/CapSense_CSD_MBX.c ****     * Function Name: CapSense_CSD_ReadMessage
 278:Generated_Source\PSoC5/CapSense_CSD_MBX.c ****     ********************************************************************************
 279:Generated_Source\PSoC5/CapSense_CSD_MBX.c ****     *
 280:Generated_Source\PSoC5/CapSense_CSD_MBX.c ****     * Summary:
 281:Generated_Source\PSoC5/CapSense_CSD_MBX.c ****     *  If CapSense_CSD_HAVE_MSG is found in the mailbox, initialize component 
 282:Generated_Source\PSoC5/CapSense_CSD_MBX.c ****     *  with parameters found in the inbox. Signal DONE by overwriting the
 283:Generated_Source\PSoC5/CapSense_CSD_MBX.c ****     *  value in size field in mailbox.
 284:Generated_Source\PSoC5/CapSense_CSD_MBX.c ****     *  Only available when manual tuning mode.
 285:Generated_Source\PSoC5/CapSense_CSD_MBX.c ****     *
 286:Generated_Source\PSoC5/CapSense_CSD_MBX.c ****     * Parameters:
ARM GAS  C:\Users\nikol\AppData\Local\Temp\ccNH4kRy.s 			page 12


 287:Generated_Source\PSoC5/CapSense_CSD_MBX.c ****     *  mbx:  Pointer to Mailbox structure in RAM.
 288:Generated_Source\PSoC5/CapSense_CSD_MBX.c ****     *
 289:Generated_Source\PSoC5/CapSense_CSD_MBX.c ****     * Return:
 290:Generated_Source\PSoC5/CapSense_CSD_MBX.c ****     *  None. Modifies the contents of mbx.
 291:Generated_Source\PSoC5/CapSense_CSD_MBX.c ****     *
 292:Generated_Source\PSoC5/CapSense_CSD_MBX.c ****     * Side Effects: 
 293:Generated_Source\PSoC5/CapSense_CSD_MBX.c ****     *  Initializes component parameters if CapSense_CSD_HAVE_MSG is received.
 294:Generated_Source\PSoC5/CapSense_CSD_MBX.c ****     *
 295:Generated_Source\PSoC5/CapSense_CSD_MBX.c ****     * Global Variables:
 296:Generated_Source\PSoC5/CapSense_CSD_MBX.c ****     *  CapSense_CSD_MAILBOXES - structure which incorporates two fields: 
 297:Generated_Source\PSoC5/CapSense_CSD_MBX.c ****     *    - numMailBoxes (number of mailboxes);
 298:Generated_Source\PSoC5/CapSense_CSD_MBX.c ****     *    - CapSense_CSD_MAILBOX csdMailbox;
 299:Generated_Source\PSoC5/CapSense_CSD_MBX.c ****     *  CapSense_CSD_MAILBOX - structure which incorporates status output and
 300:Generated_Source\PSoC5/CapSense_CSD_MBX.c ****     *  input buffer fields and CapSense_CSD_OUTBOX and CapSense_CSD_INBOX.
 301:Generated_Source\PSoC5/CapSense_CSD_MBX.c ****     *    - type (used as outbox read status of Tuner GUI);
 302:Generated_Source\PSoC5/CapSense_CSD_MBX.c ****     *    - size (used as inbox apply status of component);
 303:Generated_Source\PSoC5/CapSense_CSD_MBX.c ****     *    - CapSense_CSD_OUTBOX outbox - structure which is used as ouput 
 304:Generated_Source\PSoC5/CapSense_CSD_MBX.c ****     *      buffer for report data to Tuner GUI.
 305:Generated_Source\PSoC5/CapSense_CSD_MBX.c ****     *    - CapSense_CSD_INBOX inbox - structure which is used as input buffer
 306:Generated_Source\PSoC5/CapSense_CSD_MBX.c ****     *      for parameters from Tuner GUI. Only used in manual tuning mode.
 307:Generated_Source\PSoC5/CapSense_CSD_MBX.c ****     *
 308:Generated_Source\PSoC5/CapSense_CSD_MBX.c ****     * Reentrant:
 309:Generated_Source\PSoC5/CapSense_CSD_MBX.c ****     *  No
 310:Generated_Source\PSoC5/CapSense_CSD_MBX.c ****     *
 311:Generated_Source\PSoC5/CapSense_CSD_MBX.c ****     *******************************************************************************/
 312:Generated_Source\PSoC5/CapSense_CSD_MBX.c ****     void CapSense_CSD_ReadMessage(volatile CapSense_CSD_MAILBOX *mbx)
 313:Generated_Source\PSoC5/CapSense_CSD_MBX.c **** 	                                  
 314:Generated_Source\PSoC5/CapSense_CSD_MBX.c ****     {
 340              		.loc 1 314 0
 341              		.cfi_startproc
 342              		@ args = 0, pretend = 0, frame = 16
 343              		@ frame_needed = 1, uses_anonymous_args = 0
 344 0000 80B5     		push	{r7, lr}
 345              		.cfi_def_cfa_offset 8
 346              		.cfi_offset 7, -8
 347              		.cfi_offset 14, -4
 348 0002 84B0     		sub	sp, sp, #16
 349              		.cfi_def_cfa_offset 24
 350 0004 00AF     		add	r7, sp, #0
 351              		.cfi_def_cfa_register 7
 352 0006 7860     		str	r0, [r7, #4]
 315:Generated_Source\PSoC5/CapSense_CSD_MBX.c ****         volatile CapSense_CSD_INBOX *tmpInbox;
 316:Generated_Source\PSoC5/CapSense_CSD_MBX.c ****         uint16 tmpValue;
 317:Generated_Source\PSoC5/CapSense_CSD_MBX.c ****         
 318:Generated_Source\PSoC5/CapSense_CSD_MBX.c ****         tmpValue = mbx->size;
 353              		.loc 1 318 0
 354 0008 7B68     		ldr	r3, [r7, #4]
 355 000a 5A78     		ldrb	r2, [r3, #1]
 356 000c D2B2     		uxtb	r2, r2
 357 000e 9B78     		ldrb	r3, [r3, #2]
 358 0010 DBB2     		uxtb	r3, r3
 359 0012 1B02     		lsls	r3, r3, #8
 360 0014 1343     		orrs	r3, r3, r2
 361 0016 FB81     		strh	r3, [r7, #14]	@ movhi
 319:Generated_Source\PSoC5/CapSense_CSD_MBX.c ****        
 320:Generated_Source\PSoC5/CapSense_CSD_MBX.c ****         /* Do we have a message waiting? */
 321:Generated_Source\PSoC5/CapSense_CSD_MBX.c ****         if (CapSense_CSD_SWAP_ENDIAN16(tmpValue) == CapSense_CSD_HAVE_MSG)
ARM GAS  C:\Users\nikol\AppData\Local\Temp\ccNH4kRy.s 			page 13


 362              		.loc 1 321 0
 363 0018 FB89     		ldrh	r3, [r7, #14]
 364 001a 1B02     		lsls	r3, r3, #8
 365 001c 1AB2     		sxth	r2, r3
 366 001e FB89     		ldrh	r3, [r7, #14]
 367 0020 1B0A     		lsrs	r3, r3, #8
 368 0022 9BB2     		uxth	r3, r3
 369 0024 1BB2     		sxth	r3, r3
 370 0026 1343     		orrs	r3, r3, r2
 371 0028 1BB2     		sxth	r3, r3
 372 002a 0C4A     		ldr	r2, .L14
 373 002c 9342     		cmp	r3, r2
 374 002e 11D1     		bne	.L13
 322:Generated_Source\PSoC5/CapSense_CSD_MBX.c ****         {
 323:Generated_Source\PSoC5/CapSense_CSD_MBX.c ****             tmpInbox = &(mbx->inbox);
 375              		.loc 1 323 0
 376 0030 7B68     		ldr	r3, [r7, #4]
 377 0032 0C33     		adds	r3, r3, #12
 378 0034 BB60     		str	r3, [r7, #8]
 324:Generated_Source\PSoC5/CapSense_CSD_MBX.c ****             
 325:Generated_Source\PSoC5/CapSense_CSD_MBX.c ****             CapSense_CSD_InitParams(tmpInbox);
 379              		.loc 1 325 0
 380 0036 B868     		ldr	r0, [r7, #8]
 381 0038 FFF7FEFF 		bl	CapSense_CSD_InitParams
 326:Generated_Source\PSoC5/CapSense_CSD_MBX.c ****     
 327:Generated_Source\PSoC5/CapSense_CSD_MBX.c ****             /* Notify host/tuner that we have consumed the message */
 328:Generated_Source\PSoC5/CapSense_CSD_MBX.c ****             mbx->size = CapSense_CSD_SWAP_ENDIAN16(sizeof(CapSense_CSD_MAILBOX));
 382              		.loc 1 328 0
 383 003c 7B68     		ldr	r3, [r7, #4]
 384 003e 5A78     		ldrb	r2, [r3, #1]
 385 0040 0022     		movs	r2, #0
 386 0042 5A70     		strb	r2, [r3, #1]
 387 0044 9A78     		ldrb	r2, [r3, #2]
 388 0046 0022     		movs	r2, #0
 389 0048 42F01402 		orr	r2, r2, #20
 390 004c 9A70     		strb	r2, [r3, #2]
 329:Generated_Source\PSoC5/CapSense_CSD_MBX.c ****             
 330:Generated_Source\PSoC5/CapSense_CSD_MBX.c ****             /* Defualt settings where changed */
 331:Generated_Source\PSoC5/CapSense_CSD_MBX.c ****             mbx->outbox.noReadMsg = 0u;
 391              		.loc 1 331 0
 392 004e 7B68     		ldr	r3, [r7, #4]
 393 0050 0022     		movs	r2, #0
 394 0052 5A72     		strb	r2, [r3, #9]
 395              	.L13:
 332:Generated_Source\PSoC5/CapSense_CSD_MBX.c ****         }       
 333:Generated_Source\PSoC5/CapSense_CSD_MBX.c ****     }
 396              		.loc 1 333 0
 397 0054 00BF     		nop
 398 0056 1037     		adds	r7, r7, #16
 399              		.cfi_def_cfa_offset 8
 400 0058 BD46     		mov	sp, r7
 401              		.cfi_def_cfa_register 13
 402              		@ sp needed
 403 005a 80BD     		pop	{r7, pc}
 404              	.L15:
 405              		.align	2
 406              	.L14:
ARM GAS  C:\Users\nikol\AppData\Local\Temp\ccNH4kRy.s 			page 14


 407 005c 1480FFFF 		.word	-32748
 408              		.cfi_endproc
 409              	.LFE3:
 410              		.size	CapSense_CSD_ReadMessage, .-CapSense_CSD_ReadMessage
 411              		.text
 412              	.Letext0:
 413              		.file 2 "Generated_Source\\PSoC5\\cytypes.h"
 414              		.file 3 "Generated_Source\\PSoC5\\CapSense_CSD_MBX.h"
 415              		.file 4 "Generated_Source\\PSoC5\\CapSense_CSD.h"
 416              		.file 5 "Generated_Source\\PSoC5\\CapSense_CSD_CSHL.h"