ARM GAS  C:\Users\nikol\AppData\Local\Temp\cc1KNWqq.s 			page 1


   1              		.syntax unified
   2              		.cpu cortex-m3
   3              		.fpu softvfp
   4              		.eabi_attribute 20, 1
   5              		.eabi_attribute 21, 1
   6              		.eabi_attribute 23, 3
   7              		.eabi_attribute 24, 1
   8              		.eabi_attribute 25, 1
   9              		.eabi_attribute 26, 1
  10              		.eabi_attribute 30, 6
  11              		.eabi_attribute 34, 1
  12              		.eabi_attribute 18, 4
  13              		.thumb
  14              		.syntax unified
  15              		.file	"CapSense_CSD_TunerHelper.c"
  16              		.text
  17              	.Ltext0:
  18              		.cfi_sections	.debug_frame
  19              		.comm	CapSense_CSD_mailboxesComm,21,4
  20              		.section	.text.CapSense_CSD_TunerStart,"ax",%progbits
  21              		.align	2
  22              		.global	CapSense_CSD_TunerStart
  23              		.thumb
  24              		.thumb_func
  25              		.type	CapSense_CSD_TunerStart, %function
  26              	CapSense_CSD_TunerStart:
  27              	.LFB0:
  28              		.file 1 "Generated_Source\\PSoC5\\CapSense_CSD_TunerHelper.c"
   1:Generated_Source\PSoC5/CapSense_CSD_TunerHelper.c **** /*******************************************************************************
   2:Generated_Source\PSoC5/CapSense_CSD_TunerHelper.c **** * File Name: CapSense_CSD_TunerHelper.c
   3:Generated_Source\PSoC5/CapSense_CSD_TunerHelper.c **** * Version 3.50
   4:Generated_Source\PSoC5/CapSense_CSD_TunerHelper.c **** *
   5:Generated_Source\PSoC5/CapSense_CSD_TunerHelper.c **** * Description:
   6:Generated_Source\PSoC5/CapSense_CSD_TunerHelper.c **** *  This file provides the source code of Tuner helper APIs for the CapSense CSD 
   7:Generated_Source\PSoC5/CapSense_CSD_TunerHelper.c **** *  component.
   8:Generated_Source\PSoC5/CapSense_CSD_TunerHelper.c **** *
   9:Generated_Source\PSoC5/CapSense_CSD_TunerHelper.c **** * Note:
  10:Generated_Source\PSoC5/CapSense_CSD_TunerHelper.c **** *
  11:Generated_Source\PSoC5/CapSense_CSD_TunerHelper.c **** ********************************************************************************
  12:Generated_Source\PSoC5/CapSense_CSD_TunerHelper.c **** * Copyright 2008-2013, Cypress Semiconductor Corporation.  All rights reserved.
  13:Generated_Source\PSoC5/CapSense_CSD_TunerHelper.c **** * You may use this file only in accordance with the license, terms, conditions,
  14:Generated_Source\PSoC5/CapSense_CSD_TunerHelper.c **** * disclaimers, and limitations in the end user license agreement accompanying
  15:Generated_Source\PSoC5/CapSense_CSD_TunerHelper.c **** * the software package with which this file was provided.
  16:Generated_Source\PSoC5/CapSense_CSD_TunerHelper.c **** *******************************************************************************/
  17:Generated_Source\PSoC5/CapSense_CSD_TunerHelper.c **** 
  18:Generated_Source\PSoC5/CapSense_CSD_TunerHelper.c **** #include "CapSense_CSD_TunerHelper.h"
  19:Generated_Source\PSoC5/CapSense_CSD_TunerHelper.c **** 
  20:Generated_Source\PSoC5/CapSense_CSD_TunerHelper.c **** #if (CapSense_CSD_TUNER_API_GENERATE)
  21:Generated_Source\PSoC5/CapSense_CSD_TunerHelper.c ****     volatile CapSense_CSD_MAILBOXES CapSense_CSD_mailboxesComm;
  22:Generated_Source\PSoC5/CapSense_CSD_TunerHelper.c **** #endif  /* (CapSense_CSD_TUNER_API_GENERATE) */
  23:Generated_Source\PSoC5/CapSense_CSD_TunerHelper.c **** 
  24:Generated_Source\PSoC5/CapSense_CSD_TunerHelper.c **** 
  25:Generated_Source\PSoC5/CapSense_CSD_TunerHelper.c **** /*******************************************************************************
  26:Generated_Source\PSoC5/CapSense_CSD_TunerHelper.c **** * Function Name: CapSense_CSD_TunerStart
  27:Generated_Source\PSoC5/CapSense_CSD_TunerHelper.c **** ********************************************************************************
  28:Generated_Source\PSoC5/CapSense_CSD_TunerHelper.c **** *
  29:Generated_Source\PSoC5/CapSense_CSD_TunerHelper.c **** * Summary:
ARM GAS  C:\Users\nikol\AppData\Local\Temp\cc1KNWqq.s 			page 2


  30:Generated_Source\PSoC5/CapSense_CSD_TunerHelper.c **** *  Initializes CapSense CSD component and EzI2C communication componenet to use
  31:Generated_Source\PSoC5/CapSense_CSD_TunerHelper.c **** *  mailbox data structure for communication with Tuner GUI.
  32:Generated_Source\PSoC5/CapSense_CSD_TunerHelper.c **** *  Start the scanning, after initialization complete.
  33:Generated_Source\PSoC5/CapSense_CSD_TunerHelper.c **** *
  34:Generated_Source\PSoC5/CapSense_CSD_TunerHelper.c **** * Parameters:
  35:Generated_Source\PSoC5/CapSense_CSD_TunerHelper.c **** *  None
  36:Generated_Source\PSoC5/CapSense_CSD_TunerHelper.c **** *
  37:Generated_Source\PSoC5/CapSense_CSD_TunerHelper.c **** * Return:
  38:Generated_Source\PSoC5/CapSense_CSD_TunerHelper.c **** *  None
  39:Generated_Source\PSoC5/CapSense_CSD_TunerHelper.c **** *
  40:Generated_Source\PSoC5/CapSense_CSD_TunerHelper.c **** * Reentrant:
  41:Generated_Source\PSoC5/CapSense_CSD_TunerHelper.c **** *  No
  42:Generated_Source\PSoC5/CapSense_CSD_TunerHelper.c **** *
  43:Generated_Source\PSoC5/CapSense_CSD_TunerHelper.c **** * Note:
  44:Generated_Source\PSoC5/CapSense_CSD_TunerHelper.c **** *  All widgets are enabled by default except proximity widgets. Proximity widgets 
  45:Generated_Source\PSoC5/CapSense_CSD_TunerHelper.c **** *  must be manually enabled as their long scan time is incompatible 
  46:Generated_Source\PSoC5/CapSense_CSD_TunerHelper.c **** *  with the fast response required of other widget types. 
  47:Generated_Source\PSoC5/CapSense_CSD_TunerHelper.c **** *
  48:Generated_Source\PSoC5/CapSense_CSD_TunerHelper.c **** *******************************************************************************/
  49:Generated_Source\PSoC5/CapSense_CSD_TunerHelper.c **** void CapSense_CSD_TunerStart(void) 
  50:Generated_Source\PSoC5/CapSense_CSD_TunerHelper.c **** {
  29              		.loc 1 50 0
  30              		.cfi_startproc
  31              		@ args = 0, pretend = 0, frame = 0
  32              		@ frame_needed = 1, uses_anonymous_args = 0
  33 0000 80B5     		push	{r7, lr}
  34              		.cfi_def_cfa_offset 8
  35              		.cfi_offset 7, -8
  36              		.cfi_offset 14, -4
  37 0002 00AF     		add	r7, sp, #0
  38              		.cfi_def_cfa_register 7
  51:Generated_Source\PSoC5/CapSense_CSD_TunerHelper.c ****     #if (CapSense_CSD_TUNER_API_GENERATE)
  52:Generated_Source\PSoC5/CapSense_CSD_TunerHelper.c ****         
  53:Generated_Source\PSoC5/CapSense_CSD_TunerHelper.c ****         /* Init mbx and quick check */
  54:Generated_Source\PSoC5/CapSense_CSD_TunerHelper.c ****         CapSense_CSD_InitMailbox(&CapSense_CSD_mailboxesComm.csdMailbox);
  39              		.loc 1 54 0
  40 0004 0B48     		ldr	r0, .L2
  41 0006 FFF7FEFF 		bl	CapSense_CSD_InitMailbox
  55:Generated_Source\PSoC5/CapSense_CSD_TunerHelper.c ****         CapSense_CSD_mailboxesComm.numMailBoxes = CapSense_CSD_DEFAULT_MAILBOXES_NUMBER;
  42              		.loc 1 55 0
  43 000a 0B4B     		ldr	r3, .L2+4
  44 000c 0122     		movs	r2, #1
  45 000e 1A70     		strb	r2, [r3]
  56:Generated_Source\PSoC5/CapSense_CSD_TunerHelper.c ****         
  57:Generated_Source\PSoC5/CapSense_CSD_TunerHelper.c ****         /* Start CapSense and baselines */
  58:Generated_Source\PSoC5/CapSense_CSD_TunerHelper.c ****         CapSense_CSD_Start();
  46              		.loc 1 58 0
  47 0010 FFF7FEFF 		bl	CapSense_CSD_Start
  59:Generated_Source\PSoC5/CapSense_CSD_TunerHelper.c ****         
  60:Generated_Source\PSoC5/CapSense_CSD_TunerHelper.c ****         /* Initialize baselines */ 
  61:Generated_Source\PSoC5/CapSense_CSD_TunerHelper.c ****         CapSense_CSD_InitializeAllBaselines();
  48              		.loc 1 61 0
  49 0014 FFF7FEFF 		bl	CapSense_CSD_InitializeAllBaselines
  62:Generated_Source\PSoC5/CapSense_CSD_TunerHelper.c ****         CapSense_CSD_InitializeAllBaselines();
  50              		.loc 1 62 0
  51 0018 FFF7FEFF 		bl	CapSense_CSD_InitializeAllBaselines
  63:Generated_Source\PSoC5/CapSense_CSD_TunerHelper.c ****         
ARM GAS  C:\Users\nikol\AppData\Local\Temp\cc1KNWqq.s 			page 3


  64:Generated_Source\PSoC5/CapSense_CSD_TunerHelper.c ****         /* Start EzI2C, clears buf pointers */
  65:Generated_Source\PSoC5/CapSense_CSD_TunerHelper.c ****         EZI2C_1_Start();
  52              		.loc 1 65 0
  53 001c FFF7FEFF 		bl	EZI2C_1_Start
  66:Generated_Source\PSoC5/CapSense_CSD_TunerHelper.c ****         
  67:Generated_Source\PSoC5/CapSense_CSD_TunerHelper.c ****         /* Setup EzI2C buffers */
  68:Generated_Source\PSoC5/CapSense_CSD_TunerHelper.c ****         EZI2C_1_SetBuffer1(sizeof(CapSense_CSD_mailboxesComm), sizeof(CapSense_CSD_mailboxesComm),
  54              		.loc 1 68 0
  55 0020 054A     		ldr	r2, .L2+4
  56 0022 1521     		movs	r1, #21
  57 0024 1520     		movs	r0, #21
  58 0026 FFF7FEFF 		bl	EZI2C_1_SetBuffer1
  69:Generated_Source\PSoC5/CapSense_CSD_TunerHelper.c ****                                         (void *) &CapSense_CSD_mailboxesComm);
  70:Generated_Source\PSoC5/CapSense_CSD_TunerHelper.c ****         
  71:Generated_Source\PSoC5/CapSense_CSD_TunerHelper.c ****         /* Starts scan all enabled sensors */
  72:Generated_Source\PSoC5/CapSense_CSD_TunerHelper.c ****         CapSense_CSD_ScanEnabledWidgets();
  59              		.loc 1 72 0
  60 002a FFF7FEFF 		bl	CapSense_CSD_ScanEnabledWidgets
  73:Generated_Source\PSoC5/CapSense_CSD_TunerHelper.c ****     
  74:Generated_Source\PSoC5/CapSense_CSD_TunerHelper.c ****     #endif  /* (CapSense_CSD_TUNER_API_GENERATE) */
  75:Generated_Source\PSoC5/CapSense_CSD_TunerHelper.c **** }
  61              		.loc 1 75 0
  62 002e 00BF     		nop
  63 0030 80BD     		pop	{r7, pc}
  64              	.L3:
  65 0032 00BF     		.align	2
  66              	.L2:
  67 0034 01000000 		.word	CapSense_CSD_mailboxesComm+1
  68 0038 00000000 		.word	CapSense_CSD_mailboxesComm
  69              		.cfi_endproc
  70              	.LFE0:
  71              		.size	CapSense_CSD_TunerStart, .-CapSense_CSD_TunerStart
  72              		.section	.text.CapSense_CSD_TunerComm,"ax",%progbits
  73              		.align	2
  74              		.global	CapSense_CSD_TunerComm
  75              		.thumb
  76              		.thumb_func
  77              		.type	CapSense_CSD_TunerComm, %function
  78              	CapSense_CSD_TunerComm:
  79              	.LFB1:
  76:Generated_Source\PSoC5/CapSense_CSD_TunerHelper.c **** 
  77:Generated_Source\PSoC5/CapSense_CSD_TunerHelper.c **** 
  78:Generated_Source\PSoC5/CapSense_CSD_TunerHelper.c **** /*******************************************************************************
  79:Generated_Source\PSoC5/CapSense_CSD_TunerHelper.c **** * Function Name: CapSense_CSD_TunerComm
  80:Generated_Source\PSoC5/CapSense_CSD_TunerHelper.c **** ********************************************************************************
  81:Generated_Source\PSoC5/CapSense_CSD_TunerHelper.c **** *
  82:Generated_Source\PSoC5/CapSense_CSD_TunerHelper.c **** * Summary:
  83:Generated_Source\PSoC5/CapSense_CSD_TunerHelper.c **** *  This function is blocking. It waits till scaning loop is completed and apply
  84:Generated_Source\PSoC5/CapSense_CSD_TunerHelper.c **** *  new parameters from Tuner GUI if available (manual tuning mode only). Updates
  85:Generated_Source\PSoC5/CapSense_CSD_TunerHelper.c **** *  enabled baselines and state of widgets. Waits while Tuner GUI reports that 
  86:Generated_Source\PSoC5/CapSense_CSD_TunerHelper.c **** *  content of mailbox could be modified. Then loads the report data into outbox 
  87:Generated_Source\PSoC5/CapSense_CSD_TunerHelper.c **** *  and sets the busy flag. Starts new scanning loop.
  88:Generated_Source\PSoC5/CapSense_CSD_TunerHelper.c **** *  
  89:Generated_Source\PSoC5/CapSense_CSD_TunerHelper.c **** * Parameters:
  90:Generated_Source\PSoC5/CapSense_CSD_TunerHelper.c **** *  None
  91:Generated_Source\PSoC5/CapSense_CSD_TunerHelper.c **** *
  92:Generated_Source\PSoC5/CapSense_CSD_TunerHelper.c **** * Return:
ARM GAS  C:\Users\nikol\AppData\Local\Temp\cc1KNWqq.s 			page 4


  93:Generated_Source\PSoC5/CapSense_CSD_TunerHelper.c **** *  None
  94:Generated_Source\PSoC5/CapSense_CSD_TunerHelper.c **** *
  95:Generated_Source\PSoC5/CapSense_CSD_TunerHelper.c **** * Reentrant:
  96:Generated_Source\PSoC5/CapSense_CSD_TunerHelper.c **** *  No
  97:Generated_Source\PSoC5/CapSense_CSD_TunerHelper.c **** *
  98:Generated_Source\PSoC5/CapSense_CSD_TunerHelper.c **** *******************************************************************************/
  99:Generated_Source\PSoC5/CapSense_CSD_TunerHelper.c **** void CapSense_CSD_TunerComm(void) 
 100:Generated_Source\PSoC5/CapSense_CSD_TunerHelper.c **** {
  80              		.loc 1 100 0
  81              		.cfi_startproc
  82              		@ args = 0, pretend = 0, frame = 0
  83              		@ frame_needed = 1, uses_anonymous_args = 0
  84 0000 80B5     		push	{r7, lr}
  85              		.cfi_def_cfa_offset 8
  86              		.cfi_offset 7, -8
  87              		.cfi_offset 14, -4
  88 0002 00AF     		add	r7, sp, #0
  89              		.cfi_def_cfa_register 7
 101:Generated_Source\PSoC5/CapSense_CSD_TunerHelper.c ****     #if (CapSense_CSD_TUNER_API_GENERATE)
 102:Generated_Source\PSoC5/CapSense_CSD_TunerHelper.c ****         if (0u == CapSense_CSD_IsBusy())
  90              		.loc 1 102 0
  91 0004 FFF7FEFF 		bl	CapSense_CSD_IsBusy
  92 0008 0346     		mov	r3, r0
  93 000a 002B     		cmp	r3, #0
  94 000c 21D1     		bne	.L7
 103:Generated_Source\PSoC5/CapSense_CSD_TunerHelper.c ****         {   
 104:Generated_Source\PSoC5/CapSense_CSD_TunerHelper.c ****             /* Apply new settings */
 105:Generated_Source\PSoC5/CapSense_CSD_TunerHelper.c ****             #if (CapSense_CSD_TUNING_METHOD == CapSense_CSD_MANUAL_TUNING)
 106:Generated_Source\PSoC5/CapSense_CSD_TunerHelper.c ****                 CapSense_CSD_ReadMessage(&CapSense_CSD_mailboxesComm.csdMailbox);
  95              		.loc 1 106 0
  96 000e 1248     		ldr	r0, .L8
  97 0010 FFF7FEFF 		bl	CapSense_CSD_ReadMessage
 107:Generated_Source\PSoC5/CapSense_CSD_TunerHelper.c ****             #endif  /* (CapSense_CSD_TUNING_METHOD == CapSense_CSD_MANUAL_TUNING) */
 108:Generated_Source\PSoC5/CapSense_CSD_TunerHelper.c **** 
 109:Generated_Source\PSoC5/CapSense_CSD_TunerHelper.c ****             /* Update all baselines and process all widgets */
 110:Generated_Source\PSoC5/CapSense_CSD_TunerHelper.c ****             CapSense_CSD_UpdateEnabledBaselines();
  98              		.loc 1 110 0
  99 0014 FFF7FEFF 		bl	CapSense_CSD_UpdateEnabledBaselines
 111:Generated_Source\PSoC5/CapSense_CSD_TunerHelper.c ****             CapSense_CSD_ProcessAllWidgets(&CapSense_CSD_mailboxesComm.csdMailbox.outbox);
 100              		.loc 1 111 0
 101 0018 1048     		ldr	r0, .L8+4
 102 001a FFF7FEFF 		bl	CapSense_CSD_ProcessAllWidgets
 112:Generated_Source\PSoC5/CapSense_CSD_TunerHelper.c ****             CapSense_CSD_PostMessage(&CapSense_CSD_mailboxesComm.csdMailbox);
 103              		.loc 1 112 0
 104 001e 0E48     		ldr	r0, .L8
 105 0020 FFF7FEFF 		bl	CapSense_CSD_PostMessage
 113:Generated_Source\PSoC5/CapSense_CSD_TunerHelper.c **** 
 114:Generated_Source\PSoC5/CapSense_CSD_TunerHelper.c ****             /* Enable EZI2C interrupts, after scan complete */
 115:Generated_Source\PSoC5/CapSense_CSD_TunerHelper.c ****             EZI2C_1_EnableInt();
 106              		.loc 1 115 0
 107 0024 0E4B     		ldr	r3, .L8+8
 108 0026 4FF40042 		mov	r2, #32768
 109 002a 1A60     		str	r2, [r3]
 116:Generated_Source\PSoC5/CapSense_CSD_TunerHelper.c **** 
 117:Generated_Source\PSoC5/CapSense_CSD_TunerHelper.c ****             while((CapSense_CSD_mailboxesComm.csdMailbox.type != CapSense_CSD_TYPE_ID) || \
 110              		.loc 1 117 0
 111 002c 00BF     		nop
ARM GAS  C:\Users\nikol\AppData\Local\Temp\cc1KNWqq.s 			page 5


 112              	.L6:
 113              		.loc 1 117 0 is_stmt 0 discriminator 3
 114 002e 0D4B     		ldr	r3, .L8+12
 115 0030 5B78     		ldrb	r3, [r3, #1]
 116 0032 DBB2     		uxtb	r3, r3
 117 0034 042B     		cmp	r3, #4
 118 0036 FAD1     		bne	.L6
 118:Generated_Source\PSoC5/CapSense_CSD_TunerHelper.c ****                   ((EZI2C_1_GetActivity() & EZI2C_1_STATUS_BUSY) != 0u)){}
 119              		.loc 1 118 0 is_stmt 1 discriminator 2
 120 0038 FFF7FEFF 		bl	EZI2C_1_GetActivity
 121 003c 0346     		mov	r3, r0
 122 003e 03F01003 		and	r3, r3, #16
 117:Generated_Source\PSoC5/CapSense_CSD_TunerHelper.c ****                   ((EZI2C_1_GetActivity() & EZI2C_1_STATUS_BUSY) != 0u)){}
 123              		.loc 1 117 0 discriminator 2
 124 0042 002B     		cmp	r3, #0
 125 0044 F3D1     		bne	.L6
 119:Generated_Source\PSoC5/CapSense_CSD_TunerHelper.c ****             
 120:Generated_Source\PSoC5/CapSense_CSD_TunerHelper.c ****             /* Disable EZI2C interrupts, while scanning */
 121:Generated_Source\PSoC5/CapSense_CSD_TunerHelper.c ****             EZI2C_1_DisableInt();
 126              		.loc 1 121 0
 127 0046 084B     		ldr	r3, .L8+16
 128 0048 4FF40042 		mov	r2, #32768
 129 004c 1A60     		str	r2, [r3]
 122:Generated_Source\PSoC5/CapSense_CSD_TunerHelper.c ****             
 123:Generated_Source\PSoC5/CapSense_CSD_TunerHelper.c ****             /* Start scan all sensors */
 124:Generated_Source\PSoC5/CapSense_CSD_TunerHelper.c ****             CapSense_CSD_ScanEnabledWidgets();
 130              		.loc 1 124 0
 131 004e FFF7FEFF 		bl	CapSense_CSD_ScanEnabledWidgets
 132              	.L7:
 125:Generated_Source\PSoC5/CapSense_CSD_TunerHelper.c ****         }
 126:Generated_Source\PSoC5/CapSense_CSD_TunerHelper.c ****     #endif /* (CapSense_CSD_TUNER_API_GENERATE) */
 127:Generated_Source\PSoC5/CapSense_CSD_TunerHelper.c **** }
 133              		.loc 1 127 0
 134 0052 00BF     		nop
 135 0054 80BD     		pop	{r7, pc}
 136              	.L9:
 137 0056 00BF     		.align	2
 138              	.L8:
 139 0058 01000000 		.word	CapSense_CSD_mailboxesComm+1
 140 005c 04000000 		.word	CapSense_CSD_mailboxesComm+4
 141 0060 00E100E0 		.word	-536813312
 142 0064 00000000 		.word	CapSense_CSD_mailboxesComm
 143 0068 80E100E0 		.word	-536813184
 144              		.cfi_endproc
 145              	.LFE1:
 146              		.size	CapSense_CSD_TunerComm, .-CapSense_CSD_TunerComm
 147              		.section	.text.CapSense_CSD_ProcessAllWidgets,"ax",%progbits
 148              		.align	2
 149              		.global	CapSense_CSD_ProcessAllWidgets
 150              		.thumb
 151              		.thumb_func
 152              		.type	CapSense_CSD_ProcessAllWidgets, %function
 153              	CapSense_CSD_ProcessAllWidgets:
 154              	.LFB2:
 128:Generated_Source\PSoC5/CapSense_CSD_TunerHelper.c **** 
 129:Generated_Source\PSoC5/CapSense_CSD_TunerHelper.c **** 
 130:Generated_Source\PSoC5/CapSense_CSD_TunerHelper.c **** #if (CapSense_CSD_TUNER_API_GENERATE)
ARM GAS  C:\Users\nikol\AppData\Local\Temp\cc1KNWqq.s 			page 6


 131:Generated_Source\PSoC5/CapSense_CSD_TunerHelper.c ****     /*******************************************************************************
 132:Generated_Source\PSoC5/CapSense_CSD_TunerHelper.c ****     * Function Name: CapSense_CSD_ProcessAllWidgets
 133:Generated_Source\PSoC5/CapSense_CSD_TunerHelper.c ****     ********************************************************************************
 134:Generated_Source\PSoC5/CapSense_CSD_TunerHelper.c ****     *
 135:Generated_Source\PSoC5/CapSense_CSD_TunerHelper.c ****     * Summary:
 136:Generated_Source\PSoC5/CapSense_CSD_TunerHelper.c ****     *  Call required functions to update all widgets state:
 137:Generated_Source\PSoC5/CapSense_CSD_TunerHelper.c ****     *   - CapSense_CSD_GetCentroidPos() - calls only if linear sliders 
 138:Generated_Source\PSoC5/CapSense_CSD_TunerHelper.c ****     *     available.
 139:Generated_Source\PSoC5/CapSense_CSD_TunerHelper.c ****     *   - CapSense_CSD_GetRadialCentroidPos() - calls only if radial slider 
 140:Generated_Source\PSoC5/CapSense_CSD_TunerHelper.c ****     *     available.
 141:Generated_Source\PSoC5/CapSense_CSD_TunerHelper.c ****     *   - CapSense_CSD_GetTouchCentroidPos() - calls only if touch pad slider 
 142:Generated_Source\PSoC5/CapSense_CSD_TunerHelper.c ****     *     available.
 143:Generated_Source\PSoC5/CapSense_CSD_TunerHelper.c ****     *   - CapSense_CSD_CheckIsAnyWidgetActive();
 144:Generated_Source\PSoC5/CapSense_CSD_TunerHelper.c ****     *  The results of opeartions are copied to OUTBOX.
 145:Generated_Source\PSoC5/CapSense_CSD_TunerHelper.c ****     *   
 146:Generated_Source\PSoC5/CapSense_CSD_TunerHelper.c ****     * Parameters:
 147:Generated_Source\PSoC5/CapSense_CSD_TunerHelper.c ****     *  None
 148:Generated_Source\PSoC5/CapSense_CSD_TunerHelper.c ****     *
 149:Generated_Source\PSoC5/CapSense_CSD_TunerHelper.c ****     * Return:
 150:Generated_Source\PSoC5/CapSense_CSD_TunerHelper.c ****     *  None
 151:Generated_Source\PSoC5/CapSense_CSD_TunerHelper.c ****     *
 152:Generated_Source\PSoC5/CapSense_CSD_TunerHelper.c ****     * Global Variables:
 153:Generated_Source\PSoC5/CapSense_CSD_TunerHelper.c ****     *  CapSense_CSD_OUTBOX outbox - structure which is used as ouput 
 154:Generated_Source\PSoC5/CapSense_CSD_TunerHelper.c ****     *  buffer for report data to Tuner GUI.
 155:Generated_Source\PSoC5/CapSense_CSD_TunerHelper.c ****     *  Update fields:
 156:Generated_Source\PSoC5/CapSense_CSD_TunerHelper.c ****     *    - position[];
 157:Generated_Source\PSoC5/CapSense_CSD_TunerHelper.c ****     *    - OnMask[];
 158:Generated_Source\PSoC5/CapSense_CSD_TunerHelper.c ****     *
 159:Generated_Source\PSoC5/CapSense_CSD_TunerHelper.c ****     * Reentrant:
 160:Generated_Source\PSoC5/CapSense_CSD_TunerHelper.c ****     *  No
 161:Generated_Source\PSoC5/CapSense_CSD_TunerHelper.c ****     *
 162:Generated_Source\PSoC5/CapSense_CSD_TunerHelper.c ****     *******************************************************************************/
 163:Generated_Source\PSoC5/CapSense_CSD_TunerHelper.c ****     void CapSense_CSD_ProcessAllWidgets(volatile CapSense_CSD_OUTBOX *outbox)
 164:Generated_Source\PSoC5/CapSense_CSD_TunerHelper.c **** 	                                        
 165:Generated_Source\PSoC5/CapSense_CSD_TunerHelper.c ****     {
 155              		.loc 1 165 0
 156              		.cfi_startproc
 157              		@ args = 0, pretend = 0, frame = 16
 158              		@ frame_needed = 1, uses_anonymous_args = 0
 159 0000 80B5     		push	{r7, lr}
 160              		.cfi_def_cfa_offset 8
 161              		.cfi_offset 7, -8
 162              		.cfi_offset 14, -4
 163 0002 84B0     		sub	sp, sp, #16
 164              		.cfi_def_cfa_offset 24
 165 0004 00AF     		add	r7, sp, #0
 166              		.cfi_def_cfa_register 7
 167 0006 7860     		str	r0, [r7, #4]
 166:Generated_Source\PSoC5/CapSense_CSD_TunerHelper.c ****         uint8 i = 0u;
 168              		.loc 1 166 0
 169 0008 0023     		movs	r3, #0
 170 000a FB73     		strb	r3, [r7, #15]
 167:Generated_Source\PSoC5/CapSense_CSD_TunerHelper.c **** 		#if (CapSense_CSD_TOTAL_MATRIX_BUTTONS_COUNT)
 168:Generated_Source\PSoC5/CapSense_CSD_TunerHelper.c ****         	volatile uint8 *mbPositionAddr;
 169:Generated_Source\PSoC5/CapSense_CSD_TunerHelper.c **** 		#endif /* (CapSense_CSD_TOTAL_MATRIX_BUTTONS_COUNT) */
 170:Generated_Source\PSoC5/CapSense_CSD_TunerHelper.c **** 
 171:Generated_Source\PSoC5/CapSense_CSD_TunerHelper.c ****         #if (CapSense_CSD_TOTAL_TOUCH_PADS_COUNT)
ARM GAS  C:\Users\nikol\AppData\Local\Temp\cc1KNWqq.s 			page 7


 172:Generated_Source\PSoC5/CapSense_CSD_TunerHelper.c ****             uint16 pos[2];
 173:Generated_Source\PSoC5/CapSense_CSD_TunerHelper.c ****         #endif  /* (CapSense_CSD_TOTAL_TOUCH_PADS_COUNT) */
 174:Generated_Source\PSoC5/CapSense_CSD_TunerHelper.c ****         
 175:Generated_Source\PSoC5/CapSense_CSD_TunerHelper.c ****         #if ( (CapSense_CSD_TOTAL_RADIAL_SLIDERS_COUNT) || (CapSense_CSD_TOTAL_TOUCH_PADS_COUNT) ||
 176:Generated_Source\PSoC5/CapSense_CSD_TunerHelper.c ****               (CapSense_CSD_TOTAL_MATRIX_BUTTONS_COUNT) )
 177:Generated_Source\PSoC5/CapSense_CSD_TunerHelper.c ****             uint8 widgetCnt;
 178:Generated_Source\PSoC5/CapSense_CSD_TunerHelper.c ****         #endif  /* ((CapSense_CSD_TOTAL_RADIAL_SLIDERS_COUNT) || (CapSense_CSD_TOTAL_TOUCH_PADS_COU
 179:Generated_Source\PSoC5/CapSense_CSD_TunerHelper.c ****                 *   (CapSense_CSD_TOTAL_MATRIX_BUTTONS_COUNT)
 180:Generated_Source\PSoC5/CapSense_CSD_TunerHelper.c ****                 */
 181:Generated_Source\PSoC5/CapSense_CSD_TunerHelper.c ****         
 182:Generated_Source\PSoC5/CapSense_CSD_TunerHelper.c ****         /* Calculate widget with centroids */
 183:Generated_Source\PSoC5/CapSense_CSD_TunerHelper.c ****         #if (CapSense_CSD_TOTAL_LINEAR_SLIDERS_COUNT)
 184:Generated_Source\PSoC5/CapSense_CSD_TunerHelper.c ****             for(; i < CapSense_CSD_TOTAL_LINEAR_SLIDERS_COUNT; i++)
 185:Generated_Source\PSoC5/CapSense_CSD_TunerHelper.c ****             {
 186:Generated_Source\PSoC5/CapSense_CSD_TunerHelper.c ****                 outbox->position[i] = CapSense_CSD_SWAP_ENDIAN16(CapSense_CSD_GetCentroidPos(i));
 187:Generated_Source\PSoC5/CapSense_CSD_TunerHelper.c ****             }
 188:Generated_Source\PSoC5/CapSense_CSD_TunerHelper.c ****         #endif /* (CapSense_CSD_TOTAL_LINEAR_SLIDERS_COUNT) */
 189:Generated_Source\PSoC5/CapSense_CSD_TunerHelper.c ****         
 190:Generated_Source\PSoC5/CapSense_CSD_TunerHelper.c ****         #if (CapSense_CSD_TOTAL_RADIAL_SLIDERS_COUNT)
 191:Generated_Source\PSoC5/CapSense_CSD_TunerHelper.c ****             widgetCnt = i;
 192:Generated_Source\PSoC5/CapSense_CSD_TunerHelper.c ****             for(; i < (widgetCnt + CapSense_CSD_TOTAL_RADIAL_SLIDERS_COUNT); i++)
 193:Generated_Source\PSoC5/CapSense_CSD_TunerHelper.c ****             {
 194:Generated_Source\PSoC5/CapSense_CSD_TunerHelper.c ****                 outbox->position[i] = CapSense_CSD_SWAP_ENDIAN16(CapSense_CSD_GetRadialCentroidPos(
 195:Generated_Source\PSoC5/CapSense_CSD_TunerHelper.c ****             }
 196:Generated_Source\PSoC5/CapSense_CSD_TunerHelper.c ****         #endif /* (CapSense_CSD_TOTAL_RADIAL_SLIDERS_COUNT) */
 197:Generated_Source\PSoC5/CapSense_CSD_TunerHelper.c ****         
 198:Generated_Source\PSoC5/CapSense_CSD_TunerHelper.c ****         #if (CapSense_CSD_TOTAL_TOUCH_PADS_COUNT)
 199:Generated_Source\PSoC5/CapSense_CSD_TunerHelper.c ****             widgetCnt = i;
 200:Generated_Source\PSoC5/CapSense_CSD_TunerHelper.c ****             for(; i < (widgetCnt + (CapSense_CSD_TOTAL_TOUCH_PADS_COUNT * 2u)); i = (i+2u))
 201:Generated_Source\PSoC5/CapSense_CSD_TunerHelper.c ****             {
 202:Generated_Source\PSoC5/CapSense_CSD_TunerHelper.c ****                 if(CapSense_CSD_GetTouchCentroidPos(i, pos) == 0u)
 203:Generated_Source\PSoC5/CapSense_CSD_TunerHelper.c ****                 {
 204:Generated_Source\PSoC5/CapSense_CSD_TunerHelper.c ****                     outbox->position[i] = 0xFFFFu;
 205:Generated_Source\PSoC5/CapSense_CSD_TunerHelper.c ****                     outbox->position[i+1u] = 0xFFFFu;
 206:Generated_Source\PSoC5/CapSense_CSD_TunerHelper.c ****                 }
 207:Generated_Source\PSoC5/CapSense_CSD_TunerHelper.c ****                 else
 208:Generated_Source\PSoC5/CapSense_CSD_TunerHelper.c ****                 {
 209:Generated_Source\PSoC5/CapSense_CSD_TunerHelper.c ****                     outbox->position[i] = CapSense_CSD_SWAP_ENDIAN16( (uint16) pos[0u]);
 210:Generated_Source\PSoC5/CapSense_CSD_TunerHelper.c ****                     outbox->position[i+1u] = CapSense_CSD_SWAP_ENDIAN16( (uint16) pos[1u]);
 211:Generated_Source\PSoC5/CapSense_CSD_TunerHelper.c ****                 }
 212:Generated_Source\PSoC5/CapSense_CSD_TunerHelper.c ****             }
 213:Generated_Source\PSoC5/CapSense_CSD_TunerHelper.c ****         #endif /* (CapSense_CSD_TOTAL_TOUCH_PADS_COUNT) */
 214:Generated_Source\PSoC5/CapSense_CSD_TunerHelper.c **** 
 215:Generated_Source\PSoC5/CapSense_CSD_TunerHelper.c ****         #if (CapSense_CSD_TOTAL_MATRIX_BUTTONS_COUNT)
 216:Generated_Source\PSoC5/CapSense_CSD_TunerHelper.c ****             i += CapSense_CSD_TOTAL_BUTTONS_COUNT;
 217:Generated_Source\PSoC5/CapSense_CSD_TunerHelper.c ****             widgetCnt = 0u;
 218:Generated_Source\PSoC5/CapSense_CSD_TunerHelper.c ****             for(; widgetCnt < (CapSense_CSD_TOTAL_MATRIX_BUTTONS_COUNT * 2u); widgetCnt += 2u)
 219:Generated_Source\PSoC5/CapSense_CSD_TunerHelper.c ****             {
 220:Generated_Source\PSoC5/CapSense_CSD_TunerHelper.c ****                 mbPositionAddr = &outbox->mbPosition[widgetCnt];
 221:Generated_Source\PSoC5/CapSense_CSD_TunerHelper.c ****                 if(CapSense_CSD_GetMatrixButtonPos(i, ((uint8*) mbPositionAddr)) == 0u)
 222:Generated_Source\PSoC5/CapSense_CSD_TunerHelper.c ****                 {
 223:Generated_Source\PSoC5/CapSense_CSD_TunerHelper.c ****                     outbox->mbPosition[widgetCnt] = 0xFFu;
 224:Generated_Source\PSoC5/CapSense_CSD_TunerHelper.c ****                     outbox->mbPosition[widgetCnt+1u] = 0xFFu;
 225:Generated_Source\PSoC5/CapSense_CSD_TunerHelper.c ****                 }
 226:Generated_Source\PSoC5/CapSense_CSD_TunerHelper.c ****                 i += 2u;
 227:Generated_Source\PSoC5/CapSense_CSD_TunerHelper.c ****             }
 228:Generated_Source\PSoC5/CapSense_CSD_TunerHelper.c ****         #endif /* (CapSense_CSD_TOTAL_MATRIX_BUTTONS_COUNT) */
ARM GAS  C:\Users\nikol\AppData\Local\Temp\cc1KNWqq.s 			page 8


 229:Generated_Source\PSoC5/CapSense_CSD_TunerHelper.c **** 
 230:Generated_Source\PSoC5/CapSense_CSD_TunerHelper.c ****         /* Update On/Off State */
 231:Generated_Source\PSoC5/CapSense_CSD_TunerHelper.c ****         (void)CapSense_CSD_CheckIsAnyWidgetActive();
 171              		.loc 1 231 0
 172 000c FFF7FEFF 		bl	CapSense_CSD_CheckIsAnyWidgetActive
 232:Generated_Source\PSoC5/CapSense_CSD_TunerHelper.c **** 
 233:Generated_Source\PSoC5/CapSense_CSD_TunerHelper.c ****         /* Copy OnMask */
 234:Generated_Source\PSoC5/CapSense_CSD_TunerHelper.c ****         for(i = 0u; i < CapSense_CSD_TOTAL_SENSOR_MASK_COUNT; i++)
 173              		.loc 1 234 0
 174 0010 0023     		movs	r3, #0
 175 0012 FB73     		strb	r3, [r7, #15]
 176 0014 0AE0     		b	.L11
 177              	.L12:
 235:Generated_Source\PSoC5/CapSense_CSD_TunerHelper.c ****         {
 236:Generated_Source\PSoC5/CapSense_CSD_TunerHelper.c ****             outbox->onMask[i]  = CapSense_CSD_sensorOnMask[i];
 178              		.loc 1 236 0 discriminator 3
 179 0016 FB7B     		ldrb	r3, [r7, #15]	@ zero_extendqisi2
 180 0018 FA7B     		ldrb	r2, [r7, #15]	@ zero_extendqisi2
 181 001a 0849     		ldr	r1, .L13
 182 001c 895C     		ldrb	r1, [r1, r2]	@ zero_extendqisi2
 183 001e 7A68     		ldr	r2, [r7, #4]
 184 0020 1344     		add	r3, r3, r2
 185 0022 0A46     		mov	r2, r1
 186 0024 5A71     		strb	r2, [r3, #5]
 234:Generated_Source\PSoC5/CapSense_CSD_TunerHelper.c ****         {
 187              		.loc 1 234 0 discriminator 3
 188 0026 FB7B     		ldrb	r3, [r7, #15]	@ zero_extendqisi2
 189 0028 0133     		adds	r3, r3, #1
 190 002a FB73     		strb	r3, [r7, #15]
 191              	.L11:
 234:Generated_Source\PSoC5/CapSense_CSD_TunerHelper.c ****         {
 192              		.loc 1 234 0 is_stmt 0 discriminator 1
 193 002c FB7B     		ldrb	r3, [r7, #15]	@ zero_extendqisi2
 194 002e 002B     		cmp	r3, #0
 195 0030 F1D0     		beq	.L12
 237:Generated_Source\PSoC5/CapSense_CSD_TunerHelper.c ****         }
 238:Generated_Source\PSoC5/CapSense_CSD_TunerHelper.c ****     }
 196              		.loc 1 238 0 is_stmt 1
 197 0032 00BF     		nop
 198 0034 1037     		adds	r7, r7, #16
 199              		.cfi_def_cfa_offset 8
 200 0036 BD46     		mov	sp, r7
 201              		.cfi_def_cfa_register 13
 202              		@ sp needed
 203 0038 80BD     		pop	{r7, pc}
 204              	.L14:
 205 003a 00BF     		.align	2
 206              	.L13:
 207 003c 00000000 		.word	CapSense_CSD_sensorOnMask
 208              		.cfi_endproc
 209              	.LFE2:
 210              		.size	CapSense_CSD_ProcessAllWidgets, .-CapSense_CSD_ProcessAllWidgets
 211              		.text
 212              	.Letext0:
 213              		.file 2 "Generated_Source\\PSoC5\\cytypes.h"
 214              		.file 3 "Generated_Source\\PSoC5\\CapSense_CSD_MBX.h"
 215              		.file 4 "Generated_Source\\PSoC5\\CapSense_CSD_CSHL.h"
ARM GAS  C:\Users\nikol\AppData\Local\Temp\cc1KNWqq.s 			page 9

