ARM GAS  C:\Users\marti\AppData\Local\Temp\ccf3GVMl.s 			page 1


   1              		.syntax unified
   2              		.cpu cortex-m3
   3              		.fpu softvfp
   4              		.eabi_attribute 20, 1
   5              		.eabi_attribute 21, 1
   6              		.eabi_attribute 23, 3
   7              		.eabi_attribute 24, 1
   8              		.eabi_attribute 25, 1
   9              		.eabi_attribute 26, 1
  10              		.eabi_attribute 30, 1
  11              		.eabi_attribute 34, 1
  12              		.eabi_attribute 18, 4
  13              		.thumb
  14              		.syntax unified
  15              		.file	"CupLight_IF.c"
  16              		.text
  17              	.Ltext0:
  18              		.cfi_sections	.debug_frame
  19              		.section	.text.controlLight,"ax",%progbits
  20              		.align	2
  21              		.global	controlLight
  22              		.thumb
  23              		.thumb_func
  24              		.type	controlLight, %function
  25              	controlLight:
  26              	.LFB63:
  27              		.file 1 "CupLight_IF.c"
   1:CupLight_IF.c **** /* ========================================
   2:CupLight_IF.c ****  *
   3:CupLight_IF.c ****  * Copyright YOUR COMPANY, THE YEAR
   4:CupLight_IF.c ****  * All Rights Reserved
   5:CupLight_IF.c ****  * UNPUBLISHED, LICENSED SOFTWARE.
   6:CupLight_IF.c ****  *
   7:CupLight_IF.c ****  * CONFIDENTIAL AND PROPRIETARY INFORMATION
   8:CupLight_IF.c ****  * WHICH IS THE PROPERTY OF your company.
   9:CupLight_IF.c ****  *
  10:CupLight_IF.c ****  * ========================================
  11:CupLight_IF.c **** */
  12:CupLight_IF.c **** #include "CupLight_IF.h"
  13:CupLight_IF.c **** 
  14:CupLight_IF.c **** void controlLight(uint8_t nr, color_t color)
  15:CupLight_IF.c **** {
  28              		.loc 1 15 0
  29              		.cfi_startproc
  30              		@ args = 0, pretend = 0, frame = 8
  31              		@ frame_needed = 0, uses_anonymous_args = 0
  32              	.LVL0:
  33 0000 10B5     		push	{r4, lr}
  34              		.cfi_def_cfa_offset 8
  35              		.cfi_offset 4, -8
  36              		.cfi_offset 14, -4
  37 0002 82B0     		sub	sp, sp, #8
  38              		.cfi_def_cfa_offset 16
  39 0004 0191     		str	r1, [sp, #4]
  16:CupLight_IF.c ****     if (nr < NUMLEDS)
  40              		.loc 1 16 0
  41 0006 C8B9     		cbnz	r0, .L1
ARM GAS  C:\Users\marti\AppData\Local\Temp\ccf3GVMl.s 			page 2


  42              	.LBB2:
  17:CupLight_IF.c ****     {
  18:CupLight_IF.c ****         uint8_t shiftRegPos = 3*nr;
  43              		.loc 1 18 0
  44 0008 00EB4004 		add	r4, r0, r0, lsl #1
  45 000c E4B2     		uxtb	r4, r4
  46              	.LVL1:
  19:CupLight_IF.c ****         setPin(shiftRegPos,~color.Red);
  47              		.loc 1 19 0
  48 000e 9DF80410 		ldrb	r1, [sp, #4]	@ zero_extendqisi2
  49 0012 C943     		mvns	r1, r1
  50 0014 C9B2     		uxtb	r1, r1
  51 0016 2046     		mov	r0, r4
  52              	.LVL2:
  53 0018 FFF7FEFF 		bl	setPin
  54              	.LVL3:
  20:CupLight_IF.c ****         setPin(shiftRegPos+1,~color.Green);
  55              		.loc 1 20 0
  56 001c 9DF80510 		ldrb	r1, [sp, #5]	@ zero_extendqisi2
  57 0020 C943     		mvns	r1, r1
  58 0022 601C     		adds	r0, r4, #1
  59 0024 C9B2     		uxtb	r1, r1
  60 0026 C0B2     		uxtb	r0, r0
  61 0028 FFF7FEFF 		bl	setPin
  62              	.LVL4:
  21:CupLight_IF.c ****         setPin(shiftRegPos+2,~color.Blue);
  63              		.loc 1 21 0
  64 002c 9DF80610 		ldrb	r1, [sp, #6]	@ zero_extendqisi2
  65 0030 C943     		mvns	r1, r1
  66 0032 A01C     		adds	r0, r4, #2
  67 0034 C9B2     		uxtb	r1, r1
  68 0036 C0B2     		uxtb	r0, r0
  69 0038 FFF7FEFF 		bl	setPin
  70              	.LVL5:
  71              	.L1:
  72              	.LBE2:
  22:CupLight_IF.c ****     }
  23:CupLight_IF.c **** }
  73              		.loc 1 23 0
  74 003c 02B0     		add	sp, sp, #8
  75              		.cfi_def_cfa_offset 8
  76              		@ sp needed
  77 003e 10BD     		pop	{r4, pc}
  78              		.cfi_endproc
  79              	.LFE63:
  80              		.size	controlLight, .-controlLight
  81              		.section	.text.controlAllLights,"ax",%progbits
  82              		.align	2
  83              		.global	controlAllLights
  84              		.thumb
  85              		.thumb_func
  86              		.type	controlAllLights, %function
  87              	controlAllLights:
  88              	.LFB64:
  24:CupLight_IF.c **** 
  25:CupLight_IF.c **** void controlAllLights(color_t color)
  26:CupLight_IF.c **** {
ARM GAS  C:\Users\marti\AppData\Local\Temp\ccf3GVMl.s 			page 3


  89              		.loc 1 26 0
  90              		.cfi_startproc
  91              		@ args = 0, pretend = 0, frame = 8
  92              		@ frame_needed = 0, uses_anonymous_args = 0
  93 0000 10B5     		push	{r4, lr}
  94              		.cfi_def_cfa_offset 8
  95              		.cfi_offset 4, -8
  96              		.cfi_offset 14, -4
  97 0002 82B0     		sub	sp, sp, #8
  98              		.cfi_def_cfa_offset 16
  99 0004 0190     		str	r0, [sp, #4]
 100              	.LVL6:
 101              	.LBB3:
  27:CupLight_IF.c ****     for (uint8_t i = 0; i < NUMLEDS; i++){
 102              		.loc 1 27 0
 103 0006 0024     		movs	r4, #0
 104 0008 05E0     		b	.L5
 105              	.LVL7:
 106              	.L6:
  28:CupLight_IF.c ****          controlLight(i,color);
 107              		.loc 1 28 0 discriminator 3
 108 000a 0199     		ldr	r1, [sp, #4]
 109 000c 2046     		mov	r0, r4
 110 000e FFF7FEFF 		bl	controlLight
 111              	.LVL8:
  27:CupLight_IF.c ****     for (uint8_t i = 0; i < NUMLEDS; i++){
 112              		.loc 1 27 0 discriminator 3
 113 0012 0134     		adds	r4, r4, #1
 114              	.LVL9:
 115 0014 E4B2     		uxtb	r4, r4
 116              	.LVL10:
 117              	.L5:
  27:CupLight_IF.c ****     for (uint8_t i = 0; i < NUMLEDS; i++){
 118              		.loc 1 27 0 is_stmt 0 discriminator 1
 119 0016 002C     		cmp	r4, #0
 120 0018 F7D0     		beq	.L6
 121              	.LBE3:
  29:CupLight_IF.c ****     }
  30:CupLight_IF.c **** }
 122              		.loc 1 30 0 is_stmt 1
 123 001a 02B0     		add	sp, sp, #8
 124              		.cfi_def_cfa_offset 8
 125              		@ sp needed
 126 001c 10BD     		pop	{r4, pc}
 127              		.cfi_endproc
 128              	.LFE64:
 129              		.size	controlAllLights, .-controlAllLights
 130 001e 00BF     		.text
 131              	.Letext0:
 132              		.file 2 "c:\\program files (x86)\\cypress\\psoc creator\\4.2\\psoc creator\\import\\gnu\\arm\\5.4.
 133              		.file 3 "c:\\program files (x86)\\cypress\\psoc creator\\4.2\\psoc creator\\import\\gnu\\arm\\5.4.
 134              		.file 4 "CupLight_IF.h"
 135              		.file 5 "Generated_Source\\PSoC5/core_cm3.h"
 136              		.file 6 "ShiftRegPWM.h"