ARM GAS  C:\Users\marti\AppData\Local\Temp\ccUuhPsH.s 			page 1


   1              		.syntax unified
   2              		.cpu cortex-m3
   3              		.fpu softvfp
   4              		.eabi_attribute 20, 1
   5              		.eabi_attribute 21, 1
   6              		.eabi_attribute 23, 3
   7              		.eabi_attribute 24, 1
   8              		.eabi_attribute 25, 1
   9              		.eabi_attribute 26, 1
  10              		.eabi_attribute 30, 1
  11              		.eabi_attribute 34, 1
  12              		.eabi_attribute 18, 4
  13              		.thumb
  14              		.syntax unified
  15              		.file	"RPI_IF.c"
  16              		.text
  17              	.Ltext0:
  18              		.cfi_sections	.debug_frame
  19              		.section	.text.resetReadBuffer,"ax",%progbits
  20              		.align	2
  21              		.global	resetReadBuffer
  22              		.thumb
  23              		.thumb_func
  24              		.type	resetReadBuffer, %function
  25              	resetReadBuffer:
  26              	.LFB65:
  27              		.file 1 "RPI_IF.c"
   1:RPI_IF.c      **** /* ========================================
   2:RPI_IF.c      ****  *
   3:RPI_IF.c      ****  * Copyright YOUR COMPANY, THE YEAR
   4:RPI_IF.c      ****  * All Rights Reserved
   5:RPI_IF.c      ****  * UNPUBLISHED, LICENSED SOFTWARE.
   6:RPI_IF.c      ****  *
   7:RPI_IF.c      ****  * CONFIDENTIAL AND PROPRIETARY INFORMATION
   8:RPI_IF.c      ****  * WHICH IS THE PROPERTY OF your company.
   9:RPI_IF.c      ****  *
  10:RPI_IF.c      ****  * ========================================
  11:RPI_IF.c      **** */
  12:RPI_IF.c      **** 
  13:RPI_IF.c      **** #include "RPI_IF.h"
  14:RPI_IF.c      **** #include <string.h>
  15:RPI_IF.c      **** #include <stdio.h>
  16:RPI_IF.c      **** 
  17:RPI_IF.c      **** #define IDLE_DATA 0x0A
  18:RPI_IF.c      **** #define STARTING_DATA 0x0B
  19:RPI_IF.c      **** #define PLAYING_DATA 0x0C
  20:RPI_IF.c      **** #define LOST_DATA 0x0D
  21:RPI_IF.c      **** #define WON_DATA 0x0E
  22:RPI_IF.c      **** #define COLOR_MSG 0x21
  23:RPI_IF.c      **** #define OPPONENT_COLOR 0x02
  24:RPI_IF.c      **** #define OWN_COLOR 0x01
  25:RPI_IF.c      **** 
  26:RPI_IF.c      **** 
  27:RPI_IF.c      **** void resetReadBuffer();
  28:RPI_IF.c      **** void resetWriteBuffer();
  29:RPI_IF.c      **** 
  30:RPI_IF.c      **** static char buf[50];
ARM GAS  C:\Users\marti\AppData\Local\Temp\ccUuhPsH.s 			page 2


  31:RPI_IF.c      **** int n;
  32:RPI_IF.c      **** volatile int timer_run_out=0;
  33:RPI_IF.c      **** 
  34:RPI_IF.c      **** uint8_t readBuffer[256];
  35:RPI_IF.c      **** uint8_t writeBuffer[256];
  36:RPI_IF.c      **** 
  37:RPI_IF.c      **** 
  38:RPI_IF.c      **** void RPI_IF_init()
  39:RPI_IF.c      **** {
  40:RPI_IF.c      ****     I2C_Start();
  41:RPI_IF.c      ****     I2C_EnableInt();
  42:RPI_IF.c      ****     
  43:RPI_IF.c      ****     
  44:RPI_IF.c      ****     I2C_SlaveInitReadBuf((uint8_t*)readBuffer,255);
  45:RPI_IF.c      ****     I2C_SlaveInitWriteBuf((uint8_t*)writeBuffer,255);
  46:RPI_IF.c      ****     
  47:RPI_IF.c      ****     resetReadBuffer();
  48:RPI_IF.c      **** 
  49:RPI_IF.c      **** }
  50:RPI_IF.c      **** 
  51:RPI_IF.c      **** void resetReadBuffer()
  52:RPI_IF.c      **** {
  28              		.loc 1 52 0
  29              		.cfi_startproc
  30              		@ args = 0, pretend = 0, frame = 0
  31              		@ frame_needed = 0, uses_anonymous_args = 0
  32              		@ link register save eliminated.
  33              	.LVL0:
  34              	.LBB2:
  53:RPI_IF.c      ****     for(int i = 0; i < 255; i++)
  35              		.loc 1 53 0
  36 0000 0023     		movs	r3, #0
  37 0002 03E0     		b	.L2
  38              	.LVL1:
  39              	.L3:
  54:RPI_IF.c      ****     {
  55:RPI_IF.c      ****         readBuffer[i] = 0xFF;
  40              		.loc 1 55 0 discriminator 3
  41 0004 FF21     		movs	r1, #255
  42 0006 034A     		ldr	r2, .L4
  43 0008 D154     		strb	r1, [r2, r3]
  53:RPI_IF.c      ****     for(int i = 0; i < 255; i++)
  44              		.loc 1 53 0 discriminator 3
  45 000a 0133     		adds	r3, r3, #1
  46              	.LVL2:
  47              	.L2:
  53:RPI_IF.c      ****     for(int i = 0; i < 255; i++)
  48              		.loc 1 53 0 is_stmt 0 discriminator 1
  49 000c FE2B     		cmp	r3, #254
  50 000e F9DD     		ble	.L3
  51              	.LBE2:
  56:RPI_IF.c      ****     }
  57:RPI_IF.c      ****  
  58:RPI_IF.c      **** }
  52              		.loc 1 58 0 is_stmt 1
  53 0010 7047     		bx	lr
  54              	.L5:
ARM GAS  C:\Users\marti\AppData\Local\Temp\ccUuhPsH.s 			page 3


  55 0012 00BF     		.align	2
  56              	.L4:
  57 0014 00000000 		.word	readBuffer
  58              		.cfi_endproc
  59              	.LFE65:
  60              		.size	resetReadBuffer, .-resetReadBuffer
  61              		.section	.text.RPI_IF_init,"ax",%progbits
  62              		.align	2
  63              		.global	RPI_IF_init
  64              		.thumb
  65              		.thumb_func
  66              		.type	RPI_IF_init, %function
  67              	RPI_IF_init:
  68              	.LFB64:
  39:RPI_IF.c      ****     I2C_Start();
  69              		.loc 1 39 0
  70              		.cfi_startproc
  71              		@ args = 0, pretend = 0, frame = 0
  72              		@ frame_needed = 0, uses_anonymous_args = 0
  73 0000 08B5     		push	{r3, lr}
  74              		.cfi_def_cfa_offset 8
  75              		.cfi_offset 3, -8
  76              		.cfi_offset 14, -4
  40:RPI_IF.c      ****     I2C_EnableInt();
  77              		.loc 1 40 0
  78 0002 FFF7FEFF 		bl	I2C_Start
  79              	.LVL3:
  41:RPI_IF.c      ****     
  80              		.loc 1 41 0
  81 0006 0122     		movs	r2, #1
  82 0008 064B     		ldr	r3, .L8
  83 000a 1A60     		str	r2, [r3]
  44:RPI_IF.c      ****     I2C_SlaveInitWriteBuf((uint8_t*)writeBuffer,255);
  84              		.loc 1 44 0
  85 000c FF21     		movs	r1, #255
  86 000e 0648     		ldr	r0, .L8+4
  87 0010 FFF7FEFF 		bl	I2C_SlaveInitReadBuf
  88              	.LVL4:
  45:RPI_IF.c      ****     
  89              		.loc 1 45 0
  90 0014 FF21     		movs	r1, #255
  91 0016 0548     		ldr	r0, .L8+8
  92 0018 FFF7FEFF 		bl	I2C_SlaveInitWriteBuf
  93              	.LVL5:
  47:RPI_IF.c      **** 
  94              		.loc 1 47 0
  95 001c FFF7FEFF 		bl	resetReadBuffer
  96              	.LVL6:
  97 0020 08BD     		pop	{r3, pc}
  98              	.L9:
  99 0022 00BF     		.align	2
 100              	.L8:
 101 0024 00E100E0 		.word	-536813312
 102 0028 00000000 		.word	readBuffer
 103 002c 00000000 		.word	writeBuffer
 104              		.cfi_endproc
 105              	.LFE64:
ARM GAS  C:\Users\marti\AppData\Local\Temp\ccUuhPsH.s 			page 4


 106              		.size	RPI_IF_init, .-RPI_IF_init
 107              		.section	.text.sendCupStatus,"ax",%progbits
 108              		.align	2
 109              		.global	sendCupStatus
 110              		.thumb
 111              		.thumb_func
 112              		.type	sendCupStatus, %function
 113              	sendCupStatus:
 114              	.LFB66:
  59:RPI_IF.c      **** 
  60:RPI_IF.c      **** 
  61:RPI_IF.c      **** void sendCupStatus(uint8_t status)
  62:RPI_IF.c      **** {
 115              		.loc 1 62 0
 116              		.cfi_startproc
 117              		@ args = 0, pretend = 0, frame = 0
 118              		@ frame_needed = 0, uses_anonymous_args = 0
 119              	.LVL7:
 120 0000 10B5     		push	{r4, lr}
 121              		.cfi_def_cfa_offset 8
 122              		.cfi_offset 4, -8
 123              		.cfi_offset 14, -4
 124 0002 0446     		mov	r4, r0
  63:RPI_IF.c      ****     resetReadBuffer();
 125              		.loc 1 63 0
 126 0004 FFF7FEFF 		bl	resetReadBuffer
 127              	.LVL8:
  64:RPI_IF.c      ****     readBuffer[0] = status;
 128              		.loc 1 64 0
 129 0008 064B     		ldr	r3, .L12
 130 000a 1C70     		strb	r4, [r3]
  65:RPI_IF.c      ****     I2C_SlaveClearReadBuf();
 131              		.loc 1 65 0
 132 000c FFF7FEFF 		bl	I2C_SlaveClearReadBuf
 133              	.LVL9:
  66:RPI_IF.c      ****     Interrupt_Write(0);
 134              		.loc 1 66 0
 135 0010 0020     		movs	r0, #0
 136 0012 FFF7FEFF 		bl	Interrupt_Write
 137              	.LVL10:
  67:RPI_IF.c      ****     CyDelay(1);
 138              		.loc 1 67 0
 139 0016 0120     		movs	r0, #1
 140 0018 FFF7FEFF 		bl	CyDelay
 141              	.LVL11:
  68:RPI_IF.c      ****     Interrupt_Write(1);
 142              		.loc 1 68 0
 143 001c 0120     		movs	r0, #1
 144 001e FFF7FEFF 		bl	Interrupt_Write
 145              	.LVL12:
 146 0022 10BD     		pop	{r4, pc}
 147              	.L13:
 148              		.align	2
 149              	.L12:
 150 0024 00000000 		.word	readBuffer
 151              		.cfi_endproc
 152              	.LFE66:
ARM GAS  C:\Users\marti\AppData\Local\Temp\ccUuhPsH.s 			page 5


 153              		.size	sendCupStatus, .-sendCupStatus
 154              		.section	.text.RPi_IF_handleData,"ax",%progbits
 155              		.align	2
 156              		.global	RPi_IF_handleData
 157              		.thumb
 158              		.thumb_func
 159              		.type	RPi_IF_handleData, %function
 160              	RPi_IF_handleData:
 161              	.LFB67:
  69:RPI_IF.c      **** }
  70:RPI_IF.c      **** 
  71:RPI_IF.c      **** void RPi_IF_handleData()
  72:RPI_IF.c      **** {
 162              		.loc 1 72 0
 163              		.cfi_startproc
 164              		@ args = 0, pretend = 0, frame = 8
 165              		@ frame_needed = 0, uses_anonymous_args = 0
 166 0000 70B5     		push	{r4, r5, r6, lr}
 167              		.cfi_def_cfa_offset 16
 168              		.cfi_offset 4, -16
 169              		.cfi_offset 5, -12
 170              		.cfi_offset 6, -8
 171              		.cfi_offset 14, -4
 172 0002 84B0     		sub	sp, sp, #16
 173              		.cfi_def_cfa_offset 32
  73:RPI_IF.c      ****     if(I2C_SlaveClearWriteStatus() & I2C_SSTAT_WR_CMPLT)
 174              		.loc 1 73 0
 175 0004 FFF7FEFF 		bl	I2C_SlaveClearWriteStatus
 176              	.LVL13:
 177 0008 10F0100F 		tst	r0, #16
 178 000c 6FD0     		beq	.L14
 179              	.LBB3:
  74:RPI_IF.c      ****     {
  75:RPI_IF.c      ****         
  76:RPI_IF.c      ****         int writeSize = I2C_SlaveGetWriteBufSize();
 180              		.loc 1 76 0
 181 000e FFF7FEFF 		bl	I2C_SlaveGetWriteBufSize
 182              	.LVL14:
 183 0012 0546     		mov	r5, r0
 184              	.LVL15:
 185              	.LBB4:
  77:RPI_IF.c      ****         for(int i = 0; i < writeSize; i++)
 186              		.loc 1 77 0
 187 0014 0024     		movs	r4, #0
 188 0016 66E0     		b	.L16
 189              	.LVL16:
 190              	.L27:
  78:RPI_IF.c      ****         {
  79:RPI_IF.c      ****             switch (writeBuffer[i])
 191              		.loc 1 79 0
 192 0018 364B     		ldr	r3, .L29
 193 001a 1B5D     		ldrb	r3, [r3, r4]	@ zero_extendqisi2
 194 001c 0A3B     		subs	r3, r3, #10
 195 001e 172B     		cmp	r3, #23
 196 0020 60D8     		bhi	.L17
 197 0022 DFE803F0 		tbb	[pc, r3]
 198              	.L19:
ARM GAS  C:\Users\marti\AppData\Local\Temp\ccUuhPsH.s 			page 6


 199 0026 0C       		.byte	(.L18-.L19)/2
 200 0027 10       		.byte	(.L20-.L19)/2
 201 0028 14       		.byte	(.L21-.L19)/2
 202 0029 18       		.byte	(.L22-.L19)/2
 203 002a 1C       		.byte	(.L23-.L19)/2
 204 002b 5F       		.byte	(.L17-.L19)/2
 205 002c 5F       		.byte	(.L17-.L19)/2
 206 002d 5F       		.byte	(.L17-.L19)/2
 207 002e 5F       		.byte	(.L17-.L19)/2
 208 002f 5F       		.byte	(.L17-.L19)/2
 209 0030 5F       		.byte	(.L17-.L19)/2
 210 0031 5F       		.byte	(.L17-.L19)/2
 211 0032 5F       		.byte	(.L17-.L19)/2
 212 0033 5F       		.byte	(.L17-.L19)/2
 213 0034 5F       		.byte	(.L17-.L19)/2
 214 0035 5F       		.byte	(.L17-.L19)/2
 215 0036 5F       		.byte	(.L17-.L19)/2
 216 0037 5F       		.byte	(.L17-.L19)/2
 217 0038 5F       		.byte	(.L17-.L19)/2
 218 0039 5F       		.byte	(.L17-.L19)/2
 219 003a 5F       		.byte	(.L17-.L19)/2
 220 003b 5F       		.byte	(.L17-.L19)/2
 221 003c 5F       		.byte	(.L17-.L19)/2
 222 003d 20       		.byte	(.L24-.L19)/2
 223              		.p2align 1
 224              	.L18:
  80:RPI_IF.c      ****             {
  81:RPI_IF.c      ****                 case IDLE_DATA:{
  82:RPI_IF.c      ****                     setState(IDLE);
 225              		.loc 1 82 0
 226 003e 0020     		movs	r0, #0
 227 0040 FFF7FEFF 		bl	setState
 228              	.LVL17:
  83:RPI_IF.c      ****                     break;}
 229              		.loc 1 83 0
 230 0044 4EE0     		b	.L17
 231              	.L20:
  84:RPI_IF.c      ****                 case STARTING_DATA:{
  85:RPI_IF.c      ****                     setState(STARTING);
 232              		.loc 1 85 0
 233 0046 0120     		movs	r0, #1
 234 0048 FFF7FEFF 		bl	setState
 235              	.LVL18:
  86:RPI_IF.c      ****                     break;}
 236              		.loc 1 86 0
 237 004c 4AE0     		b	.L17
 238              	.L21:
  87:RPI_IF.c      ****                 case PLAYING_DATA:{
  88:RPI_IF.c      ****                     setState(PLAYING);
 239              		.loc 1 88 0
 240 004e 0220     		movs	r0, #2
 241 0050 FFF7FEFF 		bl	setState
 242              	.LVL19:
  89:RPI_IF.c      ****                     break;} 
 243              		.loc 1 89 0
 244 0054 46E0     		b	.L17
 245              	.L22:
ARM GAS  C:\Users\marti\AppData\Local\Temp\ccUuhPsH.s 			page 7


  90:RPI_IF.c      ****                 case LOST_DATA:{
  91:RPI_IF.c      ****                     setState(LOST);
 246              		.loc 1 91 0
 247 0056 0420     		movs	r0, #4
 248 0058 FFF7FEFF 		bl	setState
 249              	.LVL20:
  92:RPI_IF.c      ****                     break;} 
 250              		.loc 1 92 0
 251 005c 42E0     		b	.L17
 252              	.L23:
  93:RPI_IF.c      ****                 case WON_DATA:{
  94:RPI_IF.c      ****                     setState(WON);
 253              		.loc 1 94 0
 254 005e 0320     		movs	r0, #3
 255 0060 FFF7FEFF 		bl	setState
 256              	.LVL21:
  95:RPI_IF.c      ****                     break;}
 257              		.loc 1 95 0
 258 0064 3EE0     		b	.L17
 259              	.L24:
 260              	.LBB5:
  96:RPI_IF.c      ****                 case COLOR_MSG:
  97:RPI_IF.c      ****                 {
  98:RPI_IF.c      ****                     ++i;
 261              		.loc 1 98 0
 262 0066 661C     		adds	r6, r4, #1
 263              	.LVL22:
  99:RPI_IF.c      ****                     color_t color;
 100:RPI_IF.c      ****                     if(writeBuffer[i]==OWN_COLOR)
 264              		.loc 1 100 0
 265 0068 224B     		ldr	r3, .L29
 266 006a 9B5D     		ldrb	r3, [r3, r6]	@ zero_extendqisi2
 267 006c 012B     		cmp	r3, #1
 268 006e 1BD1     		bne	.L25
 101:RPI_IF.c      ****                     {
 102:RPI_IF.c      ****                         color.Red = writeBuffer[++i];
 269              		.loc 1 102 0
 270 0070 A31C     		adds	r3, r4, #2
 271              	.LVL23:
 272 0072 2049     		ldr	r1, .L29
 273 0074 CA5C     		ldrb	r2, [r1, r3]	@ zero_extendqisi2
 274 0076 8DF80C20 		strb	r2, [sp, #12]
 103:RPI_IF.c      ****                         color.Green = writeBuffer[++i];
 275              		.loc 1 103 0
 276 007a E31C     		adds	r3, r4, #3
 277              	.LVL24:
 278 007c CB5C     		ldrb	r3, [r1, r3]	@ zero_extendqisi2
 279              	.LVL25:
 280 007e 8DF80D30 		strb	r3, [sp, #13]
 104:RPI_IF.c      ****                         color.Blue = writeBuffer[++i];
 281              		.loc 1 104 0
 282 0082 261D     		adds	r6, r4, #4
 283              	.LVL26:
 284 0084 895D     		ldrb	r1, [r1, r6]	@ zero_extendqisi2
 285 0086 8DF80E10 		strb	r1, [sp, #14]
 105:RPI_IF.c      ****                         n=sprintf(buf,"Egen farve: %d%d%d\n\r",
 286              		.loc 1 105 0
ARM GAS  C:\Users\marti\AppData\Local\Temp\ccUuhPsH.s 			page 8


 287 008a 1B4C     		ldr	r4, .L29+4
 288 008c 0091     		str	r1, [sp]
 289 008e 1B49     		ldr	r1, .L29+8
 290 0090 2046     		mov	r0, r4
 291 0092 FFF7FEFF 		bl	sprintf
 292              	.LVL27:
 293 0096 1A4B     		ldr	r3, .L29+12
 294 0098 1860     		str	r0, [r3]
 106:RPI_IF.c      ****                         color.Red,color.Green,color.Blue);
 107:RPI_IF.c      ****                         setMyColor(color);
 295              		.loc 1 107 0
 296 009a 0398     		ldr	r0, [sp, #12]
 297 009c FFF7FEFF 		bl	setMyColor
 298              	.LVL28:
 108:RPI_IF.c      ****                         UART_PutString(buf);
 299              		.loc 1 108 0
 300 00a0 2046     		mov	r0, r4
 301 00a2 FFF7FEFF 		bl	UART_PutString
 302              	.LVL29:
 303 00a6 1CE0     		b	.L26
 304              	.L25:
 109:RPI_IF.c      ****                         
 110:RPI_IF.c      ****                     }
 111:RPI_IF.c      ****                     else if(writeBuffer[i]==OPPONENT_COLOR)
 305              		.loc 1 111 0
 306 00a8 022B     		cmp	r3, #2
 307 00aa 1AD1     		bne	.L26
 112:RPI_IF.c      ****                     {
 113:RPI_IF.c      ****                         color.Red = writeBuffer[++i];
 308              		.loc 1 113 0
 309 00ac A31C     		adds	r3, r4, #2
 310              	.LVL30:
 311 00ae 1149     		ldr	r1, .L29
 312 00b0 CA5C     		ldrb	r2, [r1, r3]	@ zero_extendqisi2
 313 00b2 8DF80C20 		strb	r2, [sp, #12]
 114:RPI_IF.c      ****                         color.Green = writeBuffer[++i];
 314              		.loc 1 114 0
 315 00b6 E31C     		adds	r3, r4, #3
 316              	.LVL31:
 317 00b8 CB5C     		ldrb	r3, [r1, r3]	@ zero_extendqisi2
 318              	.LVL32:
 319 00ba 8DF80D30 		strb	r3, [sp, #13]
 115:RPI_IF.c      ****                         color.Blue = writeBuffer[++i];
 320              		.loc 1 115 0
 321 00be 261D     		adds	r6, r4, #4
 322              	.LVL33:
 323 00c0 895D     		ldrb	r1, [r1, r6]	@ zero_extendqisi2
 324 00c2 8DF80E10 		strb	r1, [sp, #14]
 116:RPI_IF.c      ****                         n=sprintf(buf,"Modstanders farver: %d%d%d\n\r",
 325              		.loc 1 116 0
 326 00c6 0C4C     		ldr	r4, .L29+4
 327 00c8 0091     		str	r1, [sp]
 328 00ca 0E49     		ldr	r1, .L29+16
 329 00cc 2046     		mov	r0, r4
 330 00ce FFF7FEFF 		bl	sprintf
 331              	.LVL34:
 332 00d2 0B4B     		ldr	r3, .L29+12
ARM GAS  C:\Users\marti\AppData\Local\Temp\ccUuhPsH.s 			page 9


 333 00d4 1860     		str	r0, [r3]
 117:RPI_IF.c      ****                             color.Red,
 118:RPI_IF.c      ****                             color.Green,
 119:RPI_IF.c      ****                             color.Blue);
 120:RPI_IF.c      ****                         setOpponentColor(color);
 334              		.loc 1 120 0
 335 00d6 0398     		ldr	r0, [sp, #12]
 336 00d8 FFF7FEFF 		bl	setOpponentColor
 337              	.LVL35:
 121:RPI_IF.c      ****                         UART_PutString(buf);
 338              		.loc 1 121 0
 339 00dc 2046     		mov	r0, r4
 340 00de FFF7FEFF 		bl	UART_PutString
 341              	.LVL36:
 342              	.L26:
 343 00e2 3446     		mov	r4, r6
 344              	.LVL37:
 345              	.L17:
 346              	.LBE5:
  77:RPI_IF.c      ****         {
 347              		.loc 1 77 0 discriminator 2
 348 00e4 0134     		adds	r4, r4, #1
 349              	.LVL38:
 350              	.L16:
  77:RPI_IF.c      ****         {
 351              		.loc 1 77 0 is_stmt 0 discriminator 1
 352 00e6 AC42     		cmp	r4, r5
 353 00e8 96DB     		blt	.L27
 354              	.LBE4:
 122:RPI_IF.c      ****                     }
 123:RPI_IF.c      ****                     break;
 124:RPI_IF.c      ****                 }   
 125:RPI_IF.c      ****             }
 126:RPI_IF.c      ****         }
 127:RPI_IF.c      ****         I2C_SlaveClearWriteBuf();
 355              		.loc 1 127 0 is_stmt 1
 356 00ea FFF7FEFF 		bl	I2C_SlaveClearWriteBuf
 357              	.LVL39:
 358              	.L14:
 359              	.LBE3:
 128:RPI_IF.c      ****     }
 129:RPI_IF.c      **** }
 360              		.loc 1 129 0
 361 00ee 04B0     		add	sp, sp, #16
 362              		.cfi_def_cfa_offset 16
 363              		@ sp needed
 364 00f0 70BD     		pop	{r4, r5, r6, pc}
 365              	.L30:
 366 00f2 00BF     		.align	2
 367              	.L29:
 368 00f4 00000000 		.word	writeBuffer
 369 00f8 00000000 		.word	.LANCHOR0
 370 00fc 00000000 		.word	.LC0
 371 0100 00000000 		.word	n
 372 0104 18000000 		.word	.LC1
 373              		.cfi_endproc
 374              	.LFE67:
ARM GAS  C:\Users\marti\AppData\Local\Temp\ccUuhPsH.s 			page 10


 375              		.size	RPi_IF_handleData, .-RPi_IF_handleData
 376              		.comm	writeBuffer,256,4
 377              		.comm	readBuffer,256,4
 378              		.global	timer_run_out
 379              		.comm	n,4,4
 380              		.comm	currentState,1,1
 381              		.section	.rodata.str1.4,"aMS",%progbits,1
 382              		.align	2
 383              	.LC0:
 384 0000 4567656E 		.ascii	"Egen farve: %d%d%d\012\015\000"
 384      20666172 
 384      76653A20 
 384      25642564 
 384      25640A0D 
 385 0015 000000   		.space	3
 386              	.LC1:
 387 0018 4D6F6473 		.ascii	"Modstanders farver: %d%d%d\012\015\000"
 387      74616E64 
 387      65727320 
 387      66617276 
 387      65723A20 
 388              		.bss
 389              		.align	2
 390              		.set	.LANCHOR0,. + 0
 391              		.type	buf, %object
 392              		.size	buf, 50
 393              	buf:
 394 0000 00000000 		.space	50
 394      00000000 
 394      00000000 
 394      00000000 
 394      00000000 
 395 0032 0000     		.space	2
 396              		.type	timer_run_out, %object
 397              		.size	timer_run_out, 4
 398              	timer_run_out:
 399 0034 00000000 		.space	4
 400              		.text
 401              	.Letext0:
 402              		.file 2 "c:\\program files (x86)\\cypress\\psoc creator\\4.2\\psoc creator\\import\\gnu\\arm\\5.4.
 403              		.file 3 "c:\\program files (x86)\\cypress\\psoc creator\\4.2\\psoc creator\\import\\gnu\\arm\\5.4.
 404              		.file 4 "Generated_Source\\PSoC5/cytypes.h"
 405              		.file 5 "CupLight_IF.h"
 406              		.file 6 "Generated_Source\\PSoC5/core_cm3.h"
 407              		.file 7 "GameController.h"
 408              		.file 8 "Generated_Source\\PSoC5/I2C.h"
 409              		.file 9 "Generated_Source\\PSoC5/Interrupt.h"
 410              		.file 10 "Generated_Source\\PSoC5/CyLib.h"
 411              		.file 11 "c:\\program files (x86)\\cypress\\psoc creator\\4.2\\psoc creator\\import\\gnu\\arm\\5.4
 412              		.file 12 "Generated_Source\\PSoC5/UART.h"