ARM GAS  C:\Users\marti\AppData\Local\Temp\cc4SFPeY.s 			page 1


   1              		.syntax unified
   2              		.cpu cortex-m3
   3              		.fpu softvfp
   4              		.eabi_attribute 20, 1
   5              		.eabi_attribute 21, 1
   6              		.eabi_attribute 23, 3
   7              		.eabi_attribute 24, 1
   8              		.eabi_attribute 25, 1
   9              		.eabi_attribute 26, 1
  10              		.eabi_attribute 30, 1
  11              		.eabi_attribute 34, 1
  12              		.eabi_attribute 18, 4
  13              		.thumb
  14              		.syntax unified
  15              		.file	"SPIM_led_control.c"
  16              		.text
  17              	.Ltext0:
  18              		.cfi_sections	.debug_frame
  19              		.section	.text.SPIM_led_control_EnableTxInt,"ax",%progbits
  20              		.align	2
  21              		.global	SPIM_led_control_EnableTxInt
  22              		.thumb
  23              		.thumb_func
  24              		.type	SPIM_led_control_EnableTxInt, %function
  25              	SPIM_led_control_EnableTxInt:
  26              	.LFB4:
  27              		.file 1 "Generated_Source\\PSoC5\\SPIM_led_control.c"
   1:Generated_Source\PSoC5/SPIM_led_control.c **** /*******************************************************************************
   2:Generated_Source\PSoC5/SPIM_led_control.c **** * File Name: SPIM_led_control.c
   3:Generated_Source\PSoC5/SPIM_led_control.c **** * Version 2.50
   4:Generated_Source\PSoC5/SPIM_led_control.c **** *
   5:Generated_Source\PSoC5/SPIM_led_control.c **** * Description:
   6:Generated_Source\PSoC5/SPIM_led_control.c **** *  This file provides all API functionality of the SPI Master component.
   7:Generated_Source\PSoC5/SPIM_led_control.c **** *
   8:Generated_Source\PSoC5/SPIM_led_control.c **** * Note:
   9:Generated_Source\PSoC5/SPIM_led_control.c **** *  None.
  10:Generated_Source\PSoC5/SPIM_led_control.c **** *
  11:Generated_Source\PSoC5/SPIM_led_control.c **** ********************************************************************************
  12:Generated_Source\PSoC5/SPIM_led_control.c **** * Copyright 2008-2015, Cypress Semiconductor Corporation.  All rights reserved.
  13:Generated_Source\PSoC5/SPIM_led_control.c **** * You may use this file only in accordance with the license, terms, conditions,
  14:Generated_Source\PSoC5/SPIM_led_control.c **** * disclaimers, and limitations in the end user license agreement accompanying
  15:Generated_Source\PSoC5/SPIM_led_control.c **** * the software package with which this file was provided.
  16:Generated_Source\PSoC5/SPIM_led_control.c **** *******************************************************************************/
  17:Generated_Source\PSoC5/SPIM_led_control.c **** 
  18:Generated_Source\PSoC5/SPIM_led_control.c **** #include "SPIM_led_control_PVT.h"
  19:Generated_Source\PSoC5/SPIM_led_control.c **** 
  20:Generated_Source\PSoC5/SPIM_led_control.c **** #if(SPIM_led_control_TX_SOFTWARE_BUF_ENABLED)
  21:Generated_Source\PSoC5/SPIM_led_control.c ****     volatile uint8 SPIM_led_control_txBuffer[SPIM_led_control_TX_BUFFER_SIZE];
  22:Generated_Source\PSoC5/SPIM_led_control.c ****     volatile uint8 SPIM_led_control_txBufferFull;
  23:Generated_Source\PSoC5/SPIM_led_control.c ****     volatile uint8 SPIM_led_control_txBufferRead;
  24:Generated_Source\PSoC5/SPIM_led_control.c ****     volatile uint8 SPIM_led_control_txBufferWrite;
  25:Generated_Source\PSoC5/SPIM_led_control.c **** #endif /* (SPIM_led_control_TX_SOFTWARE_BUF_ENABLED) */
  26:Generated_Source\PSoC5/SPIM_led_control.c **** 
  27:Generated_Source\PSoC5/SPIM_led_control.c **** #if(SPIM_led_control_RX_SOFTWARE_BUF_ENABLED)
  28:Generated_Source\PSoC5/SPIM_led_control.c ****     volatile uint8 SPIM_led_control_rxBuffer[SPIM_led_control_RX_BUFFER_SIZE];
  29:Generated_Source\PSoC5/SPIM_led_control.c ****     volatile uint8 SPIM_led_control_rxBufferFull;
  30:Generated_Source\PSoC5/SPIM_led_control.c ****     volatile uint8 SPIM_led_control_rxBufferRead;
ARM GAS  C:\Users\marti\AppData\Local\Temp\cc4SFPeY.s 			page 2


  31:Generated_Source\PSoC5/SPIM_led_control.c ****     volatile uint8 SPIM_led_control_rxBufferWrite;
  32:Generated_Source\PSoC5/SPIM_led_control.c **** #endif /* (SPIM_led_control_RX_SOFTWARE_BUF_ENABLED) */
  33:Generated_Source\PSoC5/SPIM_led_control.c **** 
  34:Generated_Source\PSoC5/SPIM_led_control.c **** uint8 SPIM_led_control_initVar = 0u;
  35:Generated_Source\PSoC5/SPIM_led_control.c **** 
  36:Generated_Source\PSoC5/SPIM_led_control.c **** volatile uint8 SPIM_led_control_swStatusTx;
  37:Generated_Source\PSoC5/SPIM_led_control.c **** volatile uint8 SPIM_led_control_swStatusRx;
  38:Generated_Source\PSoC5/SPIM_led_control.c **** 
  39:Generated_Source\PSoC5/SPIM_led_control.c **** 
  40:Generated_Source\PSoC5/SPIM_led_control.c **** /*******************************************************************************
  41:Generated_Source\PSoC5/SPIM_led_control.c **** * Function Name: SPIM_led_control_Init
  42:Generated_Source\PSoC5/SPIM_led_control.c **** ********************************************************************************
  43:Generated_Source\PSoC5/SPIM_led_control.c **** *
  44:Generated_Source\PSoC5/SPIM_led_control.c **** * Summary:
  45:Generated_Source\PSoC5/SPIM_led_control.c **** *  Inits/Restores default SPIM configuration provided with customizer.
  46:Generated_Source\PSoC5/SPIM_led_control.c **** *
  47:Generated_Source\PSoC5/SPIM_led_control.c **** * Parameters:
  48:Generated_Source\PSoC5/SPIM_led_control.c **** *  None.
  49:Generated_Source\PSoC5/SPIM_led_control.c **** *
  50:Generated_Source\PSoC5/SPIM_led_control.c **** * Return:
  51:Generated_Source\PSoC5/SPIM_led_control.c **** *  None.
  52:Generated_Source\PSoC5/SPIM_led_control.c **** *
  53:Generated_Source\PSoC5/SPIM_led_control.c **** * Side Effects:
  54:Generated_Source\PSoC5/SPIM_led_control.c **** *  When this function is called it initializes all of the necessary parameters
  55:Generated_Source\PSoC5/SPIM_led_control.c **** *  for execution. i.e. setting the initial interrupt mask, configuring the
  56:Generated_Source\PSoC5/SPIM_led_control.c **** *  interrupt service routine, configuring the bit-counter parameters and
  57:Generated_Source\PSoC5/SPIM_led_control.c **** *  clearing the FIFO and Status Register.
  58:Generated_Source\PSoC5/SPIM_led_control.c **** *
  59:Generated_Source\PSoC5/SPIM_led_control.c **** * Reentrant:
  60:Generated_Source\PSoC5/SPIM_led_control.c **** *  No.
  61:Generated_Source\PSoC5/SPIM_led_control.c **** *
  62:Generated_Source\PSoC5/SPIM_led_control.c **** *******************************************************************************/
  63:Generated_Source\PSoC5/SPIM_led_control.c **** void SPIM_led_control_Init(void) 
  64:Generated_Source\PSoC5/SPIM_led_control.c **** {
  65:Generated_Source\PSoC5/SPIM_led_control.c ****     /* Initialize the Bit counter */
  66:Generated_Source\PSoC5/SPIM_led_control.c ****     SPIM_led_control_COUNTER_PERIOD_REG = SPIM_led_control_BITCTR_INIT;
  67:Generated_Source\PSoC5/SPIM_led_control.c **** 
  68:Generated_Source\PSoC5/SPIM_led_control.c ****     /* Init TX ISR  */
  69:Generated_Source\PSoC5/SPIM_led_control.c ****     #if(0u != SPIM_led_control_INTERNAL_TX_INT_ENABLED)
  70:Generated_Source\PSoC5/SPIM_led_control.c ****         CyIntDisable         (SPIM_led_control_TX_ISR_NUMBER);
  71:Generated_Source\PSoC5/SPIM_led_control.c ****         CyIntSetPriority     (SPIM_led_control_TX_ISR_NUMBER,  SPIM_led_control_TX_ISR_PRIORITY);
  72:Generated_Source\PSoC5/SPIM_led_control.c ****         (void) CyIntSetVector(SPIM_led_control_TX_ISR_NUMBER, &SPIM_led_control_TX_ISR);
  73:Generated_Source\PSoC5/SPIM_led_control.c ****     #endif /* (0u != SPIM_led_control_INTERNAL_TX_INT_ENABLED) */
  74:Generated_Source\PSoC5/SPIM_led_control.c **** 
  75:Generated_Source\PSoC5/SPIM_led_control.c ****     /* Init RX ISR  */
  76:Generated_Source\PSoC5/SPIM_led_control.c ****     #if(0u != SPIM_led_control_INTERNAL_RX_INT_ENABLED)
  77:Generated_Source\PSoC5/SPIM_led_control.c ****         CyIntDisable         (SPIM_led_control_RX_ISR_NUMBER);
  78:Generated_Source\PSoC5/SPIM_led_control.c ****         CyIntSetPriority     (SPIM_led_control_RX_ISR_NUMBER,  SPIM_led_control_RX_ISR_PRIORITY);
  79:Generated_Source\PSoC5/SPIM_led_control.c ****         (void) CyIntSetVector(SPIM_led_control_RX_ISR_NUMBER, &SPIM_led_control_RX_ISR);
  80:Generated_Source\PSoC5/SPIM_led_control.c ****     #endif /* (0u != SPIM_led_control_INTERNAL_RX_INT_ENABLED) */
  81:Generated_Source\PSoC5/SPIM_led_control.c **** 
  82:Generated_Source\PSoC5/SPIM_led_control.c ****     /* Clear any stray data from the RX and TX FIFO */
  83:Generated_Source\PSoC5/SPIM_led_control.c ****     SPIM_led_control_ClearFIFO();
  84:Generated_Source\PSoC5/SPIM_led_control.c **** 
  85:Generated_Source\PSoC5/SPIM_led_control.c ****     #if(SPIM_led_control_RX_SOFTWARE_BUF_ENABLED)
  86:Generated_Source\PSoC5/SPIM_led_control.c ****         SPIM_led_control_rxBufferFull  = 0u;
  87:Generated_Source\PSoC5/SPIM_led_control.c ****         SPIM_led_control_rxBufferRead  = 0u;
ARM GAS  C:\Users\marti\AppData\Local\Temp\cc4SFPeY.s 			page 3


  88:Generated_Source\PSoC5/SPIM_led_control.c ****         SPIM_led_control_rxBufferWrite = 0u;
  89:Generated_Source\PSoC5/SPIM_led_control.c ****     #endif /* (SPIM_led_control_RX_SOFTWARE_BUF_ENABLED) */
  90:Generated_Source\PSoC5/SPIM_led_control.c **** 
  91:Generated_Source\PSoC5/SPIM_led_control.c ****     #if(SPIM_led_control_TX_SOFTWARE_BUF_ENABLED)
  92:Generated_Source\PSoC5/SPIM_led_control.c ****         SPIM_led_control_txBufferFull  = 0u;
  93:Generated_Source\PSoC5/SPIM_led_control.c ****         SPIM_led_control_txBufferRead  = 0u;
  94:Generated_Source\PSoC5/SPIM_led_control.c ****         SPIM_led_control_txBufferWrite = 0u;
  95:Generated_Source\PSoC5/SPIM_led_control.c ****     #endif /* (SPIM_led_control_TX_SOFTWARE_BUF_ENABLED) */
  96:Generated_Source\PSoC5/SPIM_led_control.c **** 
  97:Generated_Source\PSoC5/SPIM_led_control.c ****     (void) SPIM_led_control_ReadTxStatus(); /* Clear Tx status and swStatusTx */
  98:Generated_Source\PSoC5/SPIM_led_control.c ****     (void) SPIM_led_control_ReadRxStatus(); /* Clear Rx status and swStatusRx */
  99:Generated_Source\PSoC5/SPIM_led_control.c **** 
 100:Generated_Source\PSoC5/SPIM_led_control.c ****     /* Configure TX and RX interrupt mask */
 101:Generated_Source\PSoC5/SPIM_led_control.c ****     SPIM_led_control_TX_STATUS_MASK_REG = SPIM_led_control_TX_INIT_INTERRUPTS_MASK;
 102:Generated_Source\PSoC5/SPIM_led_control.c ****     SPIM_led_control_RX_STATUS_MASK_REG = SPIM_led_control_RX_INIT_INTERRUPTS_MASK;
 103:Generated_Source\PSoC5/SPIM_led_control.c **** }
 104:Generated_Source\PSoC5/SPIM_led_control.c **** 
 105:Generated_Source\PSoC5/SPIM_led_control.c **** 
 106:Generated_Source\PSoC5/SPIM_led_control.c **** /*******************************************************************************
 107:Generated_Source\PSoC5/SPIM_led_control.c **** * Function Name: SPIM_led_control_Enable
 108:Generated_Source\PSoC5/SPIM_led_control.c **** ********************************************************************************
 109:Generated_Source\PSoC5/SPIM_led_control.c **** *
 110:Generated_Source\PSoC5/SPIM_led_control.c **** * Summary:
 111:Generated_Source\PSoC5/SPIM_led_control.c **** *  Enable SPIM component.
 112:Generated_Source\PSoC5/SPIM_led_control.c **** *
 113:Generated_Source\PSoC5/SPIM_led_control.c **** * Parameters:
 114:Generated_Source\PSoC5/SPIM_led_control.c **** *  None.
 115:Generated_Source\PSoC5/SPIM_led_control.c **** *
 116:Generated_Source\PSoC5/SPIM_led_control.c **** * Return:
 117:Generated_Source\PSoC5/SPIM_led_control.c **** *  None.
 118:Generated_Source\PSoC5/SPIM_led_control.c **** *
 119:Generated_Source\PSoC5/SPIM_led_control.c **** *******************************************************************************/
 120:Generated_Source\PSoC5/SPIM_led_control.c **** void SPIM_led_control_Enable(void) 
 121:Generated_Source\PSoC5/SPIM_led_control.c **** {
 122:Generated_Source\PSoC5/SPIM_led_control.c ****     uint8 enableInterrupts;
 123:Generated_Source\PSoC5/SPIM_led_control.c **** 
 124:Generated_Source\PSoC5/SPIM_led_control.c ****     enableInterrupts = CyEnterCriticalSection();
 125:Generated_Source\PSoC5/SPIM_led_control.c ****     SPIM_led_control_COUNTER_CONTROL_REG |= SPIM_led_control_CNTR_ENABLE;
 126:Generated_Source\PSoC5/SPIM_led_control.c ****     SPIM_led_control_TX_STATUS_ACTL_REG  |= SPIM_led_control_INT_ENABLE;
 127:Generated_Source\PSoC5/SPIM_led_control.c ****     SPIM_led_control_RX_STATUS_ACTL_REG  |= SPIM_led_control_INT_ENABLE;
 128:Generated_Source\PSoC5/SPIM_led_control.c ****     CyExitCriticalSection(enableInterrupts);
 129:Generated_Source\PSoC5/SPIM_led_control.c **** 
 130:Generated_Source\PSoC5/SPIM_led_control.c ****     #if(0u != SPIM_led_control_INTERNAL_CLOCK)
 131:Generated_Source\PSoC5/SPIM_led_control.c ****         SPIM_led_control_IntClock_Enable();
 132:Generated_Source\PSoC5/SPIM_led_control.c ****     #endif /* (0u != SPIM_led_control_INTERNAL_CLOCK) */
 133:Generated_Source\PSoC5/SPIM_led_control.c **** 
 134:Generated_Source\PSoC5/SPIM_led_control.c ****     SPIM_led_control_EnableTxInt();
 135:Generated_Source\PSoC5/SPIM_led_control.c ****     SPIM_led_control_EnableRxInt();
 136:Generated_Source\PSoC5/SPIM_led_control.c **** }
 137:Generated_Source\PSoC5/SPIM_led_control.c **** 
 138:Generated_Source\PSoC5/SPIM_led_control.c **** 
 139:Generated_Source\PSoC5/SPIM_led_control.c **** /*******************************************************************************
 140:Generated_Source\PSoC5/SPIM_led_control.c **** * Function Name: SPIM_led_control_Start
 141:Generated_Source\PSoC5/SPIM_led_control.c **** ********************************************************************************
 142:Generated_Source\PSoC5/SPIM_led_control.c **** *
 143:Generated_Source\PSoC5/SPIM_led_control.c **** * Summary:
 144:Generated_Source\PSoC5/SPIM_led_control.c **** *  Initialize and Enable the SPI Master component.
ARM GAS  C:\Users\marti\AppData\Local\Temp\cc4SFPeY.s 			page 4


 145:Generated_Source\PSoC5/SPIM_led_control.c **** *
 146:Generated_Source\PSoC5/SPIM_led_control.c **** * Parameters:
 147:Generated_Source\PSoC5/SPIM_led_control.c **** *  None.
 148:Generated_Source\PSoC5/SPIM_led_control.c **** *
 149:Generated_Source\PSoC5/SPIM_led_control.c **** * Return:
 150:Generated_Source\PSoC5/SPIM_led_control.c **** *  None.
 151:Generated_Source\PSoC5/SPIM_led_control.c **** *
 152:Generated_Source\PSoC5/SPIM_led_control.c **** * Global variables:
 153:Generated_Source\PSoC5/SPIM_led_control.c **** *  SPIM_led_control_initVar - used to check initial configuration, modified on
 154:Generated_Source\PSoC5/SPIM_led_control.c **** *  first function call.
 155:Generated_Source\PSoC5/SPIM_led_control.c **** *
 156:Generated_Source\PSoC5/SPIM_led_control.c **** * Theory:
 157:Generated_Source\PSoC5/SPIM_led_control.c **** *  Enable the clock input to enable operation.
 158:Generated_Source\PSoC5/SPIM_led_control.c **** *
 159:Generated_Source\PSoC5/SPIM_led_control.c **** * Reentrant:
 160:Generated_Source\PSoC5/SPIM_led_control.c **** *  No.
 161:Generated_Source\PSoC5/SPIM_led_control.c **** *
 162:Generated_Source\PSoC5/SPIM_led_control.c **** *******************************************************************************/
 163:Generated_Source\PSoC5/SPIM_led_control.c **** void SPIM_led_control_Start(void) 
 164:Generated_Source\PSoC5/SPIM_led_control.c **** {
 165:Generated_Source\PSoC5/SPIM_led_control.c ****     if(0u == SPIM_led_control_initVar)
 166:Generated_Source\PSoC5/SPIM_led_control.c ****     {
 167:Generated_Source\PSoC5/SPIM_led_control.c ****         SPIM_led_control_Init();
 168:Generated_Source\PSoC5/SPIM_led_control.c ****         SPIM_led_control_initVar = 1u;
 169:Generated_Source\PSoC5/SPIM_led_control.c ****     }
 170:Generated_Source\PSoC5/SPIM_led_control.c **** 
 171:Generated_Source\PSoC5/SPIM_led_control.c ****     SPIM_led_control_Enable();
 172:Generated_Source\PSoC5/SPIM_led_control.c **** }
 173:Generated_Source\PSoC5/SPIM_led_control.c **** 
 174:Generated_Source\PSoC5/SPIM_led_control.c **** 
 175:Generated_Source\PSoC5/SPIM_led_control.c **** /*******************************************************************************
 176:Generated_Source\PSoC5/SPIM_led_control.c **** * Function Name: SPIM_led_control_Stop
 177:Generated_Source\PSoC5/SPIM_led_control.c **** ********************************************************************************
 178:Generated_Source\PSoC5/SPIM_led_control.c **** *
 179:Generated_Source\PSoC5/SPIM_led_control.c **** * Summary:
 180:Generated_Source\PSoC5/SPIM_led_control.c **** *  Disable the SPI Master component.
 181:Generated_Source\PSoC5/SPIM_led_control.c **** *
 182:Generated_Source\PSoC5/SPIM_led_control.c **** * Parameters:
 183:Generated_Source\PSoC5/SPIM_led_control.c **** *  None.
 184:Generated_Source\PSoC5/SPIM_led_control.c **** *
 185:Generated_Source\PSoC5/SPIM_led_control.c **** * Return:
 186:Generated_Source\PSoC5/SPIM_led_control.c **** *  None.
 187:Generated_Source\PSoC5/SPIM_led_control.c **** *
 188:Generated_Source\PSoC5/SPIM_led_control.c **** * Theory:
 189:Generated_Source\PSoC5/SPIM_led_control.c **** *  Disable the clock input to enable operation.
 190:Generated_Source\PSoC5/SPIM_led_control.c **** *
 191:Generated_Source\PSoC5/SPIM_led_control.c **** *******************************************************************************/
 192:Generated_Source\PSoC5/SPIM_led_control.c **** void SPIM_led_control_Stop(void) 
 193:Generated_Source\PSoC5/SPIM_led_control.c **** {
 194:Generated_Source\PSoC5/SPIM_led_control.c ****     uint8 enableInterrupts;
 195:Generated_Source\PSoC5/SPIM_led_control.c **** 
 196:Generated_Source\PSoC5/SPIM_led_control.c ****     enableInterrupts = CyEnterCriticalSection();
 197:Generated_Source\PSoC5/SPIM_led_control.c ****     SPIM_led_control_TX_STATUS_ACTL_REG &= ((uint8) ~SPIM_led_control_INT_ENABLE);
 198:Generated_Source\PSoC5/SPIM_led_control.c ****     SPIM_led_control_RX_STATUS_ACTL_REG &= ((uint8) ~SPIM_led_control_INT_ENABLE);
 199:Generated_Source\PSoC5/SPIM_led_control.c ****     CyExitCriticalSection(enableInterrupts);
 200:Generated_Source\PSoC5/SPIM_led_control.c **** 
 201:Generated_Source\PSoC5/SPIM_led_control.c ****     #if(0u != SPIM_led_control_INTERNAL_CLOCK)
ARM GAS  C:\Users\marti\AppData\Local\Temp\cc4SFPeY.s 			page 5


 202:Generated_Source\PSoC5/SPIM_led_control.c ****         SPIM_led_control_IntClock_Disable();
 203:Generated_Source\PSoC5/SPIM_led_control.c ****     #endif /* (0u != SPIM_led_control_INTERNAL_CLOCK) */
 204:Generated_Source\PSoC5/SPIM_led_control.c **** 
 205:Generated_Source\PSoC5/SPIM_led_control.c ****     SPIM_led_control_DisableTxInt();
 206:Generated_Source\PSoC5/SPIM_led_control.c ****     SPIM_led_control_DisableRxInt();
 207:Generated_Source\PSoC5/SPIM_led_control.c **** }
 208:Generated_Source\PSoC5/SPIM_led_control.c **** 
 209:Generated_Source\PSoC5/SPIM_led_control.c **** 
 210:Generated_Source\PSoC5/SPIM_led_control.c **** /*******************************************************************************
 211:Generated_Source\PSoC5/SPIM_led_control.c **** * Function Name: SPIM_led_control_EnableTxInt
 212:Generated_Source\PSoC5/SPIM_led_control.c **** ********************************************************************************
 213:Generated_Source\PSoC5/SPIM_led_control.c **** *
 214:Generated_Source\PSoC5/SPIM_led_control.c **** * Summary:
 215:Generated_Source\PSoC5/SPIM_led_control.c **** *  Enable internal Tx interrupt generation.
 216:Generated_Source\PSoC5/SPIM_led_control.c **** *
 217:Generated_Source\PSoC5/SPIM_led_control.c **** * Parameters:
 218:Generated_Source\PSoC5/SPIM_led_control.c **** *  None.
 219:Generated_Source\PSoC5/SPIM_led_control.c **** *
 220:Generated_Source\PSoC5/SPIM_led_control.c **** * Return:
 221:Generated_Source\PSoC5/SPIM_led_control.c **** *  None.
 222:Generated_Source\PSoC5/SPIM_led_control.c **** *
 223:Generated_Source\PSoC5/SPIM_led_control.c **** * Theory:
 224:Generated_Source\PSoC5/SPIM_led_control.c **** *  Enable the internal Tx interrupt output -or- the interrupt component itself.
 225:Generated_Source\PSoC5/SPIM_led_control.c **** *
 226:Generated_Source\PSoC5/SPIM_led_control.c **** *******************************************************************************/
 227:Generated_Source\PSoC5/SPIM_led_control.c **** void SPIM_led_control_EnableTxInt(void) 
 228:Generated_Source\PSoC5/SPIM_led_control.c **** {
  28              		.loc 1 228 0
  29              		.cfi_startproc
  30              		@ args = 0, pretend = 0, frame = 0
  31              		@ frame_needed = 0, uses_anonymous_args = 0
  32              		@ link register save eliminated.
 229:Generated_Source\PSoC5/SPIM_led_control.c ****     #if(0u != SPIM_led_control_INTERNAL_TX_INT_ENABLED)
 230:Generated_Source\PSoC5/SPIM_led_control.c ****         CyIntEnable(SPIM_led_control_TX_ISR_NUMBER);
  33              		.loc 1 230 0
  34 0000 0222     		movs	r2, #2
  35 0002 014B     		ldr	r3, .L2
  36 0004 1A60     		str	r2, [r3]
  37 0006 7047     		bx	lr
  38              	.L3:
  39              		.align	2
  40              	.L2:
  41 0008 00E100E0 		.word	-536813312
  42              		.cfi_endproc
  43              	.LFE4:
  44              		.size	SPIM_led_control_EnableTxInt, .-SPIM_led_control_EnableTxInt
  45              		.section	.text.SPIM_led_control_Enable,"ax",%progbits
  46              		.align	2
  47              		.global	SPIM_led_control_Enable
  48              		.thumb
  49              		.thumb_func
  50              		.type	SPIM_led_control_Enable, %function
  51              	SPIM_led_control_Enable:
  52              	.LFB1:
 121:Generated_Source\PSoC5/SPIM_led_control.c ****     uint8 enableInterrupts;
  53              		.loc 1 121 0
  54              		.cfi_startproc
ARM GAS  C:\Users\marti\AppData\Local\Temp\cc4SFPeY.s 			page 6


  55              		@ args = 0, pretend = 0, frame = 0
  56              		@ frame_needed = 0, uses_anonymous_args = 0
  57 0000 08B5     		push	{r3, lr}
  58              		.cfi_def_cfa_offset 8
  59              		.cfi_offset 3, -8
  60              		.cfi_offset 14, -4
 124:Generated_Source\PSoC5/SPIM_led_control.c ****     SPIM_led_control_COUNTER_CONTROL_REG |= SPIM_led_control_CNTR_ENABLE;
  61              		.loc 1 124 0
  62 0002 FFF7FEFF 		bl	CyEnterCriticalSection
  63              	.LVL0:
 125:Generated_Source\PSoC5/SPIM_led_control.c ****     SPIM_led_control_TX_STATUS_ACTL_REG  |= SPIM_led_control_INT_ENABLE;
  64              		.loc 1 125 0
  65 0006 0A4A     		ldr	r2, .L6
  66 0008 1378     		ldrb	r3, [r2]	@ zero_extendqisi2
  67 000a 43F02003 		orr	r3, r3, #32
  68 000e 1370     		strb	r3, [r2]
 126:Generated_Source\PSoC5/SPIM_led_control.c ****     SPIM_led_control_RX_STATUS_ACTL_REG  |= SPIM_led_control_INT_ENABLE;
  69              		.loc 1 126 0
  70 0010 0132     		adds	r2, r2, #1
  71 0012 1378     		ldrb	r3, [r2]	@ zero_extendqisi2
  72 0014 43F01003 		orr	r3, r3, #16
  73 0018 1370     		strb	r3, [r2]
 127:Generated_Source\PSoC5/SPIM_led_control.c ****     CyExitCriticalSection(enableInterrupts);
  74              		.loc 1 127 0
  75 001a A2F58072 		sub	r2, r2, #256
  76 001e 1378     		ldrb	r3, [r2]	@ zero_extendqisi2
  77 0020 43F01003 		orr	r3, r3, #16
  78 0024 1370     		strb	r3, [r2]
 128:Generated_Source\PSoC5/SPIM_led_control.c **** 
  79              		.loc 1 128 0
  80 0026 FFF7FEFF 		bl	CyExitCriticalSection
  81              	.LVL1:
 134:Generated_Source\PSoC5/SPIM_led_control.c ****     SPIM_led_control_EnableRxInt();
  82              		.loc 1 134 0
  83 002a FFF7FEFF 		bl	SPIM_led_control_EnableTxInt
  84              	.LVL2:
  85 002e 08BD     		pop	{r3, pc}
  86              	.L7:
  87              		.align	2
  88              	.L6:
  89 0030 97650040 		.word	1073767831
  90              		.cfi_endproc
  91              	.LFE1:
  92              		.size	SPIM_led_control_Enable, .-SPIM_led_control_Enable
  93              		.section	.text.SPIM_led_control_EnableRxInt,"ax",%progbits
  94              		.align	2
  95              		.global	SPIM_led_control_EnableRxInt
  96              		.thumb
  97              		.thumb_func
  98              		.type	SPIM_led_control_EnableRxInt, %function
  99              	SPIM_led_control_EnableRxInt:
 100              	.LFB5:
 231:Generated_Source\PSoC5/SPIM_led_control.c ****     #endif /* (0u != SPIM_led_control_INTERNAL_TX_INT_ENABLED) */
 232:Generated_Source\PSoC5/SPIM_led_control.c **** }
 233:Generated_Source\PSoC5/SPIM_led_control.c **** 
 234:Generated_Source\PSoC5/SPIM_led_control.c **** 
 235:Generated_Source\PSoC5/SPIM_led_control.c **** /*******************************************************************************
ARM GAS  C:\Users\marti\AppData\Local\Temp\cc4SFPeY.s 			page 7


 236:Generated_Source\PSoC5/SPIM_led_control.c **** * Function Name: SPIM_led_control_EnableRxInt
 237:Generated_Source\PSoC5/SPIM_led_control.c **** ********************************************************************************
 238:Generated_Source\PSoC5/SPIM_led_control.c **** *
 239:Generated_Source\PSoC5/SPIM_led_control.c **** * Summary:
 240:Generated_Source\PSoC5/SPIM_led_control.c **** *  Enable internal Rx interrupt generation.
 241:Generated_Source\PSoC5/SPIM_led_control.c **** *
 242:Generated_Source\PSoC5/SPIM_led_control.c **** * Parameters:
 243:Generated_Source\PSoC5/SPIM_led_control.c **** *  None.
 244:Generated_Source\PSoC5/SPIM_led_control.c **** *
 245:Generated_Source\PSoC5/SPIM_led_control.c **** * Return:
 246:Generated_Source\PSoC5/SPIM_led_control.c **** *  None.
 247:Generated_Source\PSoC5/SPIM_led_control.c **** *
 248:Generated_Source\PSoC5/SPIM_led_control.c **** * Theory:
 249:Generated_Source\PSoC5/SPIM_led_control.c **** *  Enable the internal Rx interrupt output -or- the interrupt component itself.
 250:Generated_Source\PSoC5/SPIM_led_control.c **** *
 251:Generated_Source\PSoC5/SPIM_led_control.c **** *******************************************************************************/
 252:Generated_Source\PSoC5/SPIM_led_control.c **** void SPIM_led_control_EnableRxInt(void) 
 253:Generated_Source\PSoC5/SPIM_led_control.c **** {
 101              		.loc 1 253 0
 102              		.cfi_startproc
 103              		@ args = 0, pretend = 0, frame = 0
 104              		@ frame_needed = 0, uses_anonymous_args = 0
 105              		@ link register save eliminated.
 106 0000 7047     		bx	lr
 107              		.cfi_endproc
 108              	.LFE5:
 109              		.size	SPIM_led_control_EnableRxInt, .-SPIM_led_control_EnableRxInt
 110 0002 00BF     		.section	.text.SPIM_led_control_DisableTxInt,"ax",%progbits
 111              		.align	2
 112              		.global	SPIM_led_control_DisableTxInt
 113              		.thumb
 114              		.thumb_func
 115              		.type	SPIM_led_control_DisableTxInt, %function
 116              	SPIM_led_control_DisableTxInt:
 117              	.LFB6:
 254:Generated_Source\PSoC5/SPIM_led_control.c ****     #if(0u != SPIM_led_control_INTERNAL_RX_INT_ENABLED)
 255:Generated_Source\PSoC5/SPIM_led_control.c ****         CyIntEnable(SPIM_led_control_RX_ISR_NUMBER);
 256:Generated_Source\PSoC5/SPIM_led_control.c ****     #endif /* (0u != SPIM_led_control_INTERNAL_RX_INT_ENABLED) */
 257:Generated_Source\PSoC5/SPIM_led_control.c **** }
 258:Generated_Source\PSoC5/SPIM_led_control.c **** 
 259:Generated_Source\PSoC5/SPIM_led_control.c **** 
 260:Generated_Source\PSoC5/SPIM_led_control.c **** /*******************************************************************************
 261:Generated_Source\PSoC5/SPIM_led_control.c **** * Function Name: SPIM_led_control_DisableTxInt
 262:Generated_Source\PSoC5/SPIM_led_control.c **** ********************************************************************************
 263:Generated_Source\PSoC5/SPIM_led_control.c **** *
 264:Generated_Source\PSoC5/SPIM_led_control.c **** * Summary:
 265:Generated_Source\PSoC5/SPIM_led_control.c **** *  Disable internal Tx interrupt generation.
 266:Generated_Source\PSoC5/SPIM_led_control.c **** *
 267:Generated_Source\PSoC5/SPIM_led_control.c **** * Parameters:
 268:Generated_Source\PSoC5/SPIM_led_control.c **** *  None.
 269:Generated_Source\PSoC5/SPIM_led_control.c **** *
 270:Generated_Source\PSoC5/SPIM_led_control.c **** * Return:
 271:Generated_Source\PSoC5/SPIM_led_control.c **** *  None.
 272:Generated_Source\PSoC5/SPIM_led_control.c **** *
 273:Generated_Source\PSoC5/SPIM_led_control.c **** * Theory:
 274:Generated_Source\PSoC5/SPIM_led_control.c **** *  Disable the internal Tx interrupt output -or- the interrupt component itself.
 275:Generated_Source\PSoC5/SPIM_led_control.c **** *
ARM GAS  C:\Users\marti\AppData\Local\Temp\cc4SFPeY.s 			page 8


 276:Generated_Source\PSoC5/SPIM_led_control.c **** *******************************************************************************/
 277:Generated_Source\PSoC5/SPIM_led_control.c **** void SPIM_led_control_DisableTxInt(void) 
 278:Generated_Source\PSoC5/SPIM_led_control.c **** {
 118              		.loc 1 278 0
 119              		.cfi_startproc
 120              		@ args = 0, pretend = 0, frame = 0
 121              		@ frame_needed = 0, uses_anonymous_args = 0
 122              		@ link register save eliminated.
 279:Generated_Source\PSoC5/SPIM_led_control.c ****     #if(0u != SPIM_led_control_INTERNAL_TX_INT_ENABLED)
 280:Generated_Source\PSoC5/SPIM_led_control.c ****         CyIntDisable(SPIM_led_control_TX_ISR_NUMBER);
 123              		.loc 1 280 0
 124 0000 0222     		movs	r2, #2
 125 0002 014B     		ldr	r3, .L10
 126 0004 1A60     		str	r2, [r3]
 127 0006 7047     		bx	lr
 128              	.L11:
 129              		.align	2
 130              	.L10:
 131 0008 80E100E0 		.word	-536813184
 132              		.cfi_endproc
 133              	.LFE6:
 134              		.size	SPIM_led_control_DisableTxInt, .-SPIM_led_control_DisableTxInt
 135              		.section	.text.SPIM_led_control_Stop,"ax",%progbits
 136              		.align	2
 137              		.global	SPIM_led_control_Stop
 138              		.thumb
 139              		.thumb_func
 140              		.type	SPIM_led_control_Stop, %function
 141              	SPIM_led_control_Stop:
 142              	.LFB3:
 193:Generated_Source\PSoC5/SPIM_led_control.c ****     uint8 enableInterrupts;
 143              		.loc 1 193 0
 144              		.cfi_startproc
 145              		@ args = 0, pretend = 0, frame = 0
 146              		@ frame_needed = 0, uses_anonymous_args = 0
 147 0000 08B5     		push	{r3, lr}
 148              		.cfi_def_cfa_offset 8
 149              		.cfi_offset 3, -8
 150              		.cfi_offset 14, -4
 196:Generated_Source\PSoC5/SPIM_led_control.c ****     SPIM_led_control_TX_STATUS_ACTL_REG &= ((uint8) ~SPIM_led_control_INT_ENABLE);
 151              		.loc 1 196 0
 152 0002 FFF7FEFF 		bl	CyEnterCriticalSection
 153              	.LVL3:
 197:Generated_Source\PSoC5/SPIM_led_control.c ****     SPIM_led_control_RX_STATUS_ACTL_REG &= ((uint8) ~SPIM_led_control_INT_ENABLE);
 154              		.loc 1 197 0
 155 0006 084A     		ldr	r2, .L14
 156 0008 1378     		ldrb	r3, [r2]	@ zero_extendqisi2
 157 000a 03F0EF03 		and	r3, r3, #239
 158 000e 1370     		strb	r3, [r2]
 198:Generated_Source\PSoC5/SPIM_led_control.c ****     CyExitCriticalSection(enableInterrupts);
 159              		.loc 1 198 0
 160 0010 A2F58072 		sub	r2, r2, #256
 161 0014 1378     		ldrb	r3, [r2]	@ zero_extendqisi2
 162 0016 03F0EF03 		and	r3, r3, #239
 163 001a 1370     		strb	r3, [r2]
 199:Generated_Source\PSoC5/SPIM_led_control.c **** 
 164              		.loc 1 199 0
ARM GAS  C:\Users\marti\AppData\Local\Temp\cc4SFPeY.s 			page 9


 165 001c FFF7FEFF 		bl	CyExitCriticalSection
 166              	.LVL4:
 205:Generated_Source\PSoC5/SPIM_led_control.c ****     SPIM_led_control_DisableRxInt();
 167              		.loc 1 205 0
 168 0020 FFF7FEFF 		bl	SPIM_led_control_DisableTxInt
 169              	.LVL5:
 170 0024 08BD     		pop	{r3, pc}
 171              	.L15:
 172 0026 00BF     		.align	2
 173              	.L14:
 174 0028 98650040 		.word	1073767832
 175              		.cfi_endproc
 176              	.LFE3:
 177              		.size	SPIM_led_control_Stop, .-SPIM_led_control_Stop
 178              		.section	.text.SPIM_led_control_DisableRxInt,"ax",%progbits
 179              		.align	2
 180              		.global	SPIM_led_control_DisableRxInt
 181              		.thumb
 182              		.thumb_func
 183              		.type	SPIM_led_control_DisableRxInt, %function
 184              	SPIM_led_control_DisableRxInt:
 185              	.LFB7:
 281:Generated_Source\PSoC5/SPIM_led_control.c ****     #endif /* (0u != SPIM_led_control_INTERNAL_TX_INT_ENABLED) */
 282:Generated_Source\PSoC5/SPIM_led_control.c **** }
 283:Generated_Source\PSoC5/SPIM_led_control.c **** 
 284:Generated_Source\PSoC5/SPIM_led_control.c **** 
 285:Generated_Source\PSoC5/SPIM_led_control.c **** /*******************************************************************************
 286:Generated_Source\PSoC5/SPIM_led_control.c **** * Function Name: SPIM_led_control_DisableRxInt
 287:Generated_Source\PSoC5/SPIM_led_control.c **** ********************************************************************************
 288:Generated_Source\PSoC5/SPIM_led_control.c **** *
 289:Generated_Source\PSoC5/SPIM_led_control.c **** * Summary:
 290:Generated_Source\PSoC5/SPIM_led_control.c **** *  Disable internal Rx interrupt generation.
 291:Generated_Source\PSoC5/SPIM_led_control.c **** *
 292:Generated_Source\PSoC5/SPIM_led_control.c **** * Parameters:
 293:Generated_Source\PSoC5/SPIM_led_control.c **** *  None.
 294:Generated_Source\PSoC5/SPIM_led_control.c **** *
 295:Generated_Source\PSoC5/SPIM_led_control.c **** * Return:
 296:Generated_Source\PSoC5/SPIM_led_control.c **** *  None.
 297:Generated_Source\PSoC5/SPIM_led_control.c **** *
 298:Generated_Source\PSoC5/SPIM_led_control.c **** * Theory:
 299:Generated_Source\PSoC5/SPIM_led_control.c **** *  Disable the internal Rx interrupt output -or- the interrupt component itself.
 300:Generated_Source\PSoC5/SPIM_led_control.c **** *
 301:Generated_Source\PSoC5/SPIM_led_control.c **** *******************************************************************************/
 302:Generated_Source\PSoC5/SPIM_led_control.c **** void SPIM_led_control_DisableRxInt(void) 
 303:Generated_Source\PSoC5/SPIM_led_control.c **** {
 186              		.loc 1 303 0
 187              		.cfi_startproc
 188              		@ args = 0, pretend = 0, frame = 0
 189              		@ frame_needed = 0, uses_anonymous_args = 0
 190              		@ link register save eliminated.
 191 0000 7047     		bx	lr
 192              		.cfi_endproc
 193              	.LFE7:
 194              		.size	SPIM_led_control_DisableRxInt, .-SPIM_led_control_DisableRxInt
 195 0002 00BF     		.section	.text.SPIM_led_control_SetTxInterruptMode,"ax",%progbits
 196              		.align	2
 197              		.global	SPIM_led_control_SetTxInterruptMode
ARM GAS  C:\Users\marti\AppData\Local\Temp\cc4SFPeY.s 			page 10


 198              		.thumb
 199              		.thumb_func
 200              		.type	SPIM_led_control_SetTxInterruptMode, %function
 201              	SPIM_led_control_SetTxInterruptMode:
 202              	.LFB8:
 304:Generated_Source\PSoC5/SPIM_led_control.c ****     #if(0u != SPIM_led_control_INTERNAL_RX_INT_ENABLED)
 305:Generated_Source\PSoC5/SPIM_led_control.c ****         CyIntDisable(SPIM_led_control_RX_ISR_NUMBER);
 306:Generated_Source\PSoC5/SPIM_led_control.c ****     #endif /* (0u != SPIM_led_control_INTERNAL_RX_INT_ENABLED) */
 307:Generated_Source\PSoC5/SPIM_led_control.c **** }
 308:Generated_Source\PSoC5/SPIM_led_control.c **** 
 309:Generated_Source\PSoC5/SPIM_led_control.c **** 
 310:Generated_Source\PSoC5/SPIM_led_control.c **** /*******************************************************************************
 311:Generated_Source\PSoC5/SPIM_led_control.c **** * Function Name: SPIM_led_control_SetTxInterruptMode
 312:Generated_Source\PSoC5/SPIM_led_control.c **** ********************************************************************************
 313:Generated_Source\PSoC5/SPIM_led_control.c **** *
 314:Generated_Source\PSoC5/SPIM_led_control.c **** * Summary:
 315:Generated_Source\PSoC5/SPIM_led_control.c **** *  Configure which status bits trigger an interrupt event.
 316:Generated_Source\PSoC5/SPIM_led_control.c **** *
 317:Generated_Source\PSoC5/SPIM_led_control.c **** * Parameters:
 318:Generated_Source\PSoC5/SPIM_led_control.c **** *  intSrc: An or'd combination of the desired status bit masks (defined in the
 319:Generated_Source\PSoC5/SPIM_led_control.c **** *  header file).
 320:Generated_Source\PSoC5/SPIM_led_control.c **** *
 321:Generated_Source\PSoC5/SPIM_led_control.c **** * Return:
 322:Generated_Source\PSoC5/SPIM_led_control.c **** *  None.
 323:Generated_Source\PSoC5/SPIM_led_control.c **** *
 324:Generated_Source\PSoC5/SPIM_led_control.c **** * Theory:
 325:Generated_Source\PSoC5/SPIM_led_control.c **** *  Enables the output of specific status bits to the interrupt controller.
 326:Generated_Source\PSoC5/SPIM_led_control.c **** *
 327:Generated_Source\PSoC5/SPIM_led_control.c **** *******************************************************************************/
 328:Generated_Source\PSoC5/SPIM_led_control.c **** void SPIM_led_control_SetTxInterruptMode(uint8 intSrc) 
 329:Generated_Source\PSoC5/SPIM_led_control.c **** {
 203              		.loc 1 329 0
 204              		.cfi_startproc
 205              		@ args = 0, pretend = 0, frame = 0
 206              		@ frame_needed = 0, uses_anonymous_args = 0
 207              		@ link register save eliminated.
 208              	.LVL6:
 330:Generated_Source\PSoC5/SPIM_led_control.c ****     SPIM_led_control_TX_STATUS_MASK_REG = intSrc;
 209              		.loc 1 330 0
 210 0000 014B     		ldr	r3, .L18
 211 0002 1870     		strb	r0, [r3]
 212 0004 7047     		bx	lr
 213              	.L19:
 214 0006 00BF     		.align	2
 215              	.L18:
 216 0008 88650040 		.word	1073767816
 217              		.cfi_endproc
 218              	.LFE8:
 219              		.size	SPIM_led_control_SetTxInterruptMode, .-SPIM_led_control_SetTxInterruptMode
 220              		.section	.text.SPIM_led_control_SetRxInterruptMode,"ax",%progbits
 221              		.align	2
 222              		.global	SPIM_led_control_SetRxInterruptMode
 223              		.thumb
 224              		.thumb_func
 225              		.type	SPIM_led_control_SetRxInterruptMode, %function
 226              	SPIM_led_control_SetRxInterruptMode:
 227              	.LFB9:
ARM GAS  C:\Users\marti\AppData\Local\Temp\cc4SFPeY.s 			page 11


 331:Generated_Source\PSoC5/SPIM_led_control.c **** }
 332:Generated_Source\PSoC5/SPIM_led_control.c **** 
 333:Generated_Source\PSoC5/SPIM_led_control.c **** 
 334:Generated_Source\PSoC5/SPIM_led_control.c **** /*******************************************************************************
 335:Generated_Source\PSoC5/SPIM_led_control.c **** * Function Name: SPIM_led_control_SetRxInterruptMode
 336:Generated_Source\PSoC5/SPIM_led_control.c **** ********************************************************************************
 337:Generated_Source\PSoC5/SPIM_led_control.c **** *
 338:Generated_Source\PSoC5/SPIM_led_control.c **** * Summary:
 339:Generated_Source\PSoC5/SPIM_led_control.c **** *  Configure which status bits trigger an interrupt event.
 340:Generated_Source\PSoC5/SPIM_led_control.c **** *
 341:Generated_Source\PSoC5/SPIM_led_control.c **** * Parameters:
 342:Generated_Source\PSoC5/SPIM_led_control.c **** *  intSrc: An or'd combination of the desired status bit masks (defined in the
 343:Generated_Source\PSoC5/SPIM_led_control.c **** *  header file).
 344:Generated_Source\PSoC5/SPIM_led_control.c **** *
 345:Generated_Source\PSoC5/SPIM_led_control.c **** * Return:
 346:Generated_Source\PSoC5/SPIM_led_control.c **** *  None.
 347:Generated_Source\PSoC5/SPIM_led_control.c **** *
 348:Generated_Source\PSoC5/SPIM_led_control.c **** * Theory:
 349:Generated_Source\PSoC5/SPIM_led_control.c **** *  Enables the output of specific status bits to the interrupt controller.
 350:Generated_Source\PSoC5/SPIM_led_control.c **** *
 351:Generated_Source\PSoC5/SPIM_led_control.c **** *******************************************************************************/
 352:Generated_Source\PSoC5/SPIM_led_control.c **** void SPIM_led_control_SetRxInterruptMode(uint8 intSrc) 
 353:Generated_Source\PSoC5/SPIM_led_control.c **** {
 228              		.loc 1 353 0
 229              		.cfi_startproc
 230              		@ args = 0, pretend = 0, frame = 0
 231              		@ frame_needed = 0, uses_anonymous_args = 0
 232              		@ link register save eliminated.
 233              	.LVL7:
 354:Generated_Source\PSoC5/SPIM_led_control.c ****     SPIM_led_control_RX_STATUS_MASK_REG  = intSrc;
 234              		.loc 1 354 0
 235 0000 014B     		ldr	r3, .L21
 236 0002 1870     		strb	r0, [r3]
 237 0004 7047     		bx	lr
 238              	.L22:
 239 0006 00BF     		.align	2
 240              	.L21:
 241 0008 88640040 		.word	1073767560
 242              		.cfi_endproc
 243              	.LFE9:
 244              		.size	SPIM_led_control_SetRxInterruptMode, .-SPIM_led_control_SetRxInterruptMode
 245              		.section	.text.SPIM_led_control_ReadTxStatus,"ax",%progbits
 246              		.align	2
 247              		.global	SPIM_led_control_ReadTxStatus
 248              		.thumb
 249              		.thumb_func
 250              		.type	SPIM_led_control_ReadTxStatus, %function
 251              	SPIM_led_control_ReadTxStatus:
 252              	.LFB10:
 355:Generated_Source\PSoC5/SPIM_led_control.c **** }
 356:Generated_Source\PSoC5/SPIM_led_control.c **** 
 357:Generated_Source\PSoC5/SPIM_led_control.c **** 
 358:Generated_Source\PSoC5/SPIM_led_control.c **** /*******************************************************************************
 359:Generated_Source\PSoC5/SPIM_led_control.c **** * Function Name: SPIM_led_control_ReadTxStatus
 360:Generated_Source\PSoC5/SPIM_led_control.c **** ********************************************************************************
 361:Generated_Source\PSoC5/SPIM_led_control.c **** *
 362:Generated_Source\PSoC5/SPIM_led_control.c **** * Summary:
ARM GAS  C:\Users\marti\AppData\Local\Temp\cc4SFPeY.s 			page 12


 363:Generated_Source\PSoC5/SPIM_led_control.c **** *  Read the Tx status register for the component.
 364:Generated_Source\PSoC5/SPIM_led_control.c **** *
 365:Generated_Source\PSoC5/SPIM_led_control.c **** * Parameters:
 366:Generated_Source\PSoC5/SPIM_led_control.c **** *  None.
 367:Generated_Source\PSoC5/SPIM_led_control.c **** *
 368:Generated_Source\PSoC5/SPIM_led_control.c **** * Return:
 369:Generated_Source\PSoC5/SPIM_led_control.c **** *  Contents of the Tx status register.
 370:Generated_Source\PSoC5/SPIM_led_control.c **** *
 371:Generated_Source\PSoC5/SPIM_led_control.c **** * Global variables:
 372:Generated_Source\PSoC5/SPIM_led_control.c **** *  SPIM_led_control_swStatusTx - used to store in software status register,
 373:Generated_Source\PSoC5/SPIM_led_control.c **** *  modified every function call - resets to zero.
 374:Generated_Source\PSoC5/SPIM_led_control.c **** *
 375:Generated_Source\PSoC5/SPIM_led_control.c **** * Theory:
 376:Generated_Source\PSoC5/SPIM_led_control.c **** *  Allows the user and the API to read the Tx status register for error
 377:Generated_Source\PSoC5/SPIM_led_control.c **** *  detection and flow control.
 378:Generated_Source\PSoC5/SPIM_led_control.c **** *
 379:Generated_Source\PSoC5/SPIM_led_control.c **** * Side Effects:
 380:Generated_Source\PSoC5/SPIM_led_control.c **** *  Clear Tx status register of the component.
 381:Generated_Source\PSoC5/SPIM_led_control.c **** *
 382:Generated_Source\PSoC5/SPIM_led_control.c **** * Reentrant:
 383:Generated_Source\PSoC5/SPIM_led_control.c **** *  No.
 384:Generated_Source\PSoC5/SPIM_led_control.c **** *
 385:Generated_Source\PSoC5/SPIM_led_control.c **** *******************************************************************************/
 386:Generated_Source\PSoC5/SPIM_led_control.c **** uint8 SPIM_led_control_ReadTxStatus(void) 
 387:Generated_Source\PSoC5/SPIM_led_control.c **** {
 253              		.loc 1 387 0
 254              		.cfi_startproc
 255              		@ args = 0, pretend = 0, frame = 0
 256              		@ frame_needed = 0, uses_anonymous_args = 0
 257 0000 10B5     		push	{r4, lr}
 258              		.cfi_def_cfa_offset 8
 259              		.cfi_offset 4, -8
 260              		.cfi_offset 14, -4
 388:Generated_Source\PSoC5/SPIM_led_control.c ****     uint8 tmpStatus;
 389:Generated_Source\PSoC5/SPIM_led_control.c **** 
 390:Generated_Source\PSoC5/SPIM_led_control.c ****     #if(SPIM_led_control_TX_SOFTWARE_BUF_ENABLED)
 391:Generated_Source\PSoC5/SPIM_led_control.c ****         /* Disable TX interrupt to protect global veriables */
 392:Generated_Source\PSoC5/SPIM_led_control.c ****         SPIM_led_control_DisableTxInt();
 261              		.loc 1 392 0
 262 0002 FFF7FEFF 		bl	SPIM_led_control_DisableTxInt
 263              	.LVL8:
 393:Generated_Source\PSoC5/SPIM_led_control.c **** 
 394:Generated_Source\PSoC5/SPIM_led_control.c ****         tmpStatus = SPIM_led_control_GET_STATUS_TX(SPIM_led_control_swStatusTx);
 264              		.loc 1 394 0
 265 0006 064B     		ldr	r3, .L25
 266 0008 1C78     		ldrb	r4, [r3]	@ zero_extendqisi2
 267 000a 064A     		ldr	r2, .L25+4
 268 000c 1378     		ldrb	r3, [r2]	@ zero_extendqisi2
 269 000e 03F00903 		and	r3, r3, #9
 270 0012 1C43     		orrs	r4, r4, r3
 271              	.LVL9:
 395:Generated_Source\PSoC5/SPIM_led_control.c ****         SPIM_led_control_swStatusTx = 0u;
 272              		.loc 1 395 0
 273 0014 0023     		movs	r3, #0
 274 0016 1370     		strb	r3, [r2]
 396:Generated_Source\PSoC5/SPIM_led_control.c **** 
 397:Generated_Source\PSoC5/SPIM_led_control.c ****         SPIM_led_control_EnableTxInt();
ARM GAS  C:\Users\marti\AppData\Local\Temp\cc4SFPeY.s 			page 13


 275              		.loc 1 397 0
 276 0018 FFF7FEFF 		bl	SPIM_led_control_EnableTxInt
 277              	.LVL10:
 398:Generated_Source\PSoC5/SPIM_led_control.c **** 
 399:Generated_Source\PSoC5/SPIM_led_control.c ****     #else
 400:Generated_Source\PSoC5/SPIM_led_control.c **** 
 401:Generated_Source\PSoC5/SPIM_led_control.c ****         tmpStatus = SPIM_led_control_TX_STATUS_REG;
 402:Generated_Source\PSoC5/SPIM_led_control.c **** 
 403:Generated_Source\PSoC5/SPIM_led_control.c ****     #endif /* (SPIM_led_control_TX_SOFTWARE_BUF_ENABLED) */
 404:Generated_Source\PSoC5/SPIM_led_control.c **** 
 405:Generated_Source\PSoC5/SPIM_led_control.c ****     return(tmpStatus);
 406:Generated_Source\PSoC5/SPIM_led_control.c **** }
 278              		.loc 1 406 0
 279 001c 2046     		mov	r0, r4
 280 001e 10BD     		pop	{r4, pc}
 281              	.LVL11:
 282              	.L26:
 283              		.align	2
 284              	.L25:
 285 0020 68650040 		.word	1073767784
 286 0024 00000000 		.word	SPIM_led_control_swStatusTx
 287              		.cfi_endproc
 288              	.LFE10:
 289              		.size	SPIM_led_control_ReadTxStatus, .-SPIM_led_control_ReadTxStatus
 290              		.section	.text.SPIM_led_control_ReadRxStatus,"ax",%progbits
 291              		.align	2
 292              		.global	SPIM_led_control_ReadRxStatus
 293              		.thumb
 294              		.thumb_func
 295              		.type	SPIM_led_control_ReadRxStatus, %function
 296              	SPIM_led_control_ReadRxStatus:
 297              	.LFB11:
 407:Generated_Source\PSoC5/SPIM_led_control.c **** 
 408:Generated_Source\PSoC5/SPIM_led_control.c **** 
 409:Generated_Source\PSoC5/SPIM_led_control.c **** /*******************************************************************************
 410:Generated_Source\PSoC5/SPIM_led_control.c **** * Function Name: SPIM_led_control_ReadRxStatus
 411:Generated_Source\PSoC5/SPIM_led_control.c **** ********************************************************************************
 412:Generated_Source\PSoC5/SPIM_led_control.c **** *
 413:Generated_Source\PSoC5/SPIM_led_control.c **** * Summary:
 414:Generated_Source\PSoC5/SPIM_led_control.c **** *  Read the Rx status register for the component.
 415:Generated_Source\PSoC5/SPIM_led_control.c **** *
 416:Generated_Source\PSoC5/SPIM_led_control.c **** * Parameters:
 417:Generated_Source\PSoC5/SPIM_led_control.c **** *  None.
 418:Generated_Source\PSoC5/SPIM_led_control.c **** *
 419:Generated_Source\PSoC5/SPIM_led_control.c **** * Return:
 420:Generated_Source\PSoC5/SPIM_led_control.c **** *  Contents of the Rx status register.
 421:Generated_Source\PSoC5/SPIM_led_control.c **** *
 422:Generated_Source\PSoC5/SPIM_led_control.c **** * Global variables:
 423:Generated_Source\PSoC5/SPIM_led_control.c **** *  SPIM_led_control_swStatusRx - used to store in software Rx status register,
 424:Generated_Source\PSoC5/SPIM_led_control.c **** *  modified every function call - resets to zero.
 425:Generated_Source\PSoC5/SPIM_led_control.c **** *
 426:Generated_Source\PSoC5/SPIM_led_control.c **** * Theory:
 427:Generated_Source\PSoC5/SPIM_led_control.c **** *  Allows the user and the API to read the Rx status register for error
 428:Generated_Source\PSoC5/SPIM_led_control.c **** *  detection and flow control.
 429:Generated_Source\PSoC5/SPIM_led_control.c **** *
 430:Generated_Source\PSoC5/SPIM_led_control.c **** * Side Effects:
 431:Generated_Source\PSoC5/SPIM_led_control.c **** *  Clear Rx status register of the component.
ARM GAS  C:\Users\marti\AppData\Local\Temp\cc4SFPeY.s 			page 14


 432:Generated_Source\PSoC5/SPIM_led_control.c **** *
 433:Generated_Source\PSoC5/SPIM_led_control.c **** * Reentrant:
 434:Generated_Source\PSoC5/SPIM_led_control.c **** *  No.
 435:Generated_Source\PSoC5/SPIM_led_control.c **** *
 436:Generated_Source\PSoC5/SPIM_led_control.c **** *******************************************************************************/
 437:Generated_Source\PSoC5/SPIM_led_control.c **** uint8 SPIM_led_control_ReadRxStatus(void) 
 438:Generated_Source\PSoC5/SPIM_led_control.c **** {
 298              		.loc 1 438 0
 299              		.cfi_startproc
 300              		@ args = 0, pretend = 0, frame = 0
 301              		@ frame_needed = 0, uses_anonymous_args = 0
 302              		@ link register save eliminated.
 439:Generated_Source\PSoC5/SPIM_led_control.c ****     uint8 tmpStatus;
 440:Generated_Source\PSoC5/SPIM_led_control.c **** 
 441:Generated_Source\PSoC5/SPIM_led_control.c ****     #if(SPIM_led_control_RX_SOFTWARE_BUF_ENABLED)
 442:Generated_Source\PSoC5/SPIM_led_control.c ****         /* Disable RX interrupt to protect global veriables */
 443:Generated_Source\PSoC5/SPIM_led_control.c ****         SPIM_led_control_DisableRxInt();
 444:Generated_Source\PSoC5/SPIM_led_control.c **** 
 445:Generated_Source\PSoC5/SPIM_led_control.c ****         tmpStatus = SPIM_led_control_GET_STATUS_RX(SPIM_led_control_swStatusRx);
 446:Generated_Source\PSoC5/SPIM_led_control.c ****         SPIM_led_control_swStatusRx = 0u;
 447:Generated_Source\PSoC5/SPIM_led_control.c **** 
 448:Generated_Source\PSoC5/SPIM_led_control.c ****         SPIM_led_control_EnableRxInt();
 449:Generated_Source\PSoC5/SPIM_led_control.c **** 
 450:Generated_Source\PSoC5/SPIM_led_control.c ****     #else
 451:Generated_Source\PSoC5/SPIM_led_control.c **** 
 452:Generated_Source\PSoC5/SPIM_led_control.c ****         tmpStatus = SPIM_led_control_RX_STATUS_REG;
 303              		.loc 1 452 0
 304 0000 014B     		ldr	r3, .L28
 305 0002 1878     		ldrb	r0, [r3]	@ zero_extendqisi2
 306              	.LVL12:
 453:Generated_Source\PSoC5/SPIM_led_control.c **** 
 454:Generated_Source\PSoC5/SPIM_led_control.c ****     #endif /* (SPIM_led_control_RX_SOFTWARE_BUF_ENABLED) */
 455:Generated_Source\PSoC5/SPIM_led_control.c **** 
 456:Generated_Source\PSoC5/SPIM_led_control.c ****     return(tmpStatus);
 457:Generated_Source\PSoC5/SPIM_led_control.c **** }
 307              		.loc 1 457 0
 308 0004 7047     		bx	lr
 309              	.L29:
 310 0006 00BF     		.align	2
 311              	.L28:
 312 0008 68640040 		.word	1073767528
 313              		.cfi_endproc
 314              	.LFE11:
 315              		.size	SPIM_led_control_ReadRxStatus, .-SPIM_led_control_ReadRxStatus
 316              		.section	.text.SPIM_led_control_WriteTxData,"ax",%progbits
 317              		.align	2
 318              		.global	SPIM_led_control_WriteTxData
 319              		.thumb
 320              		.thumb_func
 321              		.type	SPIM_led_control_WriteTxData, %function
 322              	SPIM_led_control_WriteTxData:
 323              	.LFB12:
 458:Generated_Source\PSoC5/SPIM_led_control.c **** 
 459:Generated_Source\PSoC5/SPIM_led_control.c **** 
 460:Generated_Source\PSoC5/SPIM_led_control.c **** /*******************************************************************************
 461:Generated_Source\PSoC5/SPIM_led_control.c **** * Function Name: SPIM_led_control_WriteTxData
 462:Generated_Source\PSoC5/SPIM_led_control.c **** ********************************************************************************
ARM GAS  C:\Users\marti\AppData\Local\Temp\cc4SFPeY.s 			page 15


 463:Generated_Source\PSoC5/SPIM_led_control.c **** *
 464:Generated_Source\PSoC5/SPIM_led_control.c **** * Summary:
 465:Generated_Source\PSoC5/SPIM_led_control.c **** *  Write a byte of data to be sent across the SPI.
 466:Generated_Source\PSoC5/SPIM_led_control.c **** *
 467:Generated_Source\PSoC5/SPIM_led_control.c **** * Parameters:
 468:Generated_Source\PSoC5/SPIM_led_control.c **** *  txDataByte: The data value to send across the SPI.
 469:Generated_Source\PSoC5/SPIM_led_control.c **** *
 470:Generated_Source\PSoC5/SPIM_led_control.c **** * Return:
 471:Generated_Source\PSoC5/SPIM_led_control.c **** *  None.
 472:Generated_Source\PSoC5/SPIM_led_control.c **** *
 473:Generated_Source\PSoC5/SPIM_led_control.c **** * Global variables:
 474:Generated_Source\PSoC5/SPIM_led_control.c **** *  SPIM_led_control_txBufferWrite - used for the account of the bytes which
 475:Generated_Source\PSoC5/SPIM_led_control.c **** *  have been written down in the TX software buffer, modified every function
 476:Generated_Source\PSoC5/SPIM_led_control.c **** *  call if TX Software Buffer is used.
 477:Generated_Source\PSoC5/SPIM_led_control.c **** *  SPIM_led_control_txBufferRead - used for the account of the bytes which
 478:Generated_Source\PSoC5/SPIM_led_control.c **** *  have been read from the TX software buffer.
 479:Generated_Source\PSoC5/SPIM_led_control.c **** *  SPIM_led_control_txBuffer[SPIM_led_control_TX_BUFFER_SIZE] - used to store
 480:Generated_Source\PSoC5/SPIM_led_control.c **** *  data to sending, modified every function call if TX Software Buffer is used.
 481:Generated_Source\PSoC5/SPIM_led_control.c **** *
 482:Generated_Source\PSoC5/SPIM_led_control.c **** * Theory:
 483:Generated_Source\PSoC5/SPIM_led_control.c **** *  Allows the user to transmit any byte of data in a single transfer.
 484:Generated_Source\PSoC5/SPIM_led_control.c **** *
 485:Generated_Source\PSoC5/SPIM_led_control.c **** * Side Effects:
 486:Generated_Source\PSoC5/SPIM_led_control.c **** *  If this function is called again before the previous byte is finished then
 487:Generated_Source\PSoC5/SPIM_led_control.c **** *  the next byte will be appended to the transfer with no time between
 488:Generated_Source\PSoC5/SPIM_led_control.c **** *  the byte transfers. Clear Tx status register of the component.
 489:Generated_Source\PSoC5/SPIM_led_control.c **** *
 490:Generated_Source\PSoC5/SPIM_led_control.c **** * Reentrant:
 491:Generated_Source\PSoC5/SPIM_led_control.c **** *  No.
 492:Generated_Source\PSoC5/SPIM_led_control.c **** *
 493:Generated_Source\PSoC5/SPIM_led_control.c **** *******************************************************************************/
 494:Generated_Source\PSoC5/SPIM_led_control.c **** void SPIM_led_control_WriteTxData(uint8 txData) 
 495:Generated_Source\PSoC5/SPIM_led_control.c **** {
 324              		.loc 1 495 0
 325              		.cfi_startproc
 326              		@ args = 0, pretend = 0, frame = 0
 327              		@ frame_needed = 0, uses_anonymous_args = 0
 328              	.LVL13:
 329 0000 10B5     		push	{r4, lr}
 330              		.cfi_def_cfa_offset 8
 331              		.cfi_offset 4, -8
 332              		.cfi_offset 14, -4
 333 0002 0446     		mov	r4, r0
 334              	.L32:
 496:Generated_Source\PSoC5/SPIM_led_control.c ****     #if(SPIM_led_control_TX_SOFTWARE_BUF_ENABLED)
 497:Generated_Source\PSoC5/SPIM_led_control.c **** 
 498:Generated_Source\PSoC5/SPIM_led_control.c ****         uint8 tempStatus;
 499:Generated_Source\PSoC5/SPIM_led_control.c ****         uint8 tmpTxBufferRead;
 500:Generated_Source\PSoC5/SPIM_led_control.c **** 
 501:Generated_Source\PSoC5/SPIM_led_control.c ****         /* Block if TX buffer is FULL: don't overwrite */
 502:Generated_Source\PSoC5/SPIM_led_control.c ****         do
 503:Generated_Source\PSoC5/SPIM_led_control.c ****         {
 504:Generated_Source\PSoC5/SPIM_led_control.c ****             tmpTxBufferRead = SPIM_led_control_txBufferRead;
 335              		.loc 1 504 0
 336 0004 2B4B     		ldr	r3, .L40
 337 0006 1A78     		ldrb	r2, [r3]	@ zero_extendqisi2
 338              	.LVL14:
ARM GAS  C:\Users\marti\AppData\Local\Temp\cc4SFPeY.s 			page 16


 505:Generated_Source\PSoC5/SPIM_led_control.c ****             if(0u == tmpTxBufferRead)
 339              		.loc 1 505 0
 340 0008 02F0FF03 		and	r3, r2, #255
 341 000c 12B1     		cbz	r2, .L38
 506:Generated_Source\PSoC5/SPIM_led_control.c ****             {
 507:Generated_Source\PSoC5/SPIM_led_control.c ****                 tmpTxBufferRead = (SPIM_led_control_TX_BUFFER_SIZE - 1u);
 508:Generated_Source\PSoC5/SPIM_led_control.c ****             }
 509:Generated_Source\PSoC5/SPIM_led_control.c ****             else
 510:Generated_Source\PSoC5/SPIM_led_control.c ****             {
 511:Generated_Source\PSoC5/SPIM_led_control.c ****                 tmpTxBufferRead--;
 342              		.loc 1 511 0
 343 000e 013B     		subs	r3, r3, #1
 344 0010 DBB2     		uxtb	r3, r3
 345              	.LVL15:
 346 0012 00E0     		b	.L31
 347              	.LVL16:
 348              	.L38:
 507:Generated_Source\PSoC5/SPIM_led_control.c ****             }
 349              		.loc 1 507 0
 350 0014 0F23     		movs	r3, #15
 351              	.LVL17:
 352              	.L31:
 512:Generated_Source\PSoC5/SPIM_led_control.c ****             }
 513:Generated_Source\PSoC5/SPIM_led_control.c **** 
 514:Generated_Source\PSoC5/SPIM_led_control.c ****         }while(tmpTxBufferRead == SPIM_led_control_txBufferWrite);
 353              		.loc 1 514 0
 354 0016 284A     		ldr	r2, .L40+4
 355 0018 1278     		ldrb	r2, [r2]	@ zero_extendqisi2
 356 001a D2B2     		uxtb	r2, r2
 357 001c 9342     		cmp	r3, r2
 358 001e F1D0     		beq	.L32
 515:Generated_Source\PSoC5/SPIM_led_control.c **** 
 516:Generated_Source\PSoC5/SPIM_led_control.c ****         /* Disable TX interrupt to protect global veriables */
 517:Generated_Source\PSoC5/SPIM_led_control.c ****         SPIM_led_control_DisableTxInt();
 359              		.loc 1 517 0
 360 0020 FFF7FEFF 		bl	SPIM_led_control_DisableTxInt
 361              	.LVL18:
 518:Generated_Source\PSoC5/SPIM_led_control.c **** 
 519:Generated_Source\PSoC5/SPIM_led_control.c ****         tempStatus = SPIM_led_control_GET_STATUS_TX(SPIM_led_control_swStatusTx);
 362              		.loc 1 519 0
 363 0024 254B     		ldr	r3, .L40+8
 364 0026 1978     		ldrb	r1, [r3]	@ zero_extendqisi2
 365 0028 254A     		ldr	r2, .L40+12
 366 002a 1378     		ldrb	r3, [r2]	@ zero_extendqisi2
 367 002c 03F00903 		and	r3, r3, #9
 368 0030 0B43     		orrs	r3, r3, r1
 369              	.LVL19:
 520:Generated_Source\PSoC5/SPIM_led_control.c ****         SPIM_led_control_swStatusTx = tempStatus;
 370              		.loc 1 520 0
 371 0032 1370     		strb	r3, [r2]
 521:Generated_Source\PSoC5/SPIM_led_control.c **** 
 522:Generated_Source\PSoC5/SPIM_led_control.c **** 
 523:Generated_Source\PSoC5/SPIM_led_control.c ****         if((SPIM_led_control_txBufferRead == SPIM_led_control_txBufferWrite) &&
 372              		.loc 1 523 0
 373 0034 1F4B     		ldr	r3, .L40
 374              	.LVL20:
 375 0036 1A78     		ldrb	r2, [r3]	@ zero_extendqisi2
ARM GAS  C:\Users\marti\AppData\Local\Temp\cc4SFPeY.s 			page 17


 376 0038 D2B2     		uxtb	r2, r2
 377 003a 1F4B     		ldr	r3, .L40+4
 378 003c 1B78     		ldrb	r3, [r3]	@ zero_extendqisi2
 379 003e DBB2     		uxtb	r3, r3
 380 0040 9A42     		cmp	r2, r3
 381 0042 07D1     		bne	.L33
 524:Generated_Source\PSoC5/SPIM_led_control.c ****            (0u != (SPIM_led_control_swStatusTx & SPIM_led_control_STS_TX_FIFO_NOT_FULL)))
 382              		.loc 1 524 0 discriminator 1
 383 0044 1E4B     		ldr	r3, .L40+12
 384 0046 1B78     		ldrb	r3, [r3]	@ zero_extendqisi2
 523:Generated_Source\PSoC5/SPIM_led_control.c ****            (0u != (SPIM_led_control_swStatusTx & SPIM_led_control_STS_TX_FIFO_NOT_FULL)))
 385              		.loc 1 523 0 discriminator 1
 386 0048 13F0040F 		tst	r3, #4
 387 004c 02D0     		beq	.L33
 525:Generated_Source\PSoC5/SPIM_led_control.c ****         {
 526:Generated_Source\PSoC5/SPIM_led_control.c ****             /* Put data element into the TX FIFO */
 527:Generated_Source\PSoC5/SPIM_led_control.c ****             CY_SET_REG8(SPIM_led_control_TXDATA_PTR, txData);
 388              		.loc 1 527 0
 389 004e 1D4B     		ldr	r3, .L40+16
 390 0050 1C70     		strb	r4, [r3]
 391              	.LVL21:
 392 0052 2CE0     		b	.L34
 393              	.LVL22:
 394              	.L33:
 528:Generated_Source\PSoC5/SPIM_led_control.c ****         }
 529:Generated_Source\PSoC5/SPIM_led_control.c ****         else
 530:Generated_Source\PSoC5/SPIM_led_control.c ****         {
 531:Generated_Source\PSoC5/SPIM_led_control.c ****             /* Add to the TX software buffer */
 532:Generated_Source\PSoC5/SPIM_led_control.c ****             SPIM_led_control_txBufferWrite++;
 395              		.loc 1 532 0
 396 0054 184A     		ldr	r2, .L40+4
 397 0056 1378     		ldrb	r3, [r2]	@ zero_extendqisi2
 398 0058 0133     		adds	r3, r3, #1
 399 005a DBB2     		uxtb	r3, r3
 400 005c 1370     		strb	r3, [r2]
 401              	.LVL23:
 533:Generated_Source\PSoC5/SPIM_led_control.c ****             if(SPIM_led_control_txBufferWrite >= SPIM_led_control_TX_BUFFER_SIZE)
 402              		.loc 1 533 0
 403 005e 1378     		ldrb	r3, [r2]	@ zero_extendqisi2
 404 0060 DBB2     		uxtb	r3, r3
 405 0062 0F2B     		cmp	r3, #15
 406 0064 02D9     		bls	.L35
 534:Generated_Source\PSoC5/SPIM_led_control.c ****             {
 535:Generated_Source\PSoC5/SPIM_led_control.c ****                 SPIM_led_control_txBufferWrite = 0u;
 407              		.loc 1 535 0
 408 0066 0022     		movs	r2, #0
 409 0068 134B     		ldr	r3, .L40+4
 410 006a 1A70     		strb	r2, [r3]
 411              	.L35:
 536:Generated_Source\PSoC5/SPIM_led_control.c ****             }
 537:Generated_Source\PSoC5/SPIM_led_control.c **** 
 538:Generated_Source\PSoC5/SPIM_led_control.c ****             if(SPIM_led_control_txBufferWrite == SPIM_led_control_txBufferRead)
 412              		.loc 1 538 0
 413 006c 124B     		ldr	r3, .L40+4
 414 006e 1A78     		ldrb	r2, [r3]	@ zero_extendqisi2
 415 0070 D2B2     		uxtb	r2, r2
 416 0072 104B     		ldr	r3, .L40
ARM GAS  C:\Users\marti\AppData\Local\Temp\cc4SFPeY.s 			page 18


 417 0074 1B78     		ldrb	r3, [r3]	@ zero_extendqisi2
 418 0076 DBB2     		uxtb	r3, r3
 419 0078 9A42     		cmp	r2, r3
 420 007a 0ED1     		bne	.L36
 539:Generated_Source\PSoC5/SPIM_led_control.c ****             {
 540:Generated_Source\PSoC5/SPIM_led_control.c ****                 SPIM_led_control_txBufferRead++;
 421              		.loc 1 540 0
 422 007c 0D4A     		ldr	r2, .L40
 423 007e 1378     		ldrb	r3, [r2]	@ zero_extendqisi2
 424 0080 0133     		adds	r3, r3, #1
 425 0082 DBB2     		uxtb	r3, r3
 426 0084 1370     		strb	r3, [r2]
 541:Generated_Source\PSoC5/SPIM_led_control.c ****                 if(SPIM_led_control_txBufferRead >= SPIM_led_control_TX_BUFFER_SIZE)
 427              		.loc 1 541 0
 428 0086 1378     		ldrb	r3, [r2]	@ zero_extendqisi2
 429 0088 DBB2     		uxtb	r3, r3
 430 008a 0F2B     		cmp	r3, #15
 431 008c 02D9     		bls	.L37
 542:Generated_Source\PSoC5/SPIM_led_control.c ****                 {
 543:Generated_Source\PSoC5/SPIM_led_control.c ****                     SPIM_led_control_txBufferRead = 0u;
 432              		.loc 1 543 0
 433 008e 0022     		movs	r2, #0
 434 0090 084B     		ldr	r3, .L40
 435 0092 1A70     		strb	r2, [r3]
 436              	.L37:
 544:Generated_Source\PSoC5/SPIM_led_control.c ****                 }
 545:Generated_Source\PSoC5/SPIM_led_control.c ****                 SPIM_led_control_txBufferFull = 1u;
 437              		.loc 1 545 0
 438 0094 0122     		movs	r2, #1
 439 0096 0C4B     		ldr	r3, .L40+20
 440 0098 1A70     		strb	r2, [r3]
 441              	.L36:
 546:Generated_Source\PSoC5/SPIM_led_control.c ****             }
 547:Generated_Source\PSoC5/SPIM_led_control.c **** 
 548:Generated_Source\PSoC5/SPIM_led_control.c ****             SPIM_led_control_txBuffer[SPIM_led_control_txBufferWrite] = txData;
 442              		.loc 1 548 0
 443 009a 074B     		ldr	r3, .L40+4
 444 009c 1B78     		ldrb	r3, [r3]	@ zero_extendqisi2
 445 009e DBB2     		uxtb	r3, r3
 446 00a0 0A4A     		ldr	r2, .L40+24
 447 00a2 D454     		strb	r4, [r2, r3]
 549:Generated_Source\PSoC5/SPIM_led_control.c **** 
 550:Generated_Source\PSoC5/SPIM_led_control.c ****             SPIM_led_control_TX_STATUS_MASK_REG |= SPIM_led_control_STS_TX_FIFO_NOT_FULL;
 448              		.loc 1 550 0
 449 00a4 0A4A     		ldr	r2, .L40+28
 450 00a6 1378     		ldrb	r3, [r2]	@ zero_extendqisi2
 451 00a8 43F00403 		orr	r3, r3, #4
 452 00ac 1370     		strb	r3, [r2]
 453              	.L34:
 551:Generated_Source\PSoC5/SPIM_led_control.c ****         }
 552:Generated_Source\PSoC5/SPIM_led_control.c **** 
 553:Generated_Source\PSoC5/SPIM_led_control.c ****         SPIM_led_control_EnableTxInt();
 454              		.loc 1 553 0
 455 00ae FFF7FEFF 		bl	SPIM_led_control_EnableTxInt
 456              	.LVL24:
 457 00b2 10BD     		pop	{r4, pc}
 458              	.L41:
ARM GAS  C:\Users\marti\AppData\Local\Temp\cc4SFPeY.s 			page 19


 459              		.align	2
 460              	.L40:
 461 00b4 00000000 		.word	SPIM_led_control_txBufferRead
 462 00b8 00000000 		.word	SPIM_led_control_txBufferWrite
 463 00bc 68650040 		.word	1073767784
 464 00c0 00000000 		.word	SPIM_led_control_swStatusTx
 465 00c4 47640040 		.word	1073767495
 466 00c8 00000000 		.word	SPIM_led_control_txBufferFull
 467 00cc 00000000 		.word	SPIM_led_control_txBuffer
 468 00d0 88650040 		.word	1073767816
 469              		.cfi_endproc
 470              	.LFE12:
 471              		.size	SPIM_led_control_WriteTxData, .-SPIM_led_control_WriteTxData
 472              		.section	.text.SPIM_led_control_ReadRxData,"ax",%progbits
 473              		.align	2
 474              		.global	SPIM_led_control_ReadRxData
 475              		.thumb
 476              		.thumb_func
 477              		.type	SPIM_led_control_ReadRxData, %function
 478              	SPIM_led_control_ReadRxData:
 479              	.LFB13:
 554:Generated_Source\PSoC5/SPIM_led_control.c **** 
 555:Generated_Source\PSoC5/SPIM_led_control.c ****     #else
 556:Generated_Source\PSoC5/SPIM_led_control.c ****         /* Wait until TX FIFO has a place */
 557:Generated_Source\PSoC5/SPIM_led_control.c ****         while(0u == (SPIM_led_control_TX_STATUS_REG & SPIM_led_control_STS_TX_FIFO_NOT_FULL))
 558:Generated_Source\PSoC5/SPIM_led_control.c ****         {
 559:Generated_Source\PSoC5/SPIM_led_control.c ****         }
 560:Generated_Source\PSoC5/SPIM_led_control.c **** 
 561:Generated_Source\PSoC5/SPIM_led_control.c ****         /* Put data element into the TX FIFO */
 562:Generated_Source\PSoC5/SPIM_led_control.c ****         CY_SET_REG8(SPIM_led_control_TXDATA_PTR, txData);
 563:Generated_Source\PSoC5/SPIM_led_control.c **** 
 564:Generated_Source\PSoC5/SPIM_led_control.c ****     #endif /* (SPIM_led_control_TX_SOFTWARE_BUF_ENABLED) */
 565:Generated_Source\PSoC5/SPIM_led_control.c **** }
 566:Generated_Source\PSoC5/SPIM_led_control.c **** 
 567:Generated_Source\PSoC5/SPIM_led_control.c **** 
 568:Generated_Source\PSoC5/SPIM_led_control.c **** /*******************************************************************************
 569:Generated_Source\PSoC5/SPIM_led_control.c **** * Function Name: SPIM_led_control_ReadRxData
 570:Generated_Source\PSoC5/SPIM_led_control.c **** ********************************************************************************
 571:Generated_Source\PSoC5/SPIM_led_control.c **** *
 572:Generated_Source\PSoC5/SPIM_led_control.c **** * Summary:
 573:Generated_Source\PSoC5/SPIM_led_control.c **** *  Read the next byte of data received across the SPI.
 574:Generated_Source\PSoC5/SPIM_led_control.c **** *
 575:Generated_Source\PSoC5/SPIM_led_control.c **** * Parameters:
 576:Generated_Source\PSoC5/SPIM_led_control.c **** *  None.
 577:Generated_Source\PSoC5/SPIM_led_control.c **** *
 578:Generated_Source\PSoC5/SPIM_led_control.c **** * Return:
 579:Generated_Source\PSoC5/SPIM_led_control.c **** *  The next byte of data read from the FIFO.
 580:Generated_Source\PSoC5/SPIM_led_control.c **** *
 581:Generated_Source\PSoC5/SPIM_led_control.c **** * Global variables:
 582:Generated_Source\PSoC5/SPIM_led_control.c **** *  SPIM_led_control_rxBufferWrite - used for the account of the bytes which
 583:Generated_Source\PSoC5/SPIM_led_control.c **** *  have been written down in the RX software buffer.
 584:Generated_Source\PSoC5/SPIM_led_control.c **** *  SPIM_led_control_rxBufferRead - used for the account of the bytes which
 585:Generated_Source\PSoC5/SPIM_led_control.c **** *  have been read from the RX software buffer, modified every function
 586:Generated_Source\PSoC5/SPIM_led_control.c **** *  call if RX Software Buffer is used.
 587:Generated_Source\PSoC5/SPIM_led_control.c **** *  SPIM_led_control_rxBuffer[SPIM_led_control_RX_BUFFER_SIZE] - used to store
 588:Generated_Source\PSoC5/SPIM_led_control.c **** *  received data.
 589:Generated_Source\PSoC5/SPIM_led_control.c **** *
ARM GAS  C:\Users\marti\AppData\Local\Temp\cc4SFPeY.s 			page 20


 590:Generated_Source\PSoC5/SPIM_led_control.c **** * Theory:
 591:Generated_Source\PSoC5/SPIM_led_control.c **** *  Allows the user to read a byte of data received.
 592:Generated_Source\PSoC5/SPIM_led_control.c **** *
 593:Generated_Source\PSoC5/SPIM_led_control.c **** * Side Effects:
 594:Generated_Source\PSoC5/SPIM_led_control.c **** *  Will return invalid data if the FIFO is empty. The user should Call
 595:Generated_Source\PSoC5/SPIM_led_control.c **** *  GetRxBufferSize() and if it returns a non-zero value then it is safe to call
 596:Generated_Source\PSoC5/SPIM_led_control.c **** *  ReadByte() function.
 597:Generated_Source\PSoC5/SPIM_led_control.c **** *
 598:Generated_Source\PSoC5/SPIM_led_control.c **** * Reentrant:
 599:Generated_Source\PSoC5/SPIM_led_control.c **** *  No.
 600:Generated_Source\PSoC5/SPIM_led_control.c **** *
 601:Generated_Source\PSoC5/SPIM_led_control.c **** *******************************************************************************/
 602:Generated_Source\PSoC5/SPIM_led_control.c **** uint8 SPIM_led_control_ReadRxData(void) 
 603:Generated_Source\PSoC5/SPIM_led_control.c **** {
 480              		.loc 1 603 0
 481              		.cfi_startproc
 482              		@ args = 0, pretend = 0, frame = 0
 483              		@ frame_needed = 0, uses_anonymous_args = 0
 484              		@ link register save eliminated.
 604:Generated_Source\PSoC5/SPIM_led_control.c ****     uint8 rxData;
 605:Generated_Source\PSoC5/SPIM_led_control.c **** 
 606:Generated_Source\PSoC5/SPIM_led_control.c ****     #if(SPIM_led_control_RX_SOFTWARE_BUF_ENABLED)
 607:Generated_Source\PSoC5/SPIM_led_control.c **** 
 608:Generated_Source\PSoC5/SPIM_led_control.c ****         /* Disable RX interrupt to protect global veriables */
 609:Generated_Source\PSoC5/SPIM_led_control.c ****         SPIM_led_control_DisableRxInt();
 610:Generated_Source\PSoC5/SPIM_led_control.c **** 
 611:Generated_Source\PSoC5/SPIM_led_control.c ****         if(SPIM_led_control_rxBufferRead != SPIM_led_control_rxBufferWrite)
 612:Generated_Source\PSoC5/SPIM_led_control.c ****         {
 613:Generated_Source\PSoC5/SPIM_led_control.c ****             if(0u == SPIM_led_control_rxBufferFull)
 614:Generated_Source\PSoC5/SPIM_led_control.c ****             {
 615:Generated_Source\PSoC5/SPIM_led_control.c ****                 SPIM_led_control_rxBufferRead++;
 616:Generated_Source\PSoC5/SPIM_led_control.c ****                 if(SPIM_led_control_rxBufferRead >= SPIM_led_control_RX_BUFFER_SIZE)
 617:Generated_Source\PSoC5/SPIM_led_control.c ****                 {
 618:Generated_Source\PSoC5/SPIM_led_control.c ****                     SPIM_led_control_rxBufferRead = 0u;
 619:Generated_Source\PSoC5/SPIM_led_control.c ****                 }
 620:Generated_Source\PSoC5/SPIM_led_control.c ****             }
 621:Generated_Source\PSoC5/SPIM_led_control.c ****             else
 622:Generated_Source\PSoC5/SPIM_led_control.c ****             {
 623:Generated_Source\PSoC5/SPIM_led_control.c ****                 SPIM_led_control_rxBufferFull = 0u;
 624:Generated_Source\PSoC5/SPIM_led_control.c ****             }
 625:Generated_Source\PSoC5/SPIM_led_control.c ****         }
 626:Generated_Source\PSoC5/SPIM_led_control.c **** 
 627:Generated_Source\PSoC5/SPIM_led_control.c ****         rxData = SPIM_led_control_rxBuffer[SPIM_led_control_rxBufferRead];
 628:Generated_Source\PSoC5/SPIM_led_control.c **** 
 629:Generated_Source\PSoC5/SPIM_led_control.c ****         SPIM_led_control_EnableRxInt();
 630:Generated_Source\PSoC5/SPIM_led_control.c **** 
 631:Generated_Source\PSoC5/SPIM_led_control.c ****     #else
 632:Generated_Source\PSoC5/SPIM_led_control.c **** 
 633:Generated_Source\PSoC5/SPIM_led_control.c ****         rxData = CY_GET_REG8(SPIM_led_control_RXDATA_PTR);
 485              		.loc 1 633 0
 486 0000 014B     		ldr	r3, .L43
 487 0002 1878     		ldrb	r0, [r3]	@ zero_extendqisi2
 488              	.LVL25:
 634:Generated_Source\PSoC5/SPIM_led_control.c **** 
 635:Generated_Source\PSoC5/SPIM_led_control.c ****     #endif /* (SPIM_led_control_RX_SOFTWARE_BUF_ENABLED) */
 636:Generated_Source\PSoC5/SPIM_led_control.c **** 
 637:Generated_Source\PSoC5/SPIM_led_control.c ****     return(rxData);
ARM GAS  C:\Users\marti\AppData\Local\Temp\cc4SFPeY.s 			page 21


 638:Generated_Source\PSoC5/SPIM_led_control.c **** }
 489              		.loc 1 638 0
 490 0004 7047     		bx	lr
 491              	.L44:
 492 0006 00BF     		.align	2
 493              	.L43:
 494 0008 57640040 		.word	1073767511
 495              		.cfi_endproc
 496              	.LFE13:
 497              		.size	SPIM_led_control_ReadRxData, .-SPIM_led_control_ReadRxData
 498              		.section	.text.SPIM_led_control_GetRxBufferSize,"ax",%progbits
 499              		.align	2
 500              		.global	SPIM_led_control_GetRxBufferSize
 501              		.thumb
 502              		.thumb_func
 503              		.type	SPIM_led_control_GetRxBufferSize, %function
 504              	SPIM_led_control_GetRxBufferSize:
 505              	.LFB14:
 639:Generated_Source\PSoC5/SPIM_led_control.c **** 
 640:Generated_Source\PSoC5/SPIM_led_control.c **** 
 641:Generated_Source\PSoC5/SPIM_led_control.c **** /*******************************************************************************
 642:Generated_Source\PSoC5/SPIM_led_control.c **** * Function Name: SPIM_led_control_GetRxBufferSize
 643:Generated_Source\PSoC5/SPIM_led_control.c **** ********************************************************************************
 644:Generated_Source\PSoC5/SPIM_led_control.c **** *
 645:Generated_Source\PSoC5/SPIM_led_control.c **** * Summary:
 646:Generated_Source\PSoC5/SPIM_led_control.c **** *  Returns the number of bytes/words of data currently held in the RX buffer.
 647:Generated_Source\PSoC5/SPIM_led_control.c **** *  If RX Software Buffer not used then function return 0 if FIFO empty or 1 if
 648:Generated_Source\PSoC5/SPIM_led_control.c **** *  FIFO not empty. In another case function return size of RX Software Buffer.
 649:Generated_Source\PSoC5/SPIM_led_control.c **** *
 650:Generated_Source\PSoC5/SPIM_led_control.c **** * Parameters:
 651:Generated_Source\PSoC5/SPIM_led_control.c **** *  None.
 652:Generated_Source\PSoC5/SPIM_led_control.c **** *
 653:Generated_Source\PSoC5/SPIM_led_control.c **** * Return:
 654:Generated_Source\PSoC5/SPIM_led_control.c **** *  Integer count of the number of bytes/words in the RX buffer.
 655:Generated_Source\PSoC5/SPIM_led_control.c **** *
 656:Generated_Source\PSoC5/SPIM_led_control.c **** * Global variables:
 657:Generated_Source\PSoC5/SPIM_led_control.c **** *  SPIM_led_control_rxBufferWrite - used for the account of the bytes which
 658:Generated_Source\PSoC5/SPIM_led_control.c **** *  have been written down in the RX software buffer.
 659:Generated_Source\PSoC5/SPIM_led_control.c **** *  SPIM_led_control_rxBufferRead - used for the account of the bytes which
 660:Generated_Source\PSoC5/SPIM_led_control.c **** *  have been read from the RX software buffer.
 661:Generated_Source\PSoC5/SPIM_led_control.c **** *
 662:Generated_Source\PSoC5/SPIM_led_control.c **** * Side Effects:
 663:Generated_Source\PSoC5/SPIM_led_control.c **** *  Clear status register of the component.
 664:Generated_Source\PSoC5/SPIM_led_control.c **** *
 665:Generated_Source\PSoC5/SPIM_led_control.c **** *******************************************************************************/
 666:Generated_Source\PSoC5/SPIM_led_control.c **** uint8 SPIM_led_control_GetRxBufferSize(void) 
 667:Generated_Source\PSoC5/SPIM_led_control.c **** {
 506              		.loc 1 667 0
 507              		.cfi_startproc
 508              		@ args = 0, pretend = 0, frame = 0
 509              		@ frame_needed = 0, uses_anonymous_args = 0
 510              		@ link register save eliminated.
 668:Generated_Source\PSoC5/SPIM_led_control.c ****     uint8 size;
 669:Generated_Source\PSoC5/SPIM_led_control.c **** 
 670:Generated_Source\PSoC5/SPIM_led_control.c ****     #if(SPIM_led_control_RX_SOFTWARE_BUF_ENABLED)
 671:Generated_Source\PSoC5/SPIM_led_control.c **** 
 672:Generated_Source\PSoC5/SPIM_led_control.c ****         /* Disable RX interrupt to protect global veriables */
ARM GAS  C:\Users\marti\AppData\Local\Temp\cc4SFPeY.s 			page 22


 673:Generated_Source\PSoC5/SPIM_led_control.c ****         SPIM_led_control_DisableRxInt();
 674:Generated_Source\PSoC5/SPIM_led_control.c **** 
 675:Generated_Source\PSoC5/SPIM_led_control.c ****         if(SPIM_led_control_rxBufferRead == SPIM_led_control_rxBufferWrite)
 676:Generated_Source\PSoC5/SPIM_led_control.c ****         {
 677:Generated_Source\PSoC5/SPIM_led_control.c ****             size = 0u;
 678:Generated_Source\PSoC5/SPIM_led_control.c ****         }
 679:Generated_Source\PSoC5/SPIM_led_control.c ****         else if(SPIM_led_control_rxBufferRead < SPIM_led_control_rxBufferWrite)
 680:Generated_Source\PSoC5/SPIM_led_control.c ****         {
 681:Generated_Source\PSoC5/SPIM_led_control.c ****             size = (SPIM_led_control_rxBufferWrite - SPIM_led_control_rxBufferRead);
 682:Generated_Source\PSoC5/SPIM_led_control.c ****         }
 683:Generated_Source\PSoC5/SPIM_led_control.c ****         else
 684:Generated_Source\PSoC5/SPIM_led_control.c ****         {
 685:Generated_Source\PSoC5/SPIM_led_control.c ****             size = (SPIM_led_control_RX_BUFFER_SIZE - SPIM_led_control_rxBufferRead) + SPIM_led_con
 686:Generated_Source\PSoC5/SPIM_led_control.c ****         }
 687:Generated_Source\PSoC5/SPIM_led_control.c **** 
 688:Generated_Source\PSoC5/SPIM_led_control.c ****         SPIM_led_control_EnableRxInt();
 689:Generated_Source\PSoC5/SPIM_led_control.c **** 
 690:Generated_Source\PSoC5/SPIM_led_control.c ****     #else
 691:Generated_Source\PSoC5/SPIM_led_control.c **** 
 692:Generated_Source\PSoC5/SPIM_led_control.c ****         /* We can only know if there is data in the RX FIFO */
 693:Generated_Source\PSoC5/SPIM_led_control.c ****         size = (0u != (SPIM_led_control_RX_STATUS_REG & SPIM_led_control_STS_RX_FIFO_NOT_EMPTY)) ? 
 511              		.loc 1 693 0
 512 0000 044B     		ldr	r3, .L48
 513 0002 1B78     		ldrb	r3, [r3]	@ zero_extendqisi2
 514 0004 13F0200F 		tst	r3, #32
 515 0008 01D0     		beq	.L47
 516 000a 0120     		movs	r0, #1
 517 000c 7047     		bx	lr
 518              	.L47:
 519 000e 0020     		movs	r0, #0
 520              	.LVL26:
 694:Generated_Source\PSoC5/SPIM_led_control.c **** 
 695:Generated_Source\PSoC5/SPIM_led_control.c ****     #endif /* (SPIM_led_control_TX_SOFTWARE_BUF_ENABLED) */
 696:Generated_Source\PSoC5/SPIM_led_control.c **** 
 697:Generated_Source\PSoC5/SPIM_led_control.c ****     return(size);
 698:Generated_Source\PSoC5/SPIM_led_control.c **** }
 521              		.loc 1 698 0
 522 0010 7047     		bx	lr
 523              	.L49:
 524 0012 00BF     		.align	2
 525              	.L48:
 526 0014 68640040 		.word	1073767528
 527              		.cfi_endproc
 528              	.LFE14:
 529              		.size	SPIM_led_control_GetRxBufferSize, .-SPIM_led_control_GetRxBufferSize
 530              		.section	.text.SPIM_led_control_GetTxBufferSize,"ax",%progbits
 531              		.align	2
 532              		.global	SPIM_led_control_GetTxBufferSize
 533              		.thumb
 534              		.thumb_func
 535              		.type	SPIM_led_control_GetTxBufferSize, %function
 536              	SPIM_led_control_GetTxBufferSize:
 537              	.LFB15:
 699:Generated_Source\PSoC5/SPIM_led_control.c **** 
 700:Generated_Source\PSoC5/SPIM_led_control.c **** 
 701:Generated_Source\PSoC5/SPIM_led_control.c **** /*******************************************************************************
 702:Generated_Source\PSoC5/SPIM_led_control.c **** * Function Name: SPIM_led_control_GetTxBufferSize
ARM GAS  C:\Users\marti\AppData\Local\Temp\cc4SFPeY.s 			page 23


 703:Generated_Source\PSoC5/SPIM_led_control.c **** ********************************************************************************
 704:Generated_Source\PSoC5/SPIM_led_control.c **** *
 705:Generated_Source\PSoC5/SPIM_led_control.c **** * Summary:
 706:Generated_Source\PSoC5/SPIM_led_control.c **** *  Returns the number of bytes/words of data currently held in the TX buffer.
 707:Generated_Source\PSoC5/SPIM_led_control.c **** *  If TX Software Buffer not used then function return 0 - if FIFO empty, 1 - if
 708:Generated_Source\PSoC5/SPIM_led_control.c **** *  FIFO not full, 4 - if FIFO full. In another case function return size of TX
 709:Generated_Source\PSoC5/SPIM_led_control.c **** *  Software Buffer.
 710:Generated_Source\PSoC5/SPIM_led_control.c **** *
 711:Generated_Source\PSoC5/SPIM_led_control.c **** * Parameters:
 712:Generated_Source\PSoC5/SPIM_led_control.c **** *  None.
 713:Generated_Source\PSoC5/SPIM_led_control.c **** *
 714:Generated_Source\PSoC5/SPIM_led_control.c **** * Return:
 715:Generated_Source\PSoC5/SPIM_led_control.c **** *  Integer count of the number of bytes/words in the TX buffer.
 716:Generated_Source\PSoC5/SPIM_led_control.c **** *
 717:Generated_Source\PSoC5/SPIM_led_control.c **** * Global variables:
 718:Generated_Source\PSoC5/SPIM_led_control.c **** *  SPIM_led_control_txBufferWrite - used for the account of the bytes which
 719:Generated_Source\PSoC5/SPIM_led_control.c **** *  have been written down in the TX software buffer.
 720:Generated_Source\PSoC5/SPIM_led_control.c **** *  SPIM_led_control_txBufferRead - used for the account of the bytes which
 721:Generated_Source\PSoC5/SPIM_led_control.c **** *  have been read from the TX software buffer.
 722:Generated_Source\PSoC5/SPIM_led_control.c **** *
 723:Generated_Source\PSoC5/SPIM_led_control.c **** * Side Effects:
 724:Generated_Source\PSoC5/SPIM_led_control.c **** *  Clear status register of the component.
 725:Generated_Source\PSoC5/SPIM_led_control.c **** *
 726:Generated_Source\PSoC5/SPIM_led_control.c **** *******************************************************************************/
 727:Generated_Source\PSoC5/SPIM_led_control.c **** uint8  SPIM_led_control_GetTxBufferSize(void) 
 728:Generated_Source\PSoC5/SPIM_led_control.c **** {
 538              		.loc 1 728 0
 539              		.cfi_startproc
 540              		@ args = 0, pretend = 0, frame = 0
 541              		@ frame_needed = 0, uses_anonymous_args = 0
 542 0000 10B5     		push	{r4, lr}
 543              		.cfi_def_cfa_offset 8
 544              		.cfi_offset 4, -8
 545              		.cfi_offset 14, -4
 729:Generated_Source\PSoC5/SPIM_led_control.c ****     uint8 size;
 730:Generated_Source\PSoC5/SPIM_led_control.c **** 
 731:Generated_Source\PSoC5/SPIM_led_control.c ****     #if(SPIM_led_control_TX_SOFTWARE_BUF_ENABLED)
 732:Generated_Source\PSoC5/SPIM_led_control.c ****         /* Disable TX interrupt to protect global veriables */
 733:Generated_Source\PSoC5/SPIM_led_control.c ****         SPIM_led_control_DisableTxInt();
 546              		.loc 1 733 0
 547 0002 FFF7FEFF 		bl	SPIM_led_control_DisableTxInt
 548              	.LVL27:
 734:Generated_Source\PSoC5/SPIM_led_control.c **** 
 735:Generated_Source\PSoC5/SPIM_led_control.c ****         if(SPIM_led_control_txBufferRead == SPIM_led_control_txBufferWrite)
 549              		.loc 1 735 0
 550 0006 124B     		ldr	r3, .L55
 551 0008 1A78     		ldrb	r2, [r3]	@ zero_extendqisi2
 552 000a D2B2     		uxtb	r2, r2
 553 000c 114B     		ldr	r3, .L55+4
 554 000e 1B78     		ldrb	r3, [r3]	@ zero_extendqisi2
 555 0010 DBB2     		uxtb	r3, r3
 556 0012 9A42     		cmp	r2, r3
 557 0014 16D0     		beq	.L53
 736:Generated_Source\PSoC5/SPIM_led_control.c ****         {
 737:Generated_Source\PSoC5/SPIM_led_control.c ****             size = 0u;
 738:Generated_Source\PSoC5/SPIM_led_control.c ****         }
 739:Generated_Source\PSoC5/SPIM_led_control.c ****         else if(SPIM_led_control_txBufferRead < SPIM_led_control_txBufferWrite)
ARM GAS  C:\Users\marti\AppData\Local\Temp\cc4SFPeY.s 			page 24


 558              		.loc 1 739 0
 559 0016 0E4B     		ldr	r3, .L55
 560 0018 1A78     		ldrb	r2, [r3]	@ zero_extendqisi2
 561 001a D2B2     		uxtb	r2, r2
 562 001c 0D4B     		ldr	r3, .L55+4
 563 001e 1B78     		ldrb	r3, [r3]	@ zero_extendqisi2
 564 0020 DBB2     		uxtb	r3, r3
 565 0022 9A42     		cmp	r2, r3
 566 0024 06D2     		bcs	.L52
 740:Generated_Source\PSoC5/SPIM_led_control.c ****         {
 741:Generated_Source\PSoC5/SPIM_led_control.c ****             size = (SPIM_led_control_txBufferWrite - SPIM_led_control_txBufferRead);
 567              		.loc 1 741 0
 568 0026 0B4B     		ldr	r3, .L55+4
 569 0028 1B78     		ldrb	r3, [r3]	@ zero_extendqisi2
 570 002a 094A     		ldr	r2, .L55
 571 002c 1478     		ldrb	r4, [r2]	@ zero_extendqisi2
 572 002e 1C1B     		subs	r4, r3, r4
 573 0030 E4B2     		uxtb	r4, r4
 574              	.LVL28:
 575 0032 08E0     		b	.L51
 576              	.LVL29:
 577              	.L52:
 742:Generated_Source\PSoC5/SPIM_led_control.c ****         }
 743:Generated_Source\PSoC5/SPIM_led_control.c ****         else
 744:Generated_Source\PSoC5/SPIM_led_control.c ****         {
 745:Generated_Source\PSoC5/SPIM_led_control.c ****             size = (SPIM_led_control_TX_BUFFER_SIZE - SPIM_led_control_txBufferRead) + SPIM_led_con
 578              		.loc 1 745 0
 579 0034 074B     		ldr	r3, .L55+4
 580 0036 1B78     		ldrb	r3, [r3]	@ zero_extendqisi2
 581 0038 054A     		ldr	r2, .L55
 582 003a 1478     		ldrb	r4, [r2]	@ zero_extendqisi2
 583 003c 1C1B     		subs	r4, r3, r4
 584 003e 1034     		adds	r4, r4, #16
 585 0040 E4B2     		uxtb	r4, r4
 586              	.LVL30:
 587 0042 00E0     		b	.L51
 588              	.LVL31:
 589              	.L53:
 737:Generated_Source\PSoC5/SPIM_led_control.c ****         }
 590              		.loc 1 737 0
 591 0044 0024     		movs	r4, #0
 592              	.L51:
 593              	.LVL32:
 746:Generated_Source\PSoC5/SPIM_led_control.c ****         }
 747:Generated_Source\PSoC5/SPIM_led_control.c **** 
 748:Generated_Source\PSoC5/SPIM_led_control.c ****         SPIM_led_control_EnableTxInt();
 594              		.loc 1 748 0
 595 0046 FFF7FEFF 		bl	SPIM_led_control_EnableTxInt
 596              	.LVL33:
 749:Generated_Source\PSoC5/SPIM_led_control.c **** 
 750:Generated_Source\PSoC5/SPIM_led_control.c ****     #else
 751:Generated_Source\PSoC5/SPIM_led_control.c **** 
 752:Generated_Source\PSoC5/SPIM_led_control.c ****         size = SPIM_led_control_TX_STATUS_REG;
 753:Generated_Source\PSoC5/SPIM_led_control.c **** 
 754:Generated_Source\PSoC5/SPIM_led_control.c ****         if(0u != (size & SPIM_led_control_STS_TX_FIFO_EMPTY))
 755:Generated_Source\PSoC5/SPIM_led_control.c ****         {
 756:Generated_Source\PSoC5/SPIM_led_control.c ****             size = 0u;
ARM GAS  C:\Users\marti\AppData\Local\Temp\cc4SFPeY.s 			page 25


 757:Generated_Source\PSoC5/SPIM_led_control.c ****         }
 758:Generated_Source\PSoC5/SPIM_led_control.c ****         else if(0u != (size & SPIM_led_control_STS_TX_FIFO_NOT_FULL))
 759:Generated_Source\PSoC5/SPIM_led_control.c ****         {
 760:Generated_Source\PSoC5/SPIM_led_control.c ****             size = 1u;
 761:Generated_Source\PSoC5/SPIM_led_control.c ****         }
 762:Generated_Source\PSoC5/SPIM_led_control.c ****         else
 763:Generated_Source\PSoC5/SPIM_led_control.c ****         {
 764:Generated_Source\PSoC5/SPIM_led_control.c ****             size = SPIM_led_control_FIFO_SIZE;
 765:Generated_Source\PSoC5/SPIM_led_control.c ****         }
 766:Generated_Source\PSoC5/SPIM_led_control.c **** 
 767:Generated_Source\PSoC5/SPIM_led_control.c ****     #endif /* (SPIM_led_control_TX_SOFTWARE_BUF_ENABLED) */
 768:Generated_Source\PSoC5/SPIM_led_control.c **** 
 769:Generated_Source\PSoC5/SPIM_led_control.c ****     return(size);
 770:Generated_Source\PSoC5/SPIM_led_control.c **** }
 597              		.loc 1 770 0
 598 004a 2046     		mov	r0, r4
 599 004c 10BD     		pop	{r4, pc}
 600              	.LVL34:
 601              	.L56:
 602 004e 00BF     		.align	2
 603              	.L55:
 604 0050 00000000 		.word	SPIM_led_control_txBufferRead
 605 0054 00000000 		.word	SPIM_led_control_txBufferWrite
 606              		.cfi_endproc
 607              	.LFE15:
 608              		.size	SPIM_led_control_GetTxBufferSize, .-SPIM_led_control_GetTxBufferSize
 609              		.section	.text.SPIM_led_control_ClearRxBuffer,"ax",%progbits
 610              		.align	2
 611              		.global	SPIM_led_control_ClearRxBuffer
 612              		.thumb
 613              		.thumb_func
 614              		.type	SPIM_led_control_ClearRxBuffer, %function
 615              	SPIM_led_control_ClearRxBuffer:
 616              	.LFB16:
 771:Generated_Source\PSoC5/SPIM_led_control.c **** 
 772:Generated_Source\PSoC5/SPIM_led_control.c **** 
 773:Generated_Source\PSoC5/SPIM_led_control.c **** /*******************************************************************************
 774:Generated_Source\PSoC5/SPIM_led_control.c **** * Function Name: SPIM_led_control_ClearRxBuffer
 775:Generated_Source\PSoC5/SPIM_led_control.c **** ********************************************************************************
 776:Generated_Source\PSoC5/SPIM_led_control.c **** *
 777:Generated_Source\PSoC5/SPIM_led_control.c **** * Summary:
 778:Generated_Source\PSoC5/SPIM_led_control.c **** *  Clear the RX RAM buffer by setting the read and write pointers both to zero.
 779:Generated_Source\PSoC5/SPIM_led_control.c **** *
 780:Generated_Source\PSoC5/SPIM_led_control.c **** * Parameters:
 781:Generated_Source\PSoC5/SPIM_led_control.c **** *  None.
 782:Generated_Source\PSoC5/SPIM_led_control.c **** *
 783:Generated_Source\PSoC5/SPIM_led_control.c **** * Return:
 784:Generated_Source\PSoC5/SPIM_led_control.c **** *  None.
 785:Generated_Source\PSoC5/SPIM_led_control.c **** *
 786:Generated_Source\PSoC5/SPIM_led_control.c **** * Global variables:
 787:Generated_Source\PSoC5/SPIM_led_control.c **** *  SPIM_led_control_rxBufferWrite - used for the account of the bytes which
 788:Generated_Source\PSoC5/SPIM_led_control.c **** *  have been written down in the RX software buffer, modified every function
 789:Generated_Source\PSoC5/SPIM_led_control.c **** *  call - resets to zero.
 790:Generated_Source\PSoC5/SPIM_led_control.c **** *  SPIM_led_control_rxBufferRead - used for the account of the bytes which
 791:Generated_Source\PSoC5/SPIM_led_control.c **** *  have been read from the RX software buffer, modified every function call -
 792:Generated_Source\PSoC5/SPIM_led_control.c **** *  resets to zero.
 793:Generated_Source\PSoC5/SPIM_led_control.c **** *
ARM GAS  C:\Users\marti\AppData\Local\Temp\cc4SFPeY.s 			page 26


 794:Generated_Source\PSoC5/SPIM_led_control.c **** * Theory:
 795:Generated_Source\PSoC5/SPIM_led_control.c **** *  Setting the pointers to zero makes the system believe there is no data to
 796:Generated_Source\PSoC5/SPIM_led_control.c **** *  read and writing will resume at address 0 overwriting any data that may have
 797:Generated_Source\PSoC5/SPIM_led_control.c **** *  remained in the RAM.
 798:Generated_Source\PSoC5/SPIM_led_control.c **** *
 799:Generated_Source\PSoC5/SPIM_led_control.c **** * Side Effects:
 800:Generated_Source\PSoC5/SPIM_led_control.c **** *  Any received data not read from the RAM buffer will be lost when overwritten.
 801:Generated_Source\PSoC5/SPIM_led_control.c **** *
 802:Generated_Source\PSoC5/SPIM_led_control.c **** * Reentrant:
 803:Generated_Source\PSoC5/SPIM_led_control.c **** *  No.
 804:Generated_Source\PSoC5/SPIM_led_control.c **** *
 805:Generated_Source\PSoC5/SPIM_led_control.c **** *******************************************************************************/
 806:Generated_Source\PSoC5/SPIM_led_control.c **** void SPIM_led_control_ClearRxBuffer(void) 
 807:Generated_Source\PSoC5/SPIM_led_control.c **** {
 617              		.loc 1 807 0
 618              		.cfi_startproc
 619              		@ args = 0, pretend = 0, frame = 0
 620              		@ frame_needed = 0, uses_anonymous_args = 0
 621              		@ link register save eliminated.
 808:Generated_Source\PSoC5/SPIM_led_control.c ****     /* Clear Hardware RX FIFO */
 809:Generated_Source\PSoC5/SPIM_led_control.c ****     while(0u !=(SPIM_led_control_RX_STATUS_REG & SPIM_led_control_STS_RX_FIFO_NOT_EMPTY))
 622              		.loc 1 809 0
 623 0000 01E0     		b	.L58
 624              	.L59:
 810:Generated_Source\PSoC5/SPIM_led_control.c ****     {
 811:Generated_Source\PSoC5/SPIM_led_control.c ****         (void) CY_GET_REG8(SPIM_led_control_RXDATA_PTR);
 625              		.loc 1 811 0
 626 0002 044B     		ldr	r3, .L60
 627 0004 1B78     		ldrb	r3, [r3]	@ zero_extendqisi2
 628              	.L58:
 809:Generated_Source\PSoC5/SPIM_led_control.c ****     {
 629              		.loc 1 809 0
 630 0006 044B     		ldr	r3, .L60+4
 631 0008 1B78     		ldrb	r3, [r3]	@ zero_extendqisi2
 632 000a 13F0200F 		tst	r3, #32
 633 000e F8D1     		bne	.L59
 812:Generated_Source\PSoC5/SPIM_led_control.c ****     }
 813:Generated_Source\PSoC5/SPIM_led_control.c **** 
 814:Generated_Source\PSoC5/SPIM_led_control.c ****     #if(SPIM_led_control_RX_SOFTWARE_BUF_ENABLED)
 815:Generated_Source\PSoC5/SPIM_led_control.c ****         /* Disable RX interrupt to protect global veriables */
 816:Generated_Source\PSoC5/SPIM_led_control.c ****         SPIM_led_control_DisableRxInt();
 817:Generated_Source\PSoC5/SPIM_led_control.c **** 
 818:Generated_Source\PSoC5/SPIM_led_control.c ****         SPIM_led_control_rxBufferFull  = 0u;
 819:Generated_Source\PSoC5/SPIM_led_control.c ****         SPIM_led_control_rxBufferRead  = 0u;
 820:Generated_Source\PSoC5/SPIM_led_control.c ****         SPIM_led_control_rxBufferWrite = 0u;
 821:Generated_Source\PSoC5/SPIM_led_control.c **** 
 822:Generated_Source\PSoC5/SPIM_led_control.c ****         SPIM_led_control_EnableRxInt();
 823:Generated_Source\PSoC5/SPIM_led_control.c ****     #endif /* (SPIM_led_control_RX_SOFTWARE_BUF_ENABLED) */
 824:Generated_Source\PSoC5/SPIM_led_control.c **** }
 634              		.loc 1 824 0
 635 0010 7047     		bx	lr
 636              	.L61:
 637 0012 00BF     		.align	2
 638              	.L60:
 639 0014 57640040 		.word	1073767511
 640 0018 68640040 		.word	1073767528
 641              		.cfi_endproc
ARM GAS  C:\Users\marti\AppData\Local\Temp\cc4SFPeY.s 			page 27


 642              	.LFE16:
 643              		.size	SPIM_led_control_ClearRxBuffer, .-SPIM_led_control_ClearRxBuffer
 644              		.section	.text.SPIM_led_control_ClearTxBuffer,"ax",%progbits
 645              		.align	2
 646              		.global	SPIM_led_control_ClearTxBuffer
 647              		.thumb
 648              		.thumb_func
 649              		.type	SPIM_led_control_ClearTxBuffer, %function
 650              	SPIM_led_control_ClearTxBuffer:
 651              	.LFB17:
 825:Generated_Source\PSoC5/SPIM_led_control.c **** 
 826:Generated_Source\PSoC5/SPIM_led_control.c **** 
 827:Generated_Source\PSoC5/SPIM_led_control.c **** /*******************************************************************************
 828:Generated_Source\PSoC5/SPIM_led_control.c **** * Function Name: SPIM_led_control_ClearTxBuffer
 829:Generated_Source\PSoC5/SPIM_led_control.c **** ********************************************************************************
 830:Generated_Source\PSoC5/SPIM_led_control.c **** *
 831:Generated_Source\PSoC5/SPIM_led_control.c **** * Summary:
 832:Generated_Source\PSoC5/SPIM_led_control.c **** *  Clear the TX RAM buffer by setting the read and write pointers both to zero.
 833:Generated_Source\PSoC5/SPIM_led_control.c **** *
 834:Generated_Source\PSoC5/SPIM_led_control.c **** * Parameters:
 835:Generated_Source\PSoC5/SPIM_led_control.c **** *  None.
 836:Generated_Source\PSoC5/SPIM_led_control.c **** *
 837:Generated_Source\PSoC5/SPIM_led_control.c **** * Return:
 838:Generated_Source\PSoC5/SPIM_led_control.c **** *  None.
 839:Generated_Source\PSoC5/SPIM_led_control.c **** *
 840:Generated_Source\PSoC5/SPIM_led_control.c **** * Global variables:
 841:Generated_Source\PSoC5/SPIM_led_control.c **** *  SPIM_led_control_txBufferWrite - used for the account of the bytes which
 842:Generated_Source\PSoC5/SPIM_led_control.c **** *  have been written down in the TX software buffer, modified every function
 843:Generated_Source\PSoC5/SPIM_led_control.c **** *  call - resets to zero.
 844:Generated_Source\PSoC5/SPIM_led_control.c **** *  SPIM_led_control_txBufferRead - used for the account of the bytes which
 845:Generated_Source\PSoC5/SPIM_led_control.c **** *  have been read from the TX software buffer, modified every function call -
 846:Generated_Source\PSoC5/SPIM_led_control.c **** *  resets to zero.
 847:Generated_Source\PSoC5/SPIM_led_control.c **** *
 848:Generated_Source\PSoC5/SPIM_led_control.c **** * Theory:
 849:Generated_Source\PSoC5/SPIM_led_control.c **** *  Setting the pointers to zero makes the system believe there is no data to
 850:Generated_Source\PSoC5/SPIM_led_control.c **** *  read and writing will resume at address 0 overwriting any data that may have
 851:Generated_Source\PSoC5/SPIM_led_control.c **** *  remained in the RAM.
 852:Generated_Source\PSoC5/SPIM_led_control.c **** *
 853:Generated_Source\PSoC5/SPIM_led_control.c **** * Side Effects:
 854:Generated_Source\PSoC5/SPIM_led_control.c **** *  Any data not yet transmitted from the RAM buffer will be lost when
 855:Generated_Source\PSoC5/SPIM_led_control.c **** *  overwritten.
 856:Generated_Source\PSoC5/SPIM_led_control.c **** *
 857:Generated_Source\PSoC5/SPIM_led_control.c **** * Reentrant:
 858:Generated_Source\PSoC5/SPIM_led_control.c **** *  No.
 859:Generated_Source\PSoC5/SPIM_led_control.c **** *
 860:Generated_Source\PSoC5/SPIM_led_control.c **** *******************************************************************************/
 861:Generated_Source\PSoC5/SPIM_led_control.c **** void SPIM_led_control_ClearTxBuffer(void) 
 862:Generated_Source\PSoC5/SPIM_led_control.c **** {
 652              		.loc 1 862 0
 653              		.cfi_startproc
 654              		@ args = 0, pretend = 0, frame = 0
 655              		@ frame_needed = 0, uses_anonymous_args = 0
 656 0000 08B5     		push	{r3, lr}
 657              		.cfi_def_cfa_offset 8
 658              		.cfi_offset 3, -8
 659              		.cfi_offset 14, -4
 863:Generated_Source\PSoC5/SPIM_led_control.c ****     uint8 enableInterrupts;
ARM GAS  C:\Users\marti\AppData\Local\Temp\cc4SFPeY.s 			page 28


 864:Generated_Source\PSoC5/SPIM_led_control.c **** 
 865:Generated_Source\PSoC5/SPIM_led_control.c ****     enableInterrupts = CyEnterCriticalSection();
 660              		.loc 1 865 0
 661 0002 FFF7FEFF 		bl	CyEnterCriticalSection
 662              	.LVL35:
 866:Generated_Source\PSoC5/SPIM_led_control.c ****     /* Clear TX FIFO */
 867:Generated_Source\PSoC5/SPIM_led_control.c ****     SPIM_led_control_AUX_CONTROL_DP0_REG |= ((uint8)  SPIM_led_control_TX_FIFO_CLR);
 663              		.loc 1 867 0
 664 0006 0E4B     		ldr	r3, .L64
 665 0008 1A78     		ldrb	r2, [r3]	@ zero_extendqisi2
 666 000a 42F00102 		orr	r2, r2, #1
 667 000e 1A70     		strb	r2, [r3]
 868:Generated_Source\PSoC5/SPIM_led_control.c ****     SPIM_led_control_AUX_CONTROL_DP0_REG &= ((uint8) ~SPIM_led_control_TX_FIFO_CLR);
 668              		.loc 1 868 0
 669 0010 1A78     		ldrb	r2, [r3]	@ zero_extendqisi2
 670 0012 02F0FE02 		and	r2, r2, #254
 671 0016 1A70     		strb	r2, [r3]
 869:Generated_Source\PSoC5/SPIM_led_control.c **** 
 870:Generated_Source\PSoC5/SPIM_led_control.c ****     #if(SPIM_led_control_USE_SECOND_DATAPATH)
 871:Generated_Source\PSoC5/SPIM_led_control.c ****         /* Clear TX FIFO for 2nd Datapath */
 872:Generated_Source\PSoC5/SPIM_led_control.c ****         SPIM_led_control_AUX_CONTROL_DP1_REG |= ((uint8)  SPIM_led_control_TX_FIFO_CLR);
 873:Generated_Source\PSoC5/SPIM_led_control.c ****         SPIM_led_control_AUX_CONTROL_DP1_REG &= ((uint8) ~SPIM_led_control_TX_FIFO_CLR);
 874:Generated_Source\PSoC5/SPIM_led_control.c ****     #endif /* (SPIM_led_control_USE_SECOND_DATAPATH) */
 875:Generated_Source\PSoC5/SPIM_led_control.c ****     CyExitCriticalSection(enableInterrupts);
 672              		.loc 1 875 0
 673 0018 FFF7FEFF 		bl	CyExitCriticalSection
 674              	.LVL36:
 876:Generated_Source\PSoC5/SPIM_led_control.c **** 
 877:Generated_Source\PSoC5/SPIM_led_control.c ****     #if(SPIM_led_control_TX_SOFTWARE_BUF_ENABLED)
 878:Generated_Source\PSoC5/SPIM_led_control.c ****         /* Disable TX interrupt to protect global veriables */
 879:Generated_Source\PSoC5/SPIM_led_control.c ****         SPIM_led_control_DisableTxInt();
 675              		.loc 1 879 0
 676 001c FFF7FEFF 		bl	SPIM_led_control_DisableTxInt
 677              	.LVL37:
 880:Generated_Source\PSoC5/SPIM_led_control.c **** 
 881:Generated_Source\PSoC5/SPIM_led_control.c ****         SPIM_led_control_txBufferFull  = 0u;
 678              		.loc 1 881 0
 679 0020 0023     		movs	r3, #0
 680 0022 084A     		ldr	r2, .L64+4
 681 0024 1370     		strb	r3, [r2]
 882:Generated_Source\PSoC5/SPIM_led_control.c ****         SPIM_led_control_txBufferRead  = 0u;
 682              		.loc 1 882 0
 683 0026 084A     		ldr	r2, .L64+8
 684 0028 1370     		strb	r3, [r2]
 883:Generated_Source\PSoC5/SPIM_led_control.c ****         SPIM_led_control_txBufferWrite = 0u;
 685              		.loc 1 883 0
 686 002a 084A     		ldr	r2, .L64+12
 687 002c 1370     		strb	r3, [r2]
 884:Generated_Source\PSoC5/SPIM_led_control.c **** 
 885:Generated_Source\PSoC5/SPIM_led_control.c ****         /* Buffer is EMPTY: disable TX FIFO NOT FULL interrupt */
 886:Generated_Source\PSoC5/SPIM_led_control.c ****         SPIM_led_control_TX_STATUS_MASK_REG &= ((uint8) ~SPIM_led_control_STS_TX_FIFO_NOT_FULL);
 688              		.loc 1 886 0
 689 002e 084A     		ldr	r2, .L64+16
 690 0030 1378     		ldrb	r3, [r2]	@ zero_extendqisi2
 691 0032 03F0FB03 		and	r3, r3, #251
 692 0036 1370     		strb	r3, [r2]
 887:Generated_Source\PSoC5/SPIM_led_control.c **** 
ARM GAS  C:\Users\marti\AppData\Local\Temp\cc4SFPeY.s 			page 29


 888:Generated_Source\PSoC5/SPIM_led_control.c ****         SPIM_led_control_EnableTxInt();
 693              		.loc 1 888 0
 694 0038 FFF7FEFF 		bl	SPIM_led_control_EnableTxInt
 695              	.LVL38:
 696 003c 08BD     		pop	{r3, pc}
 697              	.L65:
 698 003e 00BF     		.align	2
 699              	.L64:
 700 0040 97640040 		.word	1073767575
 701 0044 00000000 		.word	SPIM_led_control_txBufferFull
 702 0048 00000000 		.word	SPIM_led_control_txBufferRead
 703 004c 00000000 		.word	SPIM_led_control_txBufferWrite
 704 0050 88650040 		.word	1073767816
 705              		.cfi_endproc
 706              	.LFE17:
 707              		.size	SPIM_led_control_ClearTxBuffer, .-SPIM_led_control_ClearTxBuffer
 708              		.section	.text.SPIM_led_control_PutArray,"ax",%progbits
 709              		.align	2
 710              		.global	SPIM_led_control_PutArray
 711              		.thumb
 712              		.thumb_func
 713              		.type	SPIM_led_control_PutArray, %function
 714              	SPIM_led_control_PutArray:
 715              	.LFB18:
 889:Generated_Source\PSoC5/SPIM_led_control.c ****     #endif /* (SPIM_led_control_TX_SOFTWARE_BUF_ENABLED) */
 890:Generated_Source\PSoC5/SPIM_led_control.c **** }
 891:Generated_Source\PSoC5/SPIM_led_control.c **** 
 892:Generated_Source\PSoC5/SPIM_led_control.c **** 
 893:Generated_Source\PSoC5/SPIM_led_control.c **** #if(0u != SPIM_led_control_BIDIRECTIONAL_MODE)
 894:Generated_Source\PSoC5/SPIM_led_control.c ****     /*******************************************************************************
 895:Generated_Source\PSoC5/SPIM_led_control.c ****     * Function Name: SPIM_led_control_TxEnable
 896:Generated_Source\PSoC5/SPIM_led_control.c ****     ********************************************************************************
 897:Generated_Source\PSoC5/SPIM_led_control.c ****     *
 898:Generated_Source\PSoC5/SPIM_led_control.c ****     * Summary:
 899:Generated_Source\PSoC5/SPIM_led_control.c ****     *  If the SPI master is configured to use a single bi-directional pin then this
 900:Generated_Source\PSoC5/SPIM_led_control.c ****     *  will set the bi-directional pin to transmit.
 901:Generated_Source\PSoC5/SPIM_led_control.c ****     *
 902:Generated_Source\PSoC5/SPIM_led_control.c ****     * Parameters:
 903:Generated_Source\PSoC5/SPIM_led_control.c ****     *  None.
 904:Generated_Source\PSoC5/SPIM_led_control.c ****     *
 905:Generated_Source\PSoC5/SPIM_led_control.c ****     * Return:
 906:Generated_Source\PSoC5/SPIM_led_control.c ****     *  None.
 907:Generated_Source\PSoC5/SPIM_led_control.c ****     *
 908:Generated_Source\PSoC5/SPIM_led_control.c ****     *******************************************************************************/
 909:Generated_Source\PSoC5/SPIM_led_control.c ****     void SPIM_led_control_TxEnable(void) 
 910:Generated_Source\PSoC5/SPIM_led_control.c ****     {
 911:Generated_Source\PSoC5/SPIM_led_control.c ****         SPIM_led_control_CONTROL_REG |= SPIM_led_control_CTRL_TX_SIGNAL_EN;
 912:Generated_Source\PSoC5/SPIM_led_control.c ****     }
 913:Generated_Source\PSoC5/SPIM_led_control.c **** 
 914:Generated_Source\PSoC5/SPIM_led_control.c **** 
 915:Generated_Source\PSoC5/SPIM_led_control.c ****     /*******************************************************************************
 916:Generated_Source\PSoC5/SPIM_led_control.c ****     * Function Name: SPIM_led_control_TxDisable
 917:Generated_Source\PSoC5/SPIM_led_control.c ****     ********************************************************************************
 918:Generated_Source\PSoC5/SPIM_led_control.c ****     *
 919:Generated_Source\PSoC5/SPIM_led_control.c ****     * Summary:
 920:Generated_Source\PSoC5/SPIM_led_control.c ****     *  If the SPI master is configured to use a single bi-directional pin then this
 921:Generated_Source\PSoC5/SPIM_led_control.c ****     *  will set the bi-directional pin to receive.
ARM GAS  C:\Users\marti\AppData\Local\Temp\cc4SFPeY.s 			page 30


 922:Generated_Source\PSoC5/SPIM_led_control.c ****     *
 923:Generated_Source\PSoC5/SPIM_led_control.c ****     * Parameters:
 924:Generated_Source\PSoC5/SPIM_led_control.c ****     *  None.
 925:Generated_Source\PSoC5/SPIM_led_control.c ****     *
 926:Generated_Source\PSoC5/SPIM_led_control.c ****     * Return:
 927:Generated_Source\PSoC5/SPIM_led_control.c ****     *  None.
 928:Generated_Source\PSoC5/SPIM_led_control.c ****     *
 929:Generated_Source\PSoC5/SPIM_led_control.c ****     *******************************************************************************/
 930:Generated_Source\PSoC5/SPIM_led_control.c ****     void SPIM_led_control_TxDisable(void) 
 931:Generated_Source\PSoC5/SPIM_led_control.c ****     {
 932:Generated_Source\PSoC5/SPIM_led_control.c ****         SPIM_led_control_CONTROL_REG &= ((uint8) ~SPIM_led_control_CTRL_TX_SIGNAL_EN);
 933:Generated_Source\PSoC5/SPIM_led_control.c ****     }
 934:Generated_Source\PSoC5/SPIM_led_control.c **** 
 935:Generated_Source\PSoC5/SPIM_led_control.c **** #endif /* (0u != SPIM_led_control_BIDIRECTIONAL_MODE) */
 936:Generated_Source\PSoC5/SPIM_led_control.c **** 
 937:Generated_Source\PSoC5/SPIM_led_control.c **** 
 938:Generated_Source\PSoC5/SPIM_led_control.c **** /*******************************************************************************
 939:Generated_Source\PSoC5/SPIM_led_control.c **** * Function Name: SPIM_led_control_PutArray
 940:Generated_Source\PSoC5/SPIM_led_control.c **** ********************************************************************************
 941:Generated_Source\PSoC5/SPIM_led_control.c **** *
 942:Generated_Source\PSoC5/SPIM_led_control.c **** * Summary:
 943:Generated_Source\PSoC5/SPIM_led_control.c **** *  Write available data from ROM/RAM to the TX buffer while space is available
 944:Generated_Source\PSoC5/SPIM_led_control.c **** *  in the TX buffer. Keep trying until all data is passed to the TX buffer.
 945:Generated_Source\PSoC5/SPIM_led_control.c **** *
 946:Generated_Source\PSoC5/SPIM_led_control.c **** * Parameters:
 947:Generated_Source\PSoC5/SPIM_led_control.c **** *  *buffer: Pointer to the location in RAM containing the data to send
 948:Generated_Source\PSoC5/SPIM_led_control.c **** *  byteCount: The number of bytes to move to the transmit buffer.
 949:Generated_Source\PSoC5/SPIM_led_control.c **** *
 950:Generated_Source\PSoC5/SPIM_led_control.c **** * Return:
 951:Generated_Source\PSoC5/SPIM_led_control.c **** *  None.
 952:Generated_Source\PSoC5/SPIM_led_control.c **** *
 953:Generated_Source\PSoC5/SPIM_led_control.c **** * Side Effects:
 954:Generated_Source\PSoC5/SPIM_led_control.c **** *  Will stay in this routine until all data has been sent.  May get locked in
 955:Generated_Source\PSoC5/SPIM_led_control.c **** *  this loop if data is not being initiated by the master if there is not
 956:Generated_Source\PSoC5/SPIM_led_control.c **** *  enough room in the TX FIFO.
 957:Generated_Source\PSoC5/SPIM_led_control.c **** *
 958:Generated_Source\PSoC5/SPIM_led_control.c **** * Reentrant:
 959:Generated_Source\PSoC5/SPIM_led_control.c **** *  No.
 960:Generated_Source\PSoC5/SPIM_led_control.c **** *
 961:Generated_Source\PSoC5/SPIM_led_control.c **** *******************************************************************************/
 962:Generated_Source\PSoC5/SPIM_led_control.c **** void SPIM_led_control_PutArray(const uint8 buffer[], uint8 byteCount)
 963:Generated_Source\PSoC5/SPIM_led_control.c ****                                                                           
 964:Generated_Source\PSoC5/SPIM_led_control.c **** {
 716              		.loc 1 964 0
 717              		.cfi_startproc
 718              		@ args = 0, pretend = 0, frame = 0
 719              		@ frame_needed = 0, uses_anonymous_args = 0
 720              	.LVL39:
 721 0000 70B5     		push	{r4, r5, r6, lr}
 722              		.cfi_def_cfa_offset 16
 723              		.cfi_offset 4, -16
 724              		.cfi_offset 5, -12
 725              		.cfi_offset 6, -8
 726              		.cfi_offset 14, -4
 727 0002 0646     		mov	r6, r0
 728 0004 0C46     		mov	r4, r1
 729              	.LVL40:
ARM GAS  C:\Users\marti\AppData\Local\Temp\cc4SFPeY.s 			page 31


 965:Generated_Source\PSoC5/SPIM_led_control.c ****     uint8 bufIndex;
 966:Generated_Source\PSoC5/SPIM_led_control.c **** 
 967:Generated_Source\PSoC5/SPIM_led_control.c ****     bufIndex = 0u;
 730              		.loc 1 967 0
 731 0006 0025     		movs	r5, #0
 968:Generated_Source\PSoC5/SPIM_led_control.c **** 
 969:Generated_Source\PSoC5/SPIM_led_control.c ****     while(byteCount > 0u)
 732              		.loc 1 969 0
 733 0008 06E0     		b	.L67
 734              	.LVL41:
 735              	.L68:
 970:Generated_Source\PSoC5/SPIM_led_control.c ****     {
 971:Generated_Source\PSoC5/SPIM_led_control.c ****         SPIM_led_control_WriteTxData(buffer[bufIndex]);
 736              		.loc 1 971 0
 737 000a 705D     		ldrb	r0, [r6, r5]	@ zero_extendqisi2
 738 000c FFF7FEFF 		bl	SPIM_led_control_WriteTxData
 739              	.LVL42:
 972:Generated_Source\PSoC5/SPIM_led_control.c ****         bufIndex++;
 740              		.loc 1 972 0
 741 0010 0135     		adds	r5, r5, #1
 742              	.LVL43:
 743 0012 EDB2     		uxtb	r5, r5
 744              	.LVL44:
 973:Generated_Source\PSoC5/SPIM_led_control.c ****         byteCount--;
 745              		.loc 1 973 0
 746 0014 013C     		subs	r4, r4, #1
 747              	.LVL45:
 748 0016 E4B2     		uxtb	r4, r4
 749              	.LVL46:
 750              	.L67:
 969:Generated_Source\PSoC5/SPIM_led_control.c ****     {
 751              		.loc 1 969 0
 752 0018 002C     		cmp	r4, #0
 753 001a F6D1     		bne	.L68
 974:Generated_Source\PSoC5/SPIM_led_control.c ****     }
 975:Generated_Source\PSoC5/SPIM_led_control.c **** }
 754              		.loc 1 975 0
 755 001c 70BD     		pop	{r4, r5, r6, pc}
 756              		.cfi_endproc
 757              	.LFE18:
 758              		.size	SPIM_led_control_PutArray, .-SPIM_led_control_PutArray
 759 001e 00BF     		.section	.text.SPIM_led_control_ClearFIFO,"ax",%progbits
 760              		.align	2
 761              		.global	SPIM_led_control_ClearFIFO
 762              		.thumb
 763              		.thumb_func
 764              		.type	SPIM_led_control_ClearFIFO, %function
 765              	SPIM_led_control_ClearFIFO:
 766              	.LFB19:
 976:Generated_Source\PSoC5/SPIM_led_control.c **** 
 977:Generated_Source\PSoC5/SPIM_led_control.c **** 
 978:Generated_Source\PSoC5/SPIM_led_control.c **** /*******************************************************************************
 979:Generated_Source\PSoC5/SPIM_led_control.c **** * Function Name: SPIM_led_control_ClearFIFO
 980:Generated_Source\PSoC5/SPIM_led_control.c **** ********************************************************************************
 981:Generated_Source\PSoC5/SPIM_led_control.c **** *
 982:Generated_Source\PSoC5/SPIM_led_control.c **** * Summary:
 983:Generated_Source\PSoC5/SPIM_led_control.c **** *  Clear the RX and TX FIFO's of all data for a fresh start.
ARM GAS  C:\Users\marti\AppData\Local\Temp\cc4SFPeY.s 			page 32


 984:Generated_Source\PSoC5/SPIM_led_control.c **** *
 985:Generated_Source\PSoC5/SPIM_led_control.c **** * Parameters:
 986:Generated_Source\PSoC5/SPIM_led_control.c **** *  None.
 987:Generated_Source\PSoC5/SPIM_led_control.c **** *
 988:Generated_Source\PSoC5/SPIM_led_control.c **** * Return:
 989:Generated_Source\PSoC5/SPIM_led_control.c **** *  None.
 990:Generated_Source\PSoC5/SPIM_led_control.c **** *
 991:Generated_Source\PSoC5/SPIM_led_control.c **** * Side Effects:
 992:Generated_Source\PSoC5/SPIM_led_control.c **** *  Clear status register of the component.
 993:Generated_Source\PSoC5/SPIM_led_control.c **** *
 994:Generated_Source\PSoC5/SPIM_led_control.c **** *******************************************************************************/
 995:Generated_Source\PSoC5/SPIM_led_control.c **** void SPIM_led_control_ClearFIFO(void) 
 996:Generated_Source\PSoC5/SPIM_led_control.c **** {
 767              		.loc 1 996 0
 768              		.cfi_startproc
 769              		@ args = 0, pretend = 0, frame = 0
 770              		@ frame_needed = 0, uses_anonymous_args = 0
 771 0000 08B5     		push	{r3, lr}
 772              		.cfi_def_cfa_offset 8
 773              		.cfi_offset 3, -8
 774              		.cfi_offset 14, -4
 997:Generated_Source\PSoC5/SPIM_led_control.c ****     uint8 enableInterrupts;
 998:Generated_Source\PSoC5/SPIM_led_control.c **** 
 999:Generated_Source\PSoC5/SPIM_led_control.c ****     /* Clear Hardware RX FIFO */
1000:Generated_Source\PSoC5/SPIM_led_control.c ****     while(0u !=(SPIM_led_control_RX_STATUS_REG & SPIM_led_control_STS_RX_FIFO_NOT_EMPTY))
 775              		.loc 1 1000 0
 776 0002 01E0     		b	.L71
 777              	.L72:
1001:Generated_Source\PSoC5/SPIM_led_control.c ****     {
1002:Generated_Source\PSoC5/SPIM_led_control.c ****         (void) CY_GET_REG8(SPIM_led_control_RXDATA_PTR);
 778              		.loc 1 1002 0
 779 0004 0A4B     		ldr	r3, .L74
 780 0006 1B78     		ldrb	r3, [r3]	@ zero_extendqisi2
 781              	.L71:
1000:Generated_Source\PSoC5/SPIM_led_control.c ****     {
 782              		.loc 1 1000 0
 783 0008 0A4B     		ldr	r3, .L74+4
 784 000a 1B78     		ldrb	r3, [r3]	@ zero_extendqisi2
 785 000c 13F0200F 		tst	r3, #32
 786 0010 F8D1     		bne	.L72
1003:Generated_Source\PSoC5/SPIM_led_control.c ****     }
1004:Generated_Source\PSoC5/SPIM_led_control.c **** 
1005:Generated_Source\PSoC5/SPIM_led_control.c ****     enableInterrupts = CyEnterCriticalSection();
 787              		.loc 1 1005 0
 788 0012 FFF7FEFF 		bl	CyEnterCriticalSection
 789              	.LVL47:
1006:Generated_Source\PSoC5/SPIM_led_control.c ****     /* Clear TX FIFO */
1007:Generated_Source\PSoC5/SPIM_led_control.c ****     SPIM_led_control_AUX_CONTROL_DP0_REG |= ((uint8)  SPIM_led_control_TX_FIFO_CLR);
 790              		.loc 1 1007 0
 791 0016 084B     		ldr	r3, .L74+8
 792 0018 1A78     		ldrb	r2, [r3]	@ zero_extendqisi2
 793 001a 42F00102 		orr	r2, r2, #1
 794 001e 1A70     		strb	r2, [r3]
1008:Generated_Source\PSoC5/SPIM_led_control.c ****     SPIM_led_control_AUX_CONTROL_DP0_REG &= ((uint8) ~SPIM_led_control_TX_FIFO_CLR);
 795              		.loc 1 1008 0
 796 0020 1A78     		ldrb	r2, [r3]	@ zero_extendqisi2
 797 0022 02F0FE02 		and	r2, r2, #254
ARM GAS  C:\Users\marti\AppData\Local\Temp\cc4SFPeY.s 			page 33


 798 0026 1A70     		strb	r2, [r3]
1009:Generated_Source\PSoC5/SPIM_led_control.c **** 
1010:Generated_Source\PSoC5/SPIM_led_control.c ****     #if(SPIM_led_control_USE_SECOND_DATAPATH)
1011:Generated_Source\PSoC5/SPIM_led_control.c ****         /* Clear TX FIFO for 2nd Datapath */
1012:Generated_Source\PSoC5/SPIM_led_control.c ****         SPIM_led_control_AUX_CONTROL_DP1_REG |= ((uint8)  SPIM_led_control_TX_FIFO_CLR);
1013:Generated_Source\PSoC5/SPIM_led_control.c ****         SPIM_led_control_AUX_CONTROL_DP1_REG &= ((uint8) ~SPIM_led_control_TX_FIFO_CLR);
1014:Generated_Source\PSoC5/SPIM_led_control.c ****     #endif /* (SPIM_led_control_USE_SECOND_DATAPATH) */
1015:Generated_Source\PSoC5/SPIM_led_control.c ****     CyExitCriticalSection(enableInterrupts);
 799              		.loc 1 1015 0
 800 0028 FFF7FEFF 		bl	CyExitCriticalSection
 801              	.LVL48:
 802 002c 08BD     		pop	{r3, pc}
 803              	.L75:
 804 002e 00BF     		.align	2
 805              	.L74:
 806 0030 57640040 		.word	1073767511
 807 0034 68640040 		.word	1073767528
 808 0038 97640040 		.word	1073767575
 809              		.cfi_endproc
 810              	.LFE19:
 811              		.size	SPIM_led_control_ClearFIFO, .-SPIM_led_control_ClearFIFO
 812              		.section	.text.SPIM_led_control_Init,"ax",%progbits
 813              		.align	2
 814              		.global	SPIM_led_control_Init
 815              		.thumb
 816              		.thumb_func
 817              		.type	SPIM_led_control_Init, %function
 818              	SPIM_led_control_Init:
 819              	.LFB0:
  64:Generated_Source\PSoC5/SPIM_led_control.c ****     /* Initialize the Bit counter */
 820              		.loc 1 64 0
 821              		.cfi_startproc
 822              		@ args = 0, pretend = 0, frame = 0
 823              		@ frame_needed = 0, uses_anonymous_args = 0
 824 0000 10B5     		push	{r4, lr}
 825              		.cfi_def_cfa_offset 8
 826              		.cfi_offset 4, -8
 827              		.cfi_offset 14, -4
  66:Generated_Source\PSoC5/SPIM_led_control.c **** 
 828              		.loc 1 66 0
 829 0002 0F22     		movs	r2, #15
 830 0004 0F4B     		ldr	r3, .L78
 831 0006 1A70     		strb	r2, [r3]
  70:Generated_Source\PSoC5/SPIM_led_control.c ****         CyIntSetPriority     (SPIM_led_control_TX_ISR_NUMBER,  SPIM_led_control_TX_ISR_PRIORITY);
 832              		.loc 1 70 0
 833 0008 0222     		movs	r2, #2
 834 000a 0F4B     		ldr	r3, .L78+4
 835 000c 1A60     		str	r2, [r3]
  71:Generated_Source\PSoC5/SPIM_led_control.c ****         (void) CyIntSetVector(SPIM_led_control_TX_ISR_NUMBER, &SPIM_led_control_TX_ISR);
 836              		.loc 1 71 0
 837 000e 0721     		movs	r1, #7
 838 0010 0120     		movs	r0, #1
 839 0012 FFF7FEFF 		bl	CyIntSetPriority
 840              	.LVL49:
  72:Generated_Source\PSoC5/SPIM_led_control.c ****     #endif /* (0u != SPIM_led_control_INTERNAL_TX_INT_ENABLED) */
 841              		.loc 1 72 0
 842 0016 0D49     		ldr	r1, .L78+8
ARM GAS  C:\Users\marti\AppData\Local\Temp\cc4SFPeY.s 			page 34


 843 0018 0120     		movs	r0, #1
 844 001a FFF7FEFF 		bl	CyIntSetVector
 845              	.LVL50:
  83:Generated_Source\PSoC5/SPIM_led_control.c **** 
 846              		.loc 1 83 0
 847 001e FFF7FEFF 		bl	SPIM_led_control_ClearFIFO
 848              	.LVL51:
  92:Generated_Source\PSoC5/SPIM_led_control.c ****         SPIM_led_control_txBufferRead  = 0u;
 849              		.loc 1 92 0
 850 0022 0024     		movs	r4, #0
 851 0024 0A4B     		ldr	r3, .L78+12
 852 0026 1C70     		strb	r4, [r3]
  93:Generated_Source\PSoC5/SPIM_led_control.c ****         SPIM_led_control_txBufferWrite = 0u;
 853              		.loc 1 93 0
 854 0028 0A4B     		ldr	r3, .L78+16
 855 002a 1C70     		strb	r4, [r3]
  94:Generated_Source\PSoC5/SPIM_led_control.c ****     #endif /* (SPIM_led_control_TX_SOFTWARE_BUF_ENABLED) */
 856              		.loc 1 94 0
 857 002c 0A4B     		ldr	r3, .L78+20
 858 002e 1C70     		strb	r4, [r3]
  97:Generated_Source\PSoC5/SPIM_led_control.c ****     (void) SPIM_led_control_ReadRxStatus(); /* Clear Rx status and swStatusRx */
 859              		.loc 1 97 0
 860 0030 FFF7FEFF 		bl	SPIM_led_control_ReadTxStatus
 861              	.LVL52:
  98:Generated_Source\PSoC5/SPIM_led_control.c **** 
 862              		.loc 1 98 0
 863 0034 FFF7FEFF 		bl	SPIM_led_control_ReadRxStatus
 864              	.LVL53:
 101:Generated_Source\PSoC5/SPIM_led_control.c ****     SPIM_led_control_RX_STATUS_MASK_REG = SPIM_led_control_RX_INIT_INTERRUPTS_MASK;
 865              		.loc 1 101 0
 866 0038 084B     		ldr	r3, .L78+24
 867 003a 1C70     		strb	r4, [r3]
 102:Generated_Source\PSoC5/SPIM_led_control.c **** }
 868              		.loc 1 102 0
 869 003c A3F58073 		sub	r3, r3, #256
 870 0040 1C70     		strb	r4, [r3]
 871 0042 10BD     		pop	{r4, pc}
 872              	.L79:
 873              		.align	2
 874              	.L78:
 875 0044 87650040 		.word	1073767815
 876 0048 80E100E0 		.word	-536813184
 877 004c 00000000 		.word	SPIM_led_control_TX_ISR
 878 0050 00000000 		.word	SPIM_led_control_txBufferFull
 879 0054 00000000 		.word	SPIM_led_control_txBufferRead
 880 0058 00000000 		.word	SPIM_led_control_txBufferWrite
 881 005c 88650040 		.word	1073767816
 882              		.cfi_endproc
 883              	.LFE0:
 884              		.size	SPIM_led_control_Init, .-SPIM_led_control_Init
 885              		.section	.text.SPIM_led_control_Start,"ax",%progbits
 886              		.align	2
 887              		.global	SPIM_led_control_Start
 888              		.thumb
 889              		.thumb_func
 890              		.type	SPIM_led_control_Start, %function
 891              	SPIM_led_control_Start:
ARM GAS  C:\Users\marti\AppData\Local\Temp\cc4SFPeY.s 			page 35


 892              	.LFB2:
 164:Generated_Source\PSoC5/SPIM_led_control.c ****     if(0u == SPIM_led_control_initVar)
 893              		.loc 1 164 0
 894              		.cfi_startproc
 895              		@ args = 0, pretend = 0, frame = 0
 896              		@ frame_needed = 0, uses_anonymous_args = 0
 897 0000 08B5     		push	{r3, lr}
 898              		.cfi_def_cfa_offset 8
 899              		.cfi_offset 3, -8
 900              		.cfi_offset 14, -4
 165:Generated_Source\PSoC5/SPIM_led_control.c ****     {
 901              		.loc 1 165 0
 902 0002 054B     		ldr	r3, .L83
 903 0004 1B78     		ldrb	r3, [r3]	@ zero_extendqisi2
 904 0006 23B9     		cbnz	r3, .L81
 167:Generated_Source\PSoC5/SPIM_led_control.c ****         SPIM_led_control_initVar = 1u;
 905              		.loc 1 167 0
 906 0008 FFF7FEFF 		bl	SPIM_led_control_Init
 907              	.LVL54:
 168:Generated_Source\PSoC5/SPIM_led_control.c ****     }
 908              		.loc 1 168 0
 909 000c 0122     		movs	r2, #1
 910 000e 024B     		ldr	r3, .L83
 911 0010 1A70     		strb	r2, [r3]
 912              	.L81:
 171:Generated_Source\PSoC5/SPIM_led_control.c **** }
 913              		.loc 1 171 0
 914 0012 FFF7FEFF 		bl	SPIM_led_control_Enable
 915              	.LVL55:
 916 0016 08BD     		pop	{r3, pc}
 917              	.L84:
 918              		.align	2
 919              	.L83:
 920 0018 00000000 		.word	.LANCHOR0
 921              		.cfi_endproc
 922              	.LFE2:
 923              		.size	SPIM_led_control_Start, .-SPIM_led_control_Start
 924              		.section	.text.SPIM_led_control_EnableInt,"ax",%progbits
 925              		.align	2
 926              		.global	SPIM_led_control_EnableInt
 927              		.thumb
 928              		.thumb_func
 929              		.type	SPIM_led_control_EnableInt, %function
 930              	SPIM_led_control_EnableInt:
 931              	.LFB20:
1016:Generated_Source\PSoC5/SPIM_led_control.c **** }
1017:Generated_Source\PSoC5/SPIM_led_control.c **** 
1018:Generated_Source\PSoC5/SPIM_led_control.c **** 
1019:Generated_Source\PSoC5/SPIM_led_control.c **** /* Following functions are for version Compatibility, they are obsolete.
1020:Generated_Source\PSoC5/SPIM_led_control.c **** *  Please do not use it in new projects.
1021:Generated_Source\PSoC5/SPIM_led_control.c **** */
1022:Generated_Source\PSoC5/SPIM_led_control.c **** 
1023:Generated_Source\PSoC5/SPIM_led_control.c **** 
1024:Generated_Source\PSoC5/SPIM_led_control.c **** /*******************************************************************************
1025:Generated_Source\PSoC5/SPIM_led_control.c **** * Function Name: SPIM_led_control_EnableInt
1026:Generated_Source\PSoC5/SPIM_led_control.c **** ********************************************************************************
1027:Generated_Source\PSoC5/SPIM_led_control.c **** *
ARM GAS  C:\Users\marti\AppData\Local\Temp\cc4SFPeY.s 			page 36


1028:Generated_Source\PSoC5/SPIM_led_control.c **** * Summary:
1029:Generated_Source\PSoC5/SPIM_led_control.c **** *  Enable internal interrupt generation.
1030:Generated_Source\PSoC5/SPIM_led_control.c **** *
1031:Generated_Source\PSoC5/SPIM_led_control.c **** * Parameters:
1032:Generated_Source\PSoC5/SPIM_led_control.c **** *  None.
1033:Generated_Source\PSoC5/SPIM_led_control.c **** *
1034:Generated_Source\PSoC5/SPIM_led_control.c **** * Return:
1035:Generated_Source\PSoC5/SPIM_led_control.c **** *  None.
1036:Generated_Source\PSoC5/SPIM_led_control.c **** *
1037:Generated_Source\PSoC5/SPIM_led_control.c **** * Theory:
1038:Generated_Source\PSoC5/SPIM_led_control.c **** *  Enable the internal interrupt output -or- the interrupt component itself.
1039:Generated_Source\PSoC5/SPIM_led_control.c **** *
1040:Generated_Source\PSoC5/SPIM_led_control.c **** *******************************************************************************/
1041:Generated_Source\PSoC5/SPIM_led_control.c **** void SPIM_led_control_EnableInt(void) 
1042:Generated_Source\PSoC5/SPIM_led_control.c **** {
 932              		.loc 1 1042 0
 933              		.cfi_startproc
 934              		@ args = 0, pretend = 0, frame = 0
 935              		@ frame_needed = 0, uses_anonymous_args = 0
 936 0000 08B5     		push	{r3, lr}
 937              		.cfi_def_cfa_offset 8
 938              		.cfi_offset 3, -8
 939              		.cfi_offset 14, -4
1043:Generated_Source\PSoC5/SPIM_led_control.c ****     SPIM_led_control_EnableRxInt();
1044:Generated_Source\PSoC5/SPIM_led_control.c ****     SPIM_led_control_EnableTxInt();
 940              		.loc 1 1044 0
 941 0002 FFF7FEFF 		bl	SPIM_led_control_EnableTxInt
 942              	.LVL56:
 943 0006 08BD     		pop	{r3, pc}
 944              		.cfi_endproc
 945              	.LFE20:
 946              		.size	SPIM_led_control_EnableInt, .-SPIM_led_control_EnableInt
 947              		.section	.text.SPIM_led_control_DisableInt,"ax",%progbits
 948              		.align	2
 949              		.global	SPIM_led_control_DisableInt
 950              		.thumb
 951              		.thumb_func
 952              		.type	SPIM_led_control_DisableInt, %function
 953              	SPIM_led_control_DisableInt:
 954              	.LFB21:
1045:Generated_Source\PSoC5/SPIM_led_control.c **** }
1046:Generated_Source\PSoC5/SPIM_led_control.c **** 
1047:Generated_Source\PSoC5/SPIM_led_control.c **** 
1048:Generated_Source\PSoC5/SPIM_led_control.c **** /*******************************************************************************
1049:Generated_Source\PSoC5/SPIM_led_control.c **** * Function Name: SPIM_led_control_DisableInt
1050:Generated_Source\PSoC5/SPIM_led_control.c **** ********************************************************************************
1051:Generated_Source\PSoC5/SPIM_led_control.c **** *
1052:Generated_Source\PSoC5/SPIM_led_control.c **** * Summary:
1053:Generated_Source\PSoC5/SPIM_led_control.c **** *  Disable internal interrupt generation.
1054:Generated_Source\PSoC5/SPIM_led_control.c **** *
1055:Generated_Source\PSoC5/SPIM_led_control.c **** * Parameters:
1056:Generated_Source\PSoC5/SPIM_led_control.c **** *  None.
1057:Generated_Source\PSoC5/SPIM_led_control.c **** *
1058:Generated_Source\PSoC5/SPIM_led_control.c **** * Return:
1059:Generated_Source\PSoC5/SPIM_led_control.c **** *  None.
1060:Generated_Source\PSoC5/SPIM_led_control.c **** *
1061:Generated_Source\PSoC5/SPIM_led_control.c **** * Theory:
ARM GAS  C:\Users\marti\AppData\Local\Temp\cc4SFPeY.s 			page 37


1062:Generated_Source\PSoC5/SPIM_led_control.c **** *  Disable the internal interrupt output -or- the interrupt component itself.
1063:Generated_Source\PSoC5/SPIM_led_control.c **** *
1064:Generated_Source\PSoC5/SPIM_led_control.c **** *******************************************************************************/
1065:Generated_Source\PSoC5/SPIM_led_control.c **** void SPIM_led_control_DisableInt(void) 
1066:Generated_Source\PSoC5/SPIM_led_control.c **** {
 955              		.loc 1 1066 0
 956              		.cfi_startproc
 957              		@ args = 0, pretend = 0, frame = 0
 958              		@ frame_needed = 0, uses_anonymous_args = 0
 959 0000 08B5     		push	{r3, lr}
 960              		.cfi_def_cfa_offset 8
 961              		.cfi_offset 3, -8
 962              		.cfi_offset 14, -4
1067:Generated_Source\PSoC5/SPIM_led_control.c ****     SPIM_led_control_DisableTxInt();
 963              		.loc 1 1067 0
 964 0002 FFF7FEFF 		bl	SPIM_led_control_DisableTxInt
 965              	.LVL57:
 966 0006 08BD     		pop	{r3, pc}
 967              		.cfi_endproc
 968              	.LFE21:
 969              		.size	SPIM_led_control_DisableInt, .-SPIM_led_control_DisableInt
 970              		.section	.text.SPIM_led_control_SetInterruptMode,"ax",%progbits
 971              		.align	2
 972              		.global	SPIM_led_control_SetInterruptMode
 973              		.thumb
 974              		.thumb_func
 975              		.type	SPIM_led_control_SetInterruptMode, %function
 976              	SPIM_led_control_SetInterruptMode:
 977              	.LFB22:
1068:Generated_Source\PSoC5/SPIM_led_control.c ****     SPIM_led_control_DisableRxInt();
1069:Generated_Source\PSoC5/SPIM_led_control.c **** }
1070:Generated_Source\PSoC5/SPIM_led_control.c **** 
1071:Generated_Source\PSoC5/SPIM_led_control.c **** 
1072:Generated_Source\PSoC5/SPIM_led_control.c **** /*******************************************************************************
1073:Generated_Source\PSoC5/SPIM_led_control.c **** * Function Name: SPIM_led_control_SetInterruptMode
1074:Generated_Source\PSoC5/SPIM_led_control.c **** ********************************************************************************
1075:Generated_Source\PSoC5/SPIM_led_control.c **** *
1076:Generated_Source\PSoC5/SPIM_led_control.c **** * Summary:
1077:Generated_Source\PSoC5/SPIM_led_control.c **** *  Configure which status bits trigger an interrupt event.
1078:Generated_Source\PSoC5/SPIM_led_control.c **** *
1079:Generated_Source\PSoC5/SPIM_led_control.c **** * Parameters:
1080:Generated_Source\PSoC5/SPIM_led_control.c **** *  intSrc: An or'd combination of the desired status bit masks (defined in the
1081:Generated_Source\PSoC5/SPIM_led_control.c **** *  header file).
1082:Generated_Source\PSoC5/SPIM_led_control.c **** *
1083:Generated_Source\PSoC5/SPIM_led_control.c **** * Return:
1084:Generated_Source\PSoC5/SPIM_led_control.c **** *  None.
1085:Generated_Source\PSoC5/SPIM_led_control.c **** *
1086:Generated_Source\PSoC5/SPIM_led_control.c **** * Theory:
1087:Generated_Source\PSoC5/SPIM_led_control.c **** *  Enables the output of specific status bits to the interrupt controller.
1088:Generated_Source\PSoC5/SPIM_led_control.c **** *
1089:Generated_Source\PSoC5/SPIM_led_control.c **** *******************************************************************************/
1090:Generated_Source\PSoC5/SPIM_led_control.c **** void SPIM_led_control_SetInterruptMode(uint8 intSrc) 
1091:Generated_Source\PSoC5/SPIM_led_control.c **** {
 978              		.loc 1 1091 0
 979              		.cfi_startproc
 980              		@ args = 0, pretend = 0, frame = 0
 981              		@ frame_needed = 0, uses_anonymous_args = 0
ARM GAS  C:\Users\marti\AppData\Local\Temp\cc4SFPeY.s 			page 38


 982              		@ link register save eliminated.
 983              	.LVL58:
1092:Generated_Source\PSoC5/SPIM_led_control.c ****     SPIM_led_control_TX_STATUS_MASK_REG  = (intSrc & ((uint8) ~SPIM_led_control_STS_SPI_IDLE));
 984              		.loc 1 1092 0
 985 0000 00F0EF02 		and	r2, r0, #239
 986 0004 024B     		ldr	r3, .L90
 987 0006 1A70     		strb	r2, [r3]
1093:Generated_Source\PSoC5/SPIM_led_control.c ****     SPIM_led_control_RX_STATUS_MASK_REG  =  intSrc;
 988              		.loc 1 1093 0
 989 0008 A3F58073 		sub	r3, r3, #256
 990 000c 1870     		strb	r0, [r3]
 991 000e 7047     		bx	lr
 992              	.L91:
 993              		.align	2
 994              	.L90:
 995 0010 88650040 		.word	1073767816
 996              		.cfi_endproc
 997              	.LFE22:
 998              		.size	SPIM_led_control_SetInterruptMode, .-SPIM_led_control_SetInterruptMode
 999              		.section	.text.SPIM_led_control_ReadStatus,"ax",%progbits
 1000              		.align	2
 1001              		.global	SPIM_led_control_ReadStatus
 1002              		.thumb
 1003              		.thumb_func
 1004              		.type	SPIM_led_control_ReadStatus, %function
 1005              	SPIM_led_control_ReadStatus:
 1006              	.LFB23:
1094:Generated_Source\PSoC5/SPIM_led_control.c **** }
1095:Generated_Source\PSoC5/SPIM_led_control.c **** 
1096:Generated_Source\PSoC5/SPIM_led_control.c **** 
1097:Generated_Source\PSoC5/SPIM_led_control.c **** /*******************************************************************************
1098:Generated_Source\PSoC5/SPIM_led_control.c **** * Function Name: SPIM_led_control_ReadStatus
1099:Generated_Source\PSoC5/SPIM_led_control.c **** ********************************************************************************
1100:Generated_Source\PSoC5/SPIM_led_control.c **** *
1101:Generated_Source\PSoC5/SPIM_led_control.c **** * Summary:
1102:Generated_Source\PSoC5/SPIM_led_control.c **** *  Read the status register for the component.
1103:Generated_Source\PSoC5/SPIM_led_control.c **** *
1104:Generated_Source\PSoC5/SPIM_led_control.c **** * Parameters:
1105:Generated_Source\PSoC5/SPIM_led_control.c **** *  None.
1106:Generated_Source\PSoC5/SPIM_led_control.c **** *
1107:Generated_Source\PSoC5/SPIM_led_control.c **** * Return:
1108:Generated_Source\PSoC5/SPIM_led_control.c **** *  Contents of the status register.
1109:Generated_Source\PSoC5/SPIM_led_control.c **** *
1110:Generated_Source\PSoC5/SPIM_led_control.c **** * Global variables:
1111:Generated_Source\PSoC5/SPIM_led_control.c **** *  SPIM_led_control_swStatus - used to store in software status register,
1112:Generated_Source\PSoC5/SPIM_led_control.c **** *  modified every function call - resets to zero.
1113:Generated_Source\PSoC5/SPIM_led_control.c **** *
1114:Generated_Source\PSoC5/SPIM_led_control.c **** * Theory:
1115:Generated_Source\PSoC5/SPIM_led_control.c **** *  Allows the user and the API to read the status register for error detection
1116:Generated_Source\PSoC5/SPIM_led_control.c **** *  and flow control.
1117:Generated_Source\PSoC5/SPIM_led_control.c **** *
1118:Generated_Source\PSoC5/SPIM_led_control.c **** * Side Effects:
1119:Generated_Source\PSoC5/SPIM_led_control.c **** *  Clear status register of the component.
1120:Generated_Source\PSoC5/SPIM_led_control.c **** *
1121:Generated_Source\PSoC5/SPIM_led_control.c **** * Reentrant:
1122:Generated_Source\PSoC5/SPIM_led_control.c **** *  No.
1123:Generated_Source\PSoC5/SPIM_led_control.c **** *
ARM GAS  C:\Users\marti\AppData\Local\Temp\cc4SFPeY.s 			page 39


1124:Generated_Source\PSoC5/SPIM_led_control.c **** *******************************************************************************/
1125:Generated_Source\PSoC5/SPIM_led_control.c **** uint8 SPIM_led_control_ReadStatus(void) 
1126:Generated_Source\PSoC5/SPIM_led_control.c **** {
 1007              		.loc 1 1126 0
 1008              		.cfi_startproc
 1009              		@ args = 0, pretend = 0, frame = 0
 1010              		@ frame_needed = 0, uses_anonymous_args = 0
 1011 0000 10B5     		push	{r4, lr}
 1012              		.cfi_def_cfa_offset 8
 1013              		.cfi_offset 4, -8
 1014              		.cfi_offset 14, -4
1127:Generated_Source\PSoC5/SPIM_led_control.c ****     uint8 tmpStatus;
1128:Generated_Source\PSoC5/SPIM_led_control.c **** 
1129:Generated_Source\PSoC5/SPIM_led_control.c ****     #if(SPIM_led_control_TX_SOFTWARE_BUF_ENABLED || SPIM_led_control_RX_SOFTWARE_BUF_ENABLED)
1130:Generated_Source\PSoC5/SPIM_led_control.c **** 
1131:Generated_Source\PSoC5/SPIM_led_control.c ****         SPIM_led_control_DisableInt();
 1015              		.loc 1 1131 0
 1016 0002 FFF7FEFF 		bl	SPIM_led_control_DisableInt
 1017              	.LVL59:
1132:Generated_Source\PSoC5/SPIM_led_control.c **** 
1133:Generated_Source\PSoC5/SPIM_led_control.c ****         tmpStatus  = SPIM_led_control_GET_STATUS_RX(SPIM_led_control_swStatusRx);
 1018              		.loc 1 1133 0
 1019 0006 0C4B     		ldr	r3, .L94
 1020 0008 1B78     		ldrb	r3, [r3]	@ zero_extendqisi2
 1021 000a 0C4A     		ldr	r2, .L94+4
 1022 000c 1478     		ldrb	r4, [r2]	@ zero_extendqisi2
 1023 000e 04F04004 		and	r4, r4, #64
 1024 0012 1C43     		orrs	r4, r4, r3
 1025              	.LVL60:
1134:Generated_Source\PSoC5/SPIM_led_control.c ****         tmpStatus |= SPIM_led_control_GET_STATUS_TX(SPIM_led_control_swStatusTx);
 1026              		.loc 1 1134 0
 1027 0014 0A4B     		ldr	r3, .L94+8
 1028 0016 1878     		ldrb	r0, [r3]	@ zero_extendqisi2
 1029 0018 0A49     		ldr	r1, .L94+12
 1030 001a 0B78     		ldrb	r3, [r1]	@ zero_extendqisi2
 1031 001c 03F00903 		and	r3, r3, #9
 1032 0020 0343     		orrs	r3, r3, r0
 1033 0022 1C43     		orrs	r4, r4, r3
 1034              	.LVL61:
1135:Generated_Source\PSoC5/SPIM_led_control.c ****         tmpStatus &= ((uint8) ~SPIM_led_control_STS_SPI_IDLE);
 1035              		.loc 1 1135 0
 1036 0024 04F0EF04 		and	r4, r4, #239
 1037              	.LVL62:
1136:Generated_Source\PSoC5/SPIM_led_control.c **** 
1137:Generated_Source\PSoC5/SPIM_led_control.c ****         SPIM_led_control_swStatusTx = 0u;
 1038              		.loc 1 1137 0
 1039 0028 0023     		movs	r3, #0
 1040 002a 0B70     		strb	r3, [r1]
1138:Generated_Source\PSoC5/SPIM_led_control.c ****         SPIM_led_control_swStatusRx = 0u;
 1041              		.loc 1 1138 0
 1042 002c 1370     		strb	r3, [r2]
1139:Generated_Source\PSoC5/SPIM_led_control.c **** 
1140:Generated_Source\PSoC5/SPIM_led_control.c ****         SPIM_led_control_EnableInt();
 1043              		.loc 1 1140 0
 1044 002e FFF7FEFF 		bl	SPIM_led_control_EnableInt
 1045              	.LVL63:
1141:Generated_Source\PSoC5/SPIM_led_control.c **** 
ARM GAS  C:\Users\marti\AppData\Local\Temp\cc4SFPeY.s 			page 40


1142:Generated_Source\PSoC5/SPIM_led_control.c ****     #else
1143:Generated_Source\PSoC5/SPIM_led_control.c **** 
1144:Generated_Source\PSoC5/SPIM_led_control.c ****         tmpStatus  = SPIM_led_control_RX_STATUS_REG;
1145:Generated_Source\PSoC5/SPIM_led_control.c ****         tmpStatus |= SPIM_led_control_TX_STATUS_REG;
1146:Generated_Source\PSoC5/SPIM_led_control.c ****         tmpStatus &= ((uint8) ~SPIM_led_control_STS_SPI_IDLE);
1147:Generated_Source\PSoC5/SPIM_led_control.c **** 
1148:Generated_Source\PSoC5/SPIM_led_control.c ****     #endif /* (SPIM_led_control_TX_SOFTWARE_BUF_ENABLED || SPIM_led_control_RX_SOFTWARE_BUF_ENABLED
1149:Generated_Source\PSoC5/SPIM_led_control.c **** 
1150:Generated_Source\PSoC5/SPIM_led_control.c ****     return(tmpStatus);
1151:Generated_Source\PSoC5/SPIM_led_control.c **** }
 1046              		.loc 1 1151 0
 1047 0032 2046     		mov	r0, r4
 1048 0034 10BD     		pop	{r4, pc}
 1049              	.LVL64:
 1050              	.L95:
 1051 0036 00BF     		.align	2
 1052              	.L94:
 1053 0038 68640040 		.word	1073767528
 1054 003c 00000000 		.word	SPIM_led_control_swStatusRx
 1055 0040 68650040 		.word	1073767784
 1056 0044 00000000 		.word	SPIM_led_control_swStatusTx
 1057              		.cfi_endproc
 1058              	.LFE23:
 1059              		.size	SPIM_led_control_ReadStatus, .-SPIM_led_control_ReadStatus
 1060              		.comm	SPIM_led_control_swStatusRx,1,1
 1061              		.comm	SPIM_led_control_swStatusTx,1,1
 1062              		.global	SPIM_led_control_initVar
 1063              		.comm	SPIM_led_control_txBufferWrite,1,1
 1064              		.comm	SPIM_led_control_txBufferRead,1,1
 1065              		.comm	SPIM_led_control_txBufferFull,1,1
 1066              		.comm	SPIM_led_control_txBuffer,16,4
 1067              		.bss
 1068              		.set	.LANCHOR0,. + 0
 1069              		.type	SPIM_led_control_initVar, %object
 1070              		.size	SPIM_led_control_initVar, 1
 1071              	SPIM_led_control_initVar:
 1072 0000 00       		.space	1
 1073              		.text
 1074              	.Letext0:
 1075              		.file 2 "Generated_Source\\PSoC5\\cytypes.h"
 1076              		.file 3 "Generated_Source\\PSoC5\\CyLib.h"