ARM GAS  C:\Users\marti\AppData\Local\Temp\ccfSPzre.s 			page 1


   1              		.syntax unified
   2              		.cpu cortex-m3
   3              		.fpu softvfp
   4              		.eabi_attribute 20, 1
   5              		.eabi_attribute 21, 1
   6              		.eabi_attribute 23, 3
   7              		.eabi_attribute 24, 1
   8              		.eabi_attribute 25, 1
   9              		.eabi_attribute 26, 1
  10              		.eabi_attribute 30, 1
  11              		.eabi_attribute 34, 1
  12              		.eabi_attribute 18, 4
  13              		.thumb
  14              		.syntax unified
  15              		.file	"SPIM_led_control_PM.c"
  16              		.text
  17              	.Ltext0:
  18              		.cfi_sections	.debug_frame
  19              		.section	.text.SPIM_led_control_SaveConfig,"ax",%progbits
  20              		.align	2
  21              		.global	SPIM_led_control_SaveConfig
  22              		.thumb
  23              		.thumb_func
  24              		.type	SPIM_led_control_SaveConfig, %function
  25              	SPIM_led_control_SaveConfig:
  26              	.LFB0:
  27              		.file 1 "Generated_Source\\PSoC5\\SPIM_led_control_PM.c"
   1:Generated_Source\PSoC5/SPIM_led_control_PM.c **** /*******************************************************************************
   2:Generated_Source\PSoC5/SPIM_led_control_PM.c **** * File Name: SPIM_led_control_PM.c
   3:Generated_Source\PSoC5/SPIM_led_control_PM.c **** * Version 2.50
   4:Generated_Source\PSoC5/SPIM_led_control_PM.c **** *
   5:Generated_Source\PSoC5/SPIM_led_control_PM.c **** * Description:
   6:Generated_Source\PSoC5/SPIM_led_control_PM.c **** *  This file contains the setup, control and status commands to support
   7:Generated_Source\PSoC5/SPIM_led_control_PM.c **** *  component operations in low power mode.
   8:Generated_Source\PSoC5/SPIM_led_control_PM.c **** *
   9:Generated_Source\PSoC5/SPIM_led_control_PM.c **** * Note:
  10:Generated_Source\PSoC5/SPIM_led_control_PM.c **** *
  11:Generated_Source\PSoC5/SPIM_led_control_PM.c **** ********************************************************************************
  12:Generated_Source\PSoC5/SPIM_led_control_PM.c **** * Copyright 2008-2015, Cypress Semiconductor Corporation.  All rights reserved.
  13:Generated_Source\PSoC5/SPIM_led_control_PM.c **** * You may use this file only in accordance with the license, terms, conditions,
  14:Generated_Source\PSoC5/SPIM_led_control_PM.c **** * disclaimers, and limitations in the end user license agreement accompanying
  15:Generated_Source\PSoC5/SPIM_led_control_PM.c **** * the software package with which this file was provided.
  16:Generated_Source\PSoC5/SPIM_led_control_PM.c **** *******************************************************************************/
  17:Generated_Source\PSoC5/SPIM_led_control_PM.c **** 
  18:Generated_Source\PSoC5/SPIM_led_control_PM.c **** #include "SPIM_led_control_PVT.h"
  19:Generated_Source\PSoC5/SPIM_led_control_PM.c **** 
  20:Generated_Source\PSoC5/SPIM_led_control_PM.c **** static SPIM_led_control_BACKUP_STRUCT SPIM_led_control_backup =
  21:Generated_Source\PSoC5/SPIM_led_control_PM.c **** {
  22:Generated_Source\PSoC5/SPIM_led_control_PM.c ****     SPIM_led_control_DISABLED,
  23:Generated_Source\PSoC5/SPIM_led_control_PM.c ****     SPIM_led_control_BITCTR_INIT,
  24:Generated_Source\PSoC5/SPIM_led_control_PM.c **** };
  25:Generated_Source\PSoC5/SPIM_led_control_PM.c **** 
  26:Generated_Source\PSoC5/SPIM_led_control_PM.c **** 
  27:Generated_Source\PSoC5/SPIM_led_control_PM.c **** /*******************************************************************************
  28:Generated_Source\PSoC5/SPIM_led_control_PM.c **** * Function Name: SPIM_led_control_SaveConfig
  29:Generated_Source\PSoC5/SPIM_led_control_PM.c **** ********************************************************************************
  30:Generated_Source\PSoC5/SPIM_led_control_PM.c **** *
ARM GAS  C:\Users\marti\AppData\Local\Temp\ccfSPzre.s 			page 2


  31:Generated_Source\PSoC5/SPIM_led_control_PM.c **** * Summary:
  32:Generated_Source\PSoC5/SPIM_led_control_PM.c **** *  Empty function. Included for consistency with other components.
  33:Generated_Source\PSoC5/SPIM_led_control_PM.c **** *
  34:Generated_Source\PSoC5/SPIM_led_control_PM.c **** * Parameters:
  35:Generated_Source\PSoC5/SPIM_led_control_PM.c **** *  None.
  36:Generated_Source\PSoC5/SPIM_led_control_PM.c **** *
  37:Generated_Source\PSoC5/SPIM_led_control_PM.c **** * Return:
  38:Generated_Source\PSoC5/SPIM_led_control_PM.c **** *  None.
  39:Generated_Source\PSoC5/SPIM_led_control_PM.c **** *
  40:Generated_Source\PSoC5/SPIM_led_control_PM.c **** *******************************************************************************/
  41:Generated_Source\PSoC5/SPIM_led_control_PM.c **** void SPIM_led_control_SaveConfig(void) 
  42:Generated_Source\PSoC5/SPIM_led_control_PM.c **** {
  28              		.loc 1 42 0
  29              		.cfi_startproc
  30              		@ args = 0, pretend = 0, frame = 0
  31              		@ frame_needed = 0, uses_anonymous_args = 0
  32              		@ link register save eliminated.
  33 0000 7047     		bx	lr
  34              		.cfi_endproc
  35              	.LFE0:
  36              		.size	SPIM_led_control_SaveConfig, .-SPIM_led_control_SaveConfig
  37 0002 00BF     		.section	.text.SPIM_led_control_RestoreConfig,"ax",%progbits
  38              		.align	2
  39              		.global	SPIM_led_control_RestoreConfig
  40              		.thumb
  41              		.thumb_func
  42              		.type	SPIM_led_control_RestoreConfig, %function
  43              	SPIM_led_control_RestoreConfig:
  44              	.LFB1:
  43:Generated_Source\PSoC5/SPIM_led_control_PM.c **** 
  44:Generated_Source\PSoC5/SPIM_led_control_PM.c **** }
  45:Generated_Source\PSoC5/SPIM_led_control_PM.c **** 
  46:Generated_Source\PSoC5/SPIM_led_control_PM.c **** 
  47:Generated_Source\PSoC5/SPIM_led_control_PM.c **** /*******************************************************************************
  48:Generated_Source\PSoC5/SPIM_led_control_PM.c **** * Function Name: SPIM_led_control_RestoreConfig
  49:Generated_Source\PSoC5/SPIM_led_control_PM.c **** ********************************************************************************
  50:Generated_Source\PSoC5/SPIM_led_control_PM.c **** *
  51:Generated_Source\PSoC5/SPIM_led_control_PM.c **** * Summary:
  52:Generated_Source\PSoC5/SPIM_led_control_PM.c **** *  Empty function. Included for consistency with other components.
  53:Generated_Source\PSoC5/SPIM_led_control_PM.c **** *
  54:Generated_Source\PSoC5/SPIM_led_control_PM.c **** * Parameters:
  55:Generated_Source\PSoC5/SPIM_led_control_PM.c **** *  None.
  56:Generated_Source\PSoC5/SPIM_led_control_PM.c **** *
  57:Generated_Source\PSoC5/SPIM_led_control_PM.c **** * Return:
  58:Generated_Source\PSoC5/SPIM_led_control_PM.c **** *  None.
  59:Generated_Source\PSoC5/SPIM_led_control_PM.c **** *
  60:Generated_Source\PSoC5/SPIM_led_control_PM.c **** *******************************************************************************/
  61:Generated_Source\PSoC5/SPIM_led_control_PM.c **** void SPIM_led_control_RestoreConfig(void) 
  62:Generated_Source\PSoC5/SPIM_led_control_PM.c **** {
  45              		.loc 1 62 0
  46              		.cfi_startproc
  47              		@ args = 0, pretend = 0, frame = 0
  48              		@ frame_needed = 0, uses_anonymous_args = 0
  49              		@ link register save eliminated.
  50 0000 7047     		bx	lr
  51              		.cfi_endproc
  52              	.LFE1:
ARM GAS  C:\Users\marti\AppData\Local\Temp\ccfSPzre.s 			page 3


  53              		.size	SPIM_led_control_RestoreConfig, .-SPIM_led_control_RestoreConfig
  54 0002 00BF     		.section	.text.SPIM_led_control_Sleep,"ax",%progbits
  55              		.align	2
  56              		.global	SPIM_led_control_Sleep
  57              		.thumb
  58              		.thumb_func
  59              		.type	SPIM_led_control_Sleep, %function
  60              	SPIM_led_control_Sleep:
  61              	.LFB2:
  63:Generated_Source\PSoC5/SPIM_led_control_PM.c **** 
  64:Generated_Source\PSoC5/SPIM_led_control_PM.c **** }
  65:Generated_Source\PSoC5/SPIM_led_control_PM.c **** 
  66:Generated_Source\PSoC5/SPIM_led_control_PM.c **** 
  67:Generated_Source\PSoC5/SPIM_led_control_PM.c **** /*******************************************************************************
  68:Generated_Source\PSoC5/SPIM_led_control_PM.c **** * Function Name: SPIM_led_control_Sleep
  69:Generated_Source\PSoC5/SPIM_led_control_PM.c **** ********************************************************************************
  70:Generated_Source\PSoC5/SPIM_led_control_PM.c **** *
  71:Generated_Source\PSoC5/SPIM_led_control_PM.c **** * Summary:
  72:Generated_Source\PSoC5/SPIM_led_control_PM.c **** *  Prepare SPIM Component goes to sleep.
  73:Generated_Source\PSoC5/SPIM_led_control_PM.c **** *
  74:Generated_Source\PSoC5/SPIM_led_control_PM.c **** * Parameters:
  75:Generated_Source\PSoC5/SPIM_led_control_PM.c **** *  None.
  76:Generated_Source\PSoC5/SPIM_led_control_PM.c **** *
  77:Generated_Source\PSoC5/SPIM_led_control_PM.c **** * Return:
  78:Generated_Source\PSoC5/SPIM_led_control_PM.c **** *  None.
  79:Generated_Source\PSoC5/SPIM_led_control_PM.c **** *
  80:Generated_Source\PSoC5/SPIM_led_control_PM.c **** * Global Variables:
  81:Generated_Source\PSoC5/SPIM_led_control_PM.c **** *  SPIM_led_control_backup - modified when non-retention registers are saved.
  82:Generated_Source\PSoC5/SPIM_led_control_PM.c **** *
  83:Generated_Source\PSoC5/SPIM_led_control_PM.c **** * Reentrant:
  84:Generated_Source\PSoC5/SPIM_led_control_PM.c **** *  No.
  85:Generated_Source\PSoC5/SPIM_led_control_PM.c **** *
  86:Generated_Source\PSoC5/SPIM_led_control_PM.c **** *******************************************************************************/
  87:Generated_Source\PSoC5/SPIM_led_control_PM.c **** void SPIM_led_control_Sleep(void) 
  88:Generated_Source\PSoC5/SPIM_led_control_PM.c **** {
  62              		.loc 1 88 0
  63              		.cfi_startproc
  64              		@ args = 0, pretend = 0, frame = 0
  65              		@ frame_needed = 0, uses_anonymous_args = 0
  66              		.loc 1 88 0
  67 0000 08B5     		push	{r3, lr}
  68              		.cfi_def_cfa_offset 8
  69              		.cfi_offset 3, -8
  70              		.cfi_offset 14, -4
  89:Generated_Source\PSoC5/SPIM_led_control_PM.c ****     /* Save components enable state */
  90:Generated_Source\PSoC5/SPIM_led_control_PM.c ****     SPIM_led_control_backup.enableState = ((uint8) SPIM_led_control_IS_ENABLED);
  71              		.loc 1 90 0
  72 0002 044B     		ldr	r3, .L5
  73 0004 1B78     		ldrb	r3, [r3]	@ zero_extendqisi2
  74 0006 C3F30013 		ubfx	r3, r3, #4, #1
  75 000a 034A     		ldr	r2, .L5+4
  76 000c 1370     		strb	r3, [r2]
  91:Generated_Source\PSoC5/SPIM_led_control_PM.c **** 
  92:Generated_Source\PSoC5/SPIM_led_control_PM.c ****     SPIM_led_control_Stop();
  77              		.loc 1 92 0
  78 000e FFF7FEFF 		bl	SPIM_led_control_Stop
  79              	.LVL0:
ARM GAS  C:\Users\marti\AppData\Local\Temp\ccfSPzre.s 			page 4


  80 0012 08BD     		pop	{r3, pc}
  81              	.L6:
  82              		.align	2
  83              	.L5:
  84 0014 98650040 		.word	1073767832
  85 0018 00000000 		.word	.LANCHOR0
  86              		.cfi_endproc
  87              	.LFE2:
  88              		.size	SPIM_led_control_Sleep, .-SPIM_led_control_Sleep
  89              		.section	.text.SPIM_led_control_Wakeup,"ax",%progbits
  90              		.align	2
  91              		.global	SPIM_led_control_Wakeup
  92              		.thumb
  93              		.thumb_func
  94              		.type	SPIM_led_control_Wakeup, %function
  95              	SPIM_led_control_Wakeup:
  96              	.LFB3:
  93:Generated_Source\PSoC5/SPIM_led_control_PM.c **** }
  94:Generated_Source\PSoC5/SPIM_led_control_PM.c **** 
  95:Generated_Source\PSoC5/SPIM_led_control_PM.c **** 
  96:Generated_Source\PSoC5/SPIM_led_control_PM.c **** /*******************************************************************************
  97:Generated_Source\PSoC5/SPIM_led_control_PM.c **** * Function Name: SPIM_led_control_Wakeup
  98:Generated_Source\PSoC5/SPIM_led_control_PM.c **** ********************************************************************************
  99:Generated_Source\PSoC5/SPIM_led_control_PM.c **** *
 100:Generated_Source\PSoC5/SPIM_led_control_PM.c **** * Summary:
 101:Generated_Source\PSoC5/SPIM_led_control_PM.c **** *  Prepare SPIM Component to wake up.
 102:Generated_Source\PSoC5/SPIM_led_control_PM.c **** *
 103:Generated_Source\PSoC5/SPIM_led_control_PM.c **** * Parameters:
 104:Generated_Source\PSoC5/SPIM_led_control_PM.c **** *  None.
 105:Generated_Source\PSoC5/SPIM_led_control_PM.c **** *
 106:Generated_Source\PSoC5/SPIM_led_control_PM.c **** * Return:
 107:Generated_Source\PSoC5/SPIM_led_control_PM.c **** *  None.
 108:Generated_Source\PSoC5/SPIM_led_control_PM.c **** *
 109:Generated_Source\PSoC5/SPIM_led_control_PM.c **** * Global Variables:
 110:Generated_Source\PSoC5/SPIM_led_control_PM.c **** *  SPIM_led_control_backup - used when non-retention registers are restored.
 111:Generated_Source\PSoC5/SPIM_led_control_PM.c **** *  SPIM_led_control_txBufferWrite - modified every function call - resets to
 112:Generated_Source\PSoC5/SPIM_led_control_PM.c **** *  zero.
 113:Generated_Source\PSoC5/SPIM_led_control_PM.c **** *  SPIM_led_control_txBufferRead - modified every function call - resets to
 114:Generated_Source\PSoC5/SPIM_led_control_PM.c **** *  zero.
 115:Generated_Source\PSoC5/SPIM_led_control_PM.c **** *  SPIM_led_control_rxBufferWrite - modified every function call - resets to
 116:Generated_Source\PSoC5/SPIM_led_control_PM.c **** *  zero.
 117:Generated_Source\PSoC5/SPIM_led_control_PM.c **** *  SPIM_led_control_rxBufferRead - modified every function call - resets to
 118:Generated_Source\PSoC5/SPIM_led_control_PM.c **** *  zero.
 119:Generated_Source\PSoC5/SPIM_led_control_PM.c **** *
 120:Generated_Source\PSoC5/SPIM_led_control_PM.c **** * Reentrant:
 121:Generated_Source\PSoC5/SPIM_led_control_PM.c **** *  No.
 122:Generated_Source\PSoC5/SPIM_led_control_PM.c **** *
 123:Generated_Source\PSoC5/SPIM_led_control_PM.c **** *******************************************************************************/
 124:Generated_Source\PSoC5/SPIM_led_control_PM.c **** void SPIM_led_control_Wakeup(void) 
 125:Generated_Source\PSoC5/SPIM_led_control_PM.c **** {
  97              		.loc 1 125 0
  98              		.cfi_startproc
  99              		@ args = 0, pretend = 0, frame = 0
 100              		@ frame_needed = 0, uses_anonymous_args = 0
 101 0000 08B5     		push	{r3, lr}
 102              		.cfi_def_cfa_offset 8
 103              		.cfi_offset 3, -8
ARM GAS  C:\Users\marti\AppData\Local\Temp\ccfSPzre.s 			page 5


 104              		.cfi_offset 14, -4
 126:Generated_Source\PSoC5/SPIM_led_control_PM.c ****     #if(SPIM_led_control_RX_SOFTWARE_BUF_ENABLED)
 127:Generated_Source\PSoC5/SPIM_led_control_PM.c ****         SPIM_led_control_rxBufferFull  = 0u;
 128:Generated_Source\PSoC5/SPIM_led_control_PM.c ****         SPIM_led_control_rxBufferRead  = 0u;
 129:Generated_Source\PSoC5/SPIM_led_control_PM.c ****         SPIM_led_control_rxBufferWrite = 0u;
 130:Generated_Source\PSoC5/SPIM_led_control_PM.c ****     #endif /* (SPIM_led_control_RX_SOFTWARE_BUF_ENABLED) */
 131:Generated_Source\PSoC5/SPIM_led_control_PM.c **** 
 132:Generated_Source\PSoC5/SPIM_led_control_PM.c ****     #if(SPIM_led_control_TX_SOFTWARE_BUF_ENABLED)
 133:Generated_Source\PSoC5/SPIM_led_control_PM.c ****         SPIM_led_control_txBufferFull  = 0u;
 105              		.loc 1 133 0
 106 0002 0023     		movs	r3, #0
 107 0004 064A     		ldr	r2, .L10
 108 0006 1370     		strb	r3, [r2]
 134:Generated_Source\PSoC5/SPIM_led_control_PM.c ****         SPIM_led_control_txBufferRead  = 0u;
 109              		.loc 1 134 0
 110 0008 064A     		ldr	r2, .L10+4
 111 000a 1370     		strb	r3, [r2]
 135:Generated_Source\PSoC5/SPIM_led_control_PM.c ****         SPIM_led_control_txBufferWrite = 0u;
 112              		.loc 1 135 0
 113 000c 064A     		ldr	r2, .L10+8
 114 000e 1370     		strb	r3, [r2]
 136:Generated_Source\PSoC5/SPIM_led_control_PM.c ****     #endif /* (SPIM_led_control_TX_SOFTWARE_BUF_ENABLED) */
 137:Generated_Source\PSoC5/SPIM_led_control_PM.c **** 
 138:Generated_Source\PSoC5/SPIM_led_control_PM.c ****     /* Clear any data from the RX and TX FIFO */
 139:Generated_Source\PSoC5/SPIM_led_control_PM.c ****     SPIM_led_control_ClearFIFO();
 115              		.loc 1 139 0
 116 0010 FFF7FEFF 		bl	SPIM_led_control_ClearFIFO
 117              	.LVL1:
 140:Generated_Source\PSoC5/SPIM_led_control_PM.c **** 
 141:Generated_Source\PSoC5/SPIM_led_control_PM.c ****     /* Restore components block enable state */
 142:Generated_Source\PSoC5/SPIM_led_control_PM.c ****     if(0u != SPIM_led_control_backup.enableState)
 118              		.loc 1 142 0
 119 0014 054B     		ldr	r3, .L10+12
 120 0016 1B78     		ldrb	r3, [r3]	@ zero_extendqisi2
 121 0018 0BB1     		cbz	r3, .L7
 143:Generated_Source\PSoC5/SPIM_led_control_PM.c ****     {
 144:Generated_Source\PSoC5/SPIM_led_control_PM.c ****         SPIM_led_control_Enable();
 122              		.loc 1 144 0
 123 001a FFF7FEFF 		bl	SPIM_led_control_Enable
 124              	.LVL2:
 125              	.L7:
 126 001e 08BD     		pop	{r3, pc}
 127              	.L11:
 128              		.align	2
 129              	.L10:
 130 0020 00000000 		.word	SPIM_led_control_txBufferFull
 131 0024 00000000 		.word	SPIM_led_control_txBufferRead
 132 0028 00000000 		.word	SPIM_led_control_txBufferWrite
 133 002c 00000000 		.word	.LANCHOR0
 134              		.cfi_endproc
 135              	.LFE3:
 136              		.size	SPIM_led_control_Wakeup, .-SPIM_led_control_Wakeup
 137              		.data
 138              		.align	2
 139              		.set	.LANCHOR0,. + 0
 140              		.type	SPIM_led_control_backup, %object
 141              		.size	SPIM_led_control_backup, 2
ARM GAS  C:\Users\marti\AppData\Local\Temp\ccfSPzre.s 			page 6


 142              	SPIM_led_control_backup:
 143 0000 00       		.byte	0
 144 0001 0F       		.byte	15
 145              		.text
 146              	.Letext0:
 147              		.file 2 "Generated_Source\\PSoC5\\cytypes.h"
 148              		.file 3 "Generated_Source\\PSoC5\\SPIM_led_control.h"
 149              		.file 4 "Generated_Source\\PSoC5\\SPIM_led_control_PVT.h"